TN:
SF:/home/osnsab/Документы/Sem3/laba3/laba3/UnitC++Test/include/Array.cpp
FNL:0,12,15
FNA:0,2,_ZN5Array6removeEi
FNL:1,17,20
FNA:1,12,_ZNK5Array3getB5cxx11Ei
FNL:2,22,25
FNA:2,2,_ZN5Array3setEiRKNSt7__cxx1112basic_stringIcSt11char_traitsIcESaIcEEE
FNL:3,27,27
FNA:3,7,_ZNK5Array4sizeEv
FNL:4,28,28
FNA:4,4,_ZNK5Array5emptyEv
FNL:5,29,29
FNA:5,0,_ZNK5Array7isEmptyEv
FNL:6,31,36
FNA:6,2,_ZNK5Array9serializeB5cxx11Ev
FNL:7,38,41
FNA:7,2,_ZN5Array11deserializeERKN8nlohmann16json_abi_v3_11_310basic_jsonISt3mapSt6vectorNSt7__cxx1112basic_stringIcSt11char_traitsIcESaIcEEEblmdSaNS1_14adl_serializerES4_IhSaIhEEvEE
FNL:8,43,51
FNA:8,2,_ZNK5Array15serializeBinaryERSo
FNL:9,5,5
FNA:9,16,_ZN5ArrayC2Ei
FNL:10,53,64
FNA:10,2,_ZN5Array17deserializeBinaryERSi
FNL:11,66,71
FNA:11,1,_ZNK5Array13serializeTextERSo
FNL:12,7,10
FNA:12,18,_ZN5Array6insertEiRKNSt7__cxx1112basic_stringIcSt11char_traitsIcESaIcEEE
FNL:13,73,83
FNA:13,1,_ZN5Array15deserializeTextERSi
FNL:14,85,91
FNA:14,1,_ZNK5Array5printEv
FNF:15
FNH:14
DA:5,16
DA:7,18
DA:8,18
DA:9,51
DA:10,17
DA:12,2
DA:13,2
DA:14,3
DA:15,1
DA:17,12
DA:18,12
DA:19,11
DA:22,2
DA:23,2
DA:24,1
DA:25,1
DA:27,7
DA:28,4
DA:29,0
DA:31,2
DA:32,2
DA:33,2
DA:34,2
DA:35,2
DA:36,0
DA:38,2
DA:39,2
DA:40,2
DA:41,2
DA:43,2
DA:44,2
DA:45,2
DA:46,6
DA:47,2
DA:48,2
DA:49,2
DA:51,2
DA:53,2
DA:54,2
DA:56,2
DA:57,4
DA:59,2
DA:60,2
DA:61,2
DA:62,2
DA:63,2
DA:64,2
DA:66,1
DA:67,1
DA:68,4
DA:69,2
DA:71,1
DA:73,1
DA:74,1
DA:76,1
DA:77,1
DA:78,3
DA:79,2
DA:80,2
DA:81,2
DA:82,2
DA:83,1
DA:85,1
DA:86,1
DA:87,3
DA:88,1
DA:90,1
DA:91,1
LF:68
LH:66
end_of_record
TN:
SF:/home/osnsab/Документы/Sem3/laba3/laba3/UnitC++Test/include/ChainHashTable.cpp
FNL:0,110,128
FNA:0,2,_ZNK14ChainHashTable15serializeBinaryERSo
FNL:1,130,156
FNA:1,2,_ZN14ChainHashTable17deserializeBinaryERSi
FNL:2,158,167
FNA:2,2,_ZNK14ChainHashTable13serializeTextERSo
FNL:3,169,185
FNA:3,2,_ZN14ChainHashTable15deserializeTextERSi
FNL:4,17,31
FNA:4,37,_ZN14ChainHashTable6insertERKNSt7__cxx1112basic_stringIcSt11char_traitsIcESaIcEEES7_
FNL:5,187,199
FNA:5,0,_ZNK14ChainHashTable7displayEv
FNL:6,33,42
FNA:6,34,_ZNK14ChainHashTable4findERKNSt7__cxx1112basic_stringIcSt11char_traitsIcESaIcEEE
FNL:7,44,53
FNA:7,2,_ZNK14ChainHashTable6hasKeyERKNSt7__cxx1112basic_stringIcSt11char_traitsIcESaIcEEE
FNL:8,5,7
FNA:8,16,_ZN14ChainHashTableC2Ei
FNL:9,55,66
FNA:9,2,_ZN14ChainHashTable6removeERKNSt7__cxx1112basic_stringIcSt11char_traitsIcESaIcEEE
FNL:10,68,70
FNA:10,9,_ZNK14ChainHashTable4sizeEv
FNL:11,72,74
FNA:11,5,_ZNK14ChainHashTable7isEmptyEv
FNL:12,76,94
FNA:12,2,_ZNK14ChainHashTable9serializeB5cxx11Ev
FNL:13,9,15
FNA:13,75,_ZNK14ChainHashTable4hashERKNSt7__cxx1112basic_stringIcSt11char_traitsIcESaIcEEE
FNL:14,96,108
FNA:14,2,_ZN14ChainHashTable11deserializeERKN8nlohmann16json_abi_v3_11_310basic_jsonISt3mapSt6vectorNSt7__cxx1112basic_stringIcSt11char_traitsIcESaIcEEEblmdSaNS1_14adl_serializerES4_IhSaIhEEvEE
FNF:15
FNH:14
DA:5,16
DA:6,16
DA:7,16
DA:9,75
DA:10,75
DA:11,497
DA:12,347
DA:14,75
DA:17,37
DA:18,37
DA:21,79
DA:22,43
DA:23,1
DA:24,1
DA:29,36
DA:30,36
DA:33,34
DA:34,34
DA:36,76
DA:37,74
DA:38,32
DA:41,4
DA:44,2
DA:45,2
DA:47,2
DA:48,1
DA:49,1
DA:52,1
DA:55,2
DA:56,2
DA:58,2
DA:59,2
DA:60,1
DA:61,1
DA:62,1
DA:63,1
DA:68,9
DA:69,9
DA:72,5
DA:73,5
DA:76,2
DA:77,2
DA:78,2
DA:79,2
DA:80,2
DA:82,36
DA:83,32
DA:84,35
DA:85,3
DA:86,3
DA:87,3
DA:88,3
DA:89,3
DA:90,32
DA:91,32
DA:93,2
DA:94,0
DA:96,2
DA:97,2
DA:98,2
DA:99,2
DA:100,2
DA:102,2
DA:103,34
DA:104,38
DA:105,3
DA:108,2
DA:110,2
DA:111,2
DA:112,2
DA:114,36
DA:115,32
DA:116,32
DA:118,35
DA:119,3
DA:120,3
DA:122,3
DA:123,3
DA:124,3
DA:125,3
DA:128,2
DA:130,2
DA:131,2
DA:133,2
DA:134,2
DA:136,2
DA:138,34
DA:140,32
DA:142,35
DA:145,3
DA:146,3
DA:147,3
DA:149,3
DA:150,3
DA:151,3
DA:153,3
DA:154,3
DA:156,2
DA:158,2
DA:159,2
DA:161,36
DA:162,32
DA:163,35
DA:164,3
DA:167,2
DA:169,2
DA:170,2
DA:172,2
DA:173,2
DA:175,34
DA:177,32
DA:179,35
DA:180,3
DA:181,3
DA:182,3
DA:183,3
DA:185,2
DA:187,0
DA:188,0
DA:190,0
DA:191,0
DA:192,0
DA:193,0
DA:194,0
DA:196,0
DA:199,0
LF:126
LH:116
end_of_record
TN:
SF:/home/osnsab/Документы/Sem3/laba3/laba3/UnitC++Test/include/ChainHashTable.hpp
FNL:0,11,11
FNA:0,45,_ZN8HashNodeC2ERKNSt7__cxx1112basic_stringIcSt11char_traitsIcESaIcEEES7_
FNF:1
FNH:1
DA:11,45
LF:1
LH:1
end_of_record
TN:
SF:/home/osnsab/Документы/Sem3/laba3/laba3/UnitC++Test/include/DoublyList.cpp
FNL:0,107,107
FNA:0,12,_ZNK10DoublyList4sizeEv
FNL:1,108,108
FNA:1,118,_ZNK10DoublyList7isEmptyEv
FNL:2,110,120
FNA:2,2,_ZNK10DoublyList9serializeB5cxx11Ev
FNL:3,122,128
FNA:3,2,_ZN10DoublyList11deserializeERKN8nlohmann16json_abi_v3_11_310basic_jsonISt3mapSt6vectorNSt7__cxx1112basic_stringIcSt11char_traitsIcESaIcEEEblmdSaNS1_14adl_serializerES4_IhSaIhEEvEE
FNL:4,13,23
FNA:4,3,_ZN10DoublyList9pushFrontERKNSt7__cxx1112basic_stringIcSt11char_traitsIcESaIcEEE
FNL:5,130,139
FNA:5,2,_ZNK10DoublyList15serializeBinaryERSo
FNL:6,141,152
FNA:6,2,_ZN10DoublyList17deserializeBinaryERSi
FNL:7,154,161
FNA:7,1,_ZNK10DoublyList13serializeTextERSo
FNL:8,163,173
FNA:8,1,_ZN10DoublyList15deserializeTextERSi
FNL:9,175,183
FNA:9,1,_ZNK10DoublyList5printEv
FNL:10,25,35
FNA:10,28,_ZN10DoublyList8pushBackERKNSt7__cxx1112basic_stringIcSt11char_traitsIcESaIcEEE
FNL:11,37,48
FNA:11,29,_ZN10DoublyList8popFrontEv
FNL:12,5,5
FNA:12,16,_ZN10DoublyListC2Ev
FNL:13,50,61
FNA:13,3,_ZN10DoublyList7popBackEv
FNL:14,63,79
FNA:14,4,_ZN10DoublyList6insertEiRKNSt7__cxx1112basic_stringIcSt11char_traitsIcESaIcEEE
FNL:15,7,11
FNA:15,16,_ZN10DoublyListD2Ev
FNL:16,81,96
FNA:16,4,_ZN10DoublyList6removeEi
FNL:17,98,105
FNA:17,23,_ZNK10DoublyList3getB5cxx11Ei
FNF:18
FNH:18
DA:5,16
DA:7,16
DA:8,42
DA:9,26
DA:11,16
DA:13,3
DA:14,3
DA:15,3
DA:16,1
DA:18,2
DA:19,2
DA:20,2
DA:22,3
DA:23,3
DA:25,28
DA:26,28
DA:27,28
DA:28,11
DA:30,17
DA:31,17
DA:32,17
DA:34,28
DA:35,28
DA:37,29
DA:38,29
DA:39,28
DA:40,28
DA:41,11
DA:43,17
DA:44,17
DA:46,28
DA:47,28
DA:48,28
DA:50,3
DA:51,3
DA:52,3
DA:53,3
DA:54,1
DA:56,2
DA:57,2
DA:59,3
DA:60,3
DA:61,3
DA:63,4
DA:64,4
DA:65,3
DA:67,2
DA:68,8
DA:69,6
DA:71,2
DA:73,1
DA:74,1
DA:75,1
DA:76,1
DA:77,1
DA:78,1
DA:81,4
DA:82,4
DA:83,4
DA:84,3
DA:86,2
DA:87,4
DA:88,2
DA:90,2
DA:92,1
DA:93,1
DA:94,1
DA:95,1
DA:98,23
DA:99,23
DA:100,40
DA:101,17
DA:103,23
DA:104,22
DA:107,12
DA:108,118
DA:110,2
DA:111,2
DA:112,2
DA:113,2
DA:114,2
DA:115,5
DA:116,3
DA:117,3
DA:119,2
DA:120,0
DA:122,2
DA:123,2
DA:124,2
DA:125,5
DA:126,3
DA:128,2
DA:130,2
DA:131,2
DA:132,2
DA:133,4
DA:134,2
DA:135,2
DA:136,2
DA:137,2
DA:139,2
DA:141,2
DA:142,2
DA:144,2
DA:145,4
DA:147,2
DA:148,2
DA:149,2
DA:150,2
DA:151,2
DA:152,2
DA:154,1
DA:155,1
DA:156,1
DA:157,3
DA:158,2
DA:159,2
DA:161,1
DA:163,1
DA:164,1
DA:166,1
DA:167,1
DA:168,3
DA:169,2
DA:170,2
DA:171,2
DA:172,2
DA:173,1
DA:175,1
DA:176,1
DA:177,1
DA:178,3
DA:179,2
DA:180,2
DA:182,1
DA:183,1
LF:136
LH:135
end_of_record
TN:
SF:/home/osnsab/Документы/Sem3/laba3/laba3/UnitC++Test/include/DoublyList.hpp
FNL:0,10,10
FNA:0,32,_ZN14DoublyListNodeC2ERKNSt7__cxx1112basic_stringIcSt11char_traitsIcESaIcEEE
FNF:1
FNH:1
DA:10,32
LF:1
LH:1
end_of_record
TN:
SF:/home/osnsab/Документы/Sem3/laba3/laba3/UnitC++Test/include/ForwardList.cpp
FNL:0,108,116
FNA:0,1,_ZNK11ForwardList8saveTextERKNSt7__cxx1112basic_stringIcSt11char_traitsIcESaIcEEE
FNL:1,118,133
FNA:1,1,_ZN11ForwardList8loadTextERKNSt7__cxx1112basic_stringIcSt11char_traitsIcESaIcEEE
FNL:2,135,143
FNA:2,0,_ZNK11ForwardList5printEv
FNL:3,16,22
FNA:3,24,_ZN11ForwardList8popFrontEv
FNL:4,24,33
FNA:4,3,_ZN11ForwardList6insertEiRKNSt7__cxx1112basic_stringIcSt11char_traitsIcESaIcEEE
FNL:5,35,45
FNA:5,1,_ZN11ForwardList6removeEi
FNL:6,47,52
FNA:6,15,_ZNK11ForwardList3getB5cxx11Ei
FNL:7,54,54
FNA:7,7,_ZNK11ForwardList4sizeEv
FNL:8,55,55
FNA:8,71,_ZNK11ForwardList7isEmptyEv
FNL:9,57,67
FNA:9,2,_ZNK11ForwardList6toJSONB5cxx11Ev
FNL:10,6,6
FNA:10,14,_ZN11ForwardListC2Ev
FNL:11,69,76
FNA:11,2,_ZN11ForwardList8fromJSONERKNSt7__cxx1112basic_stringIcSt11char_traitsIcESaIcEEE
FNL:12,7,7
FNA:12,14,_ZN11ForwardListD2Ev
FNL:13,78,88
FNA:13,2,_ZNK11ForwardList10saveBinaryERKNSt7__cxx1112basic_stringIcSt11char_traitsIcESaIcEEE
FNL:14,9,14
FNA:14,23,_ZN11ForwardList9pushFrontERKNSt7__cxx1112basic_stringIcSt11char_traitsIcESaIcEEE
FNL:15,90,106
FNA:15,2,_ZN11ForwardList10loadBinaryERKNSt7__cxx1112basic_stringIcSt11char_traitsIcESaIcEEE
FNF:16
FNH:15
DA:6,14
DA:7,36
DA:9,23
DA:10,23
DA:11,23
DA:12,23
DA:13,23
DA:14,23
DA:16,24
DA:17,24
DA:18,23
DA:19,23
DA:20,23
DA:21,23
DA:22,23
DA:24,3
DA:25,3
DA:26,1
DA:27,1
DA:28,1
DA:29,1
DA:30,1
DA:31,1
DA:32,1
DA:35,1
DA:36,1
DA:37,1
DA:38,1
DA:39,1
DA:40,1
DA:41,1
DA:42,1
DA:43,1
DA:44,1
DA:47,15
DA:48,15
DA:49,26
DA:50,15
DA:51,15
DA:54,7
DA:55,71
DA:57,2
DA:58,2
DA:59,2
DA:60,2
DA:61,2
DA:62,5
DA:63,3
DA:64,3
DA:66,4
DA:67,2
DA:69,2
DA:70,2
DA:71,2
DA:72,2
DA:73,5
DA:74,3
DA:76,2
DA:78,2
DA:79,2
DA:80,2
DA:81,2
DA:82,4
DA:83,2
DA:84,2
DA:85,2
DA:86,2
DA:88,2
DA:90,2
DA:91,2
DA:92,2
DA:94,2
DA:95,2
DA:96,4
DA:98,2
DA:99,2
DA:100,2
DA:101,2
DA:102,2
DA:103,4
DA:104,2
DA:106,2
DA:108,1
DA:109,1
DA:110,1
DA:111,1
DA:112,4
DA:113,3
DA:114,3
DA:116,1
DA:118,1
DA:119,1
DA:120,1
DA:122,1
DA:123,1
DA:124,1
DA:125,4
DA:126,3
DA:127,3
DA:128,3
DA:129,3
DA:130,4
DA:131,3
DA:133,1
DA:135,0
DA:136,0
DA:137,0
DA:138,0
DA:139,0
DA:140,0
DA:142,0
DA:143,0
LF:112
LH:104
end_of_record
TN:
SF:/home/osnsab/Документы/Sem3/laba3/laba3/UnitC++Test/include/ForwardList.hpp
FNL:0,7,7
FNA:0,24,_ZN15ForwardListNodeC2ERKNSt7__cxx1112basic_stringIcSt11char_traitsIcESaIcEEE
FNF:1
FNH:1
DA:7,24
LF:1
LH:1
end_of_record
TN:
SF:/home/osnsab/Документы/Sem3/laba3/laba3/UnitC++Test/include/Queue.cpp
FNL:0,106,122
FNA:0,2,_ZN5Queue17deserializeBinaryERSi
FNL:1,124,132
FNA:1,1,_ZNK5Queue13serializeTextERSo
FNL:2,134,148
FNA:2,1,_ZN5Queue15deserializeTextERSi
FNL:3,14,23
FNA:3,25,_ZN5Queue7enqueueERKNSt7__cxx1112basic_stringIcSt11char_traitsIcESaIcEEE
FNL:4,151,159
FNA:4,1,_ZNK5Queue5printEv
FNL:5,26,42
FNA:5,26,_ZN5Queue7dequeueB5cxx11Ev
FNL:6,44,49
FNA:6,8,_ZNK5Queue5frontB5cxx11Ev
FNL:7,5,5
FNA:7,14,_ZN5QueueC2Ev
FNL:8,51,53
FNA:8,0,_ZNK5Queue8getFrontB5cxx11Ev
FNL:9,55,57
FNA:9,103,_ZNK5Queue5emptyEv
FNL:10,59,61
FNA:10,0,_ZNK5Queue7isEmptyEv
FNL:11,63,65
FNA:11,9,_ZNK5Queue4sizeEv
FNL:12,68,80
FNA:12,2,_ZNK5Queue9serializeB5cxx11Ev
FNL:13,7,11
FNA:13,14,_ZN5QueueD2Ev
FNL:14,83,92
FNA:14,2,_ZN5Queue11deserializeERKN8nlohmann16json_abi_v3_11_310basic_jsonISt3mapSt6vectorNSt7__cxx1112basic_stringIcSt11char_traitsIcESaIcEEEblmdSaNS1_14adl_serializerES4_IhSaIhEEvEE
FNL:15,94,104
FNA:15,2,_ZNK5Queue15serializeBinaryERSo
FNF:16
FNH:14
DA:5,14
DA:7,14
DA:8,34
DA:9,20
DA:11,14
DA:14,25
DA:15,25
DA:16,25
DA:17,10
DA:19,15
DA:20,15
DA:22,25
DA:23,25
DA:26,26
DA:27,26
DA:28,1
DA:31,25
DA:32,25
DA:33,25
DA:35,25
DA:36,10
DA:39,25
DA:40,25
DA:41,25
DA:44,8
DA:45,8
DA:46,1
DA:48,7
DA:51,0
DA:52,0
DA:55,103
DA:56,103
DA:59,0
DA:60,0
DA:63,9
DA:64,9
DA:68,2
DA:69,2
DA:70,2
DA:71,2
DA:73,2
DA:74,5
DA:75,3
DA:76,3
DA:79,2
DA:80,0
DA:83,2
DA:84,2
DA:85,0
DA:88,2
DA:89,5
DA:90,3
DA:92,2
DA:94,2
DA:95,2
DA:97,2
DA:98,4
DA:99,2
DA:100,2
DA:101,2
DA:102,2
DA:104,2
DA:106,2
DA:107,2
DA:108,0
DA:112,2
DA:114,4
DA:116,2
DA:118,2
DA:119,2
DA:120,2
DA:121,2
DA:122,2
DA:124,1
DA:125,1
DA:127,1
DA:128,3
DA:129,2
DA:130,2
DA:132,1
DA:134,1
DA:135,1
DA:136,0
DA:140,1
DA:141,1
DA:143,3
DA:144,2
DA:145,2
DA:146,2
DA:147,2
DA:148,1
DA:151,1
DA:152,1
DA:153,1
DA:154,3
DA:155,2
DA:156,2
DA:158,1
DA:159,1
LF:99
LH:91
end_of_record
TN:
SF:/home/osnsab/Документы/Sem3/laba3/laba3/UnitC++Test/include/Queue.hpp
FNL:0,8,8
FNA:0,25,_ZN9QueueNodeC2ERKNSt7__cxx1112basic_stringIcSt11char_traitsIcESaIcEEE
FNF:1
FNH:1
DA:8,25
LF:1
LH:1
end_of_record
TN:
SF:/home/osnsab/Документы/Sem3/laba3/laba3/UnitC++Test/include/RedBlackTree.cpp
FNL:0,109,117
FNA:0,88,_ZNK12RedBlackTree6searchERKNSt7__cxx1112basic_stringIcSt11char_traitsIcESaIcEEE
FNL:1,119,128
FNA:1,0,_ZN12RedBlackTree6removeERKNSt7__cxx1112basic_stringIcSt11char_traitsIcESaIcEEE
FNL:2,13,15
FNA:2,16,_ZN12RedBlackTreeD2Ev
FNL:3,130,135
FNA:3,7,_ZNK12RedBlackTree7isEmptyEv
FNL:4,137,145
FNA:4,65,_ZNK12RedBlackTree16inorderTraversalEP6RBNodeRNSt7__cxx1112basic_stringIcSt11char_traitsIcESaIcEEE
FNL:5,147,154
FNA:5,2,_ZNK12RedBlackTree9serializeB5cxx11Ev
FNL:6,156,167
FNA:6,2,_ZN12RedBlackTree11deserializeERKN8nlohmann16json_abi_v3_11_310basic_jsonISt3mapSt6vectorNSt7__cxx1112basic_stringIcSt11char_traitsIcESaIcEEEblmdSaNS1_14adl_serializerES4_IhSaIhEEvEE
FNL:7,169,177
FNA:7,2,_ZNK12RedBlackTree15serializeBinaryERSo
FNL:8,17,28
FNA:8,35,_ZN12RedBlackTree10leftRotateEP6RBNode
FNL:9,179,193
FNA:9,2,_ZN12RedBlackTree17deserializeBinaryERSi
FNL:10,195,199
FNA:10,2,_ZNK12RedBlackTree13serializeTextERSo
FNL:11,201,213
FNA:11,2,_ZN12RedBlackTree15deserializeTextERSi
FNL:12,215,220
FNA:12,1,_ZNK12RedBlackTree5printEv
FNL:13,30,41
FNA:13,14,_ZN12RedBlackTree11rightRotateEP6RBNode
FNL:14,43,68
FNA:14,125,_ZN12RedBlackTree6insertERKNSt7__cxx1112basic_stringIcSt11char_traitsIcESaIcEEE
FNL:15,6,11
FNA:15,16,_ZN12RedBlackTreeC2Ev
FNL:16,70,107
FNA:16,114,_ZN12RedBlackTree11insertFixupEP6RBNode
FNF:17
FNH:16
DA:6,16
DA:7,48
DA:8,16
DA:9,16
DA:10,16
DA:11,16
DA:13,16
DA:15,16
DA:17,35
DA:18,35
DA:19,35
DA:20,35
DA:21,35
DA:22,35
DA:23,35
DA:24,29
DA:25,11
DA:26,35
DA:27,35
DA:30,14
DA:31,14
DA:32,14
DA:33,14
DA:34,14
DA:35,14
DA:36,14
DA:37,11
DA:38,1
DA:39,14
DA:40,14
DA:43,125
DA:44,125
DA:45,125
DA:46,125
DA:48,125
DA:49,11
DA:50,11
DA:51,11
DA:54,114
DA:55,114
DA:57,491
DA:58,377
DA:59,377
DA:60,244
DA:63,114
DA:64,114
DA:65,77
DA:67,114
DA:70,114
DA:71,194
DA:72,80
DA:73,29
DA:74,29
DA:75,15
DA:76,15
DA:77,15
DA:78,15
DA:80,14
DA:81,14
DA:82,14
DA:84,14
DA:85,14
DA:86,14
DA:89,51
DA:90,51
DA:91,30
DA:92,30
DA:93,30
DA:94,30
DA:96,21
DA:97,0
DA:98,0
DA:100,21
DA:101,21
DA:102,21
DA:106,114
DA:107,114
DA:109,88
DA:110,88
DA:111,329
DA:112,323
DA:113,241
DA:114,139
DA:116,6
DA:119,0
DA:120,0
DA:121,0
DA:122,0
DA:123,0
DA:125,0
DA:126,0
DA:128,0
DA:130,7
DA:131,7
DA:132,2
DA:133,2
DA:134,2
DA:135,2
DA:137,65
DA:138,65
DA:139,28
DA:140,28
DA:141,28
DA:143,28
DA:145,65
DA:147,2
DA:148,2
DA:149,2
DA:150,2
DA:151,2
DA:152,2
DA:153,2
DA:154,2
DA:156,2
DA:157,2
DA:158,2
DA:159,1
DA:160,1
DA:161,7
DA:162,5
DA:163,5
DA:166,1
DA:167,2
DA:169,2
DA:170,2
DA:171,2
DA:172,2
DA:173,2
DA:174,2
DA:175,1
DA:177,2
DA:179,2
DA:181,2
DA:182,2
DA:183,1
DA:184,1
DA:185,1
DA:186,1
DA:187,7
DA:188,5
DA:189,5
DA:192,1
DA:193,2
DA:195,2
DA:196,2
DA:197,2
DA:198,2
DA:199,2
DA:201,2
DA:202,2
DA:203,2
DA:204,2
DA:205,1
DA:206,1
DA:207,7
DA:208,5
DA:209,5
DA:212,1
DA:213,2
DA:215,1
DA:216,1
DA:217,1
DA:218,1
DA:219,1
DA:220,1
LF:165
LH:155
end_of_record
TN:
SF:/home/osnsab/Документы/Sem3/laba3/laba3/UnitC++Test/include/RedBlackTree.hpp
FNL:0,14,14
FNA:0,141,_ZN6RBNodeC2ERKNSt7__cxx1112basic_stringIcSt11char_traitsIcESaIcEEE
FNF:1
FNH:1
DA:14,141
LF:1
LH:1
end_of_record
TN:
SF:/home/osnsab/Документы/Sem3/laba3/laba3/UnitC++Test/include/Stack.cpp
FNL:0,108,129
FNA:0,2,_ZN5Stack17deserializeBinaryERSi
FNL:1,132,140
FNA:1,2,_ZNK5Stack13serializeTextERSo
FNL:2,14,19
FNA:2,26,_ZN5Stack4pushERKNSt7__cxx1112basic_stringIcSt11char_traitsIcESaIcEEE
FNL:3,143,162
FNA:3,2,_ZN5Stack15deserializeTextERSi
FNL:4,165,173
FNA:4,1,_ZNK5Stack5printEv
FNL:5,22,33
FNA:5,27,_ZN5Stack3popB5cxx11Ev
FNL:6,36,41
FNA:6,9,_ZNK5Stack3topB5cxx11Ev
FNL:7,43,45
FNA:7,85,_ZNK5Stack5emptyEv
FNL:8,47,49
FNA:8,0,_ZNK5Stack7isEmptyEv
FNL:9,5,5
FNA:9,15,_ZN5StackC2Ev
FNL:10,51,53
FNA:10,7,_ZNK5Stack4sizeEv
FNL:11,56,65
FNA:11,4,_ZNK5Stack8containsERKNSt7__cxx1112basic_stringIcSt11char_traitsIcESaIcEEE
FNL:12,68,80
FNA:12,2,_ZNK5Stack9serializeB5cxx11Ev
FNL:13,7,11
FNA:13,15,_ZN5StackD2Ev
FNL:14,83,92
FNA:14,2,_ZN5Stack11deserializeERKN8nlohmann16json_abi_v3_11_310basic_jsonISt3mapSt6vectorNSt7__cxx1112basic_stringIcSt11char_traitsIcESaIcEEEblmdSaNS1_14adl_serializerES4_IhSaIhEEvEE
FNL:15,95,105
FNA:15,2,_ZNK5Stack15serializeBinaryERSo
FNF:16
FNH:15
DA:5,15
DA:7,15
DA:8,37
DA:9,22
DA:11,15
DA:14,26
DA:15,26
DA:16,26
DA:17,26
DA:18,26
DA:19,26
DA:22,27
DA:23,27
DA:24,1
DA:27,26
DA:28,26
DA:29,26
DA:30,26
DA:31,26
DA:32,26
DA:36,9
DA:37,9
DA:38,1
DA:40,8
DA:43,85
DA:44,85
DA:47,0
DA:48,0
DA:51,7
DA:52,7
DA:56,4
DA:57,4
DA:58,7
DA:59,5
DA:60,2
DA:62,3
DA:64,2
DA:68,2
DA:69,2
DA:70,2
DA:71,2
DA:73,2
DA:74,5
DA:75,3
DA:76,3
DA:79,2
DA:80,0
DA:83,2
DA:84,2
DA:85,0
DA:88,2
DA:89,5
DA:90,3
DA:92,2
DA:95,2
DA:96,2
DA:98,2
DA:99,5
DA:100,3
DA:101,3
DA:102,3
DA:103,3
DA:105,2
DA:108,2
DA:109,2
DA:110,0
DA:114,2
DA:116,2
DA:117,5
DA:119,3
DA:121,3
DA:122,3
DA:123,3
DA:124,3
DA:126,5
DA:127,3
DA:129,2
DA:132,2
DA:133,2
DA:135,2
DA:136,5
DA:137,3
DA:138,3
DA:140,2
DA:143,2
DA:144,2
DA:145,0
DA:149,2
DA:150,2
DA:152,2
DA:153,5
DA:154,3
DA:155,3
DA:156,3
DA:157,3
DA:159,5
DA:160,3
DA:162,2
DA:165,1
DA:166,1
DA:167,1
DA:168,3
DA:169,2
DA:170,2
DA:172,1
DA:173,1
LF:106
LH:100
end_of_record
TN:
SF:/home/osnsab/Документы/Sem3/laba3/laba3/UnitC++Test/include/Stack.hpp
FNL:0,11,11
FNA:0,26,_ZN9StackNodeC2ERKNSt7__cxx1112basic_stringIcSt11char_traitsIcESaIcEEE
FNF:1
FNH:1
DA:11,26
LF:1
LH:1
end_of_record
TN:
SF:/home/osnsab/Документы/Sem3/laba3/laba3/UnitC++Test/src/ArrayTest.cpp
FNL:0,106,120
FNA:0,1,_ZN38ArrayTest_EmptyArraySerialization_Test8TestBodyEv
FNA:0,1,_ZN38ArrayTest_EmptyArraySerialization_TestC2Ev
FNA:0,1,_ZN38ArrayTest_EmptyArraySerialization_TestD0Ev
FNA:0,1,_ZN38ArrayTest_EmptyArraySerialization_TestD2Ev
FNL:1,11,23
FNA:1,1,_ZN21ArrayTest_Insert_Test8TestBodyEv
FNA:1,1,_ZN21ArrayTest_Insert_TestC2Ev
FNA:1,1,_ZN21ArrayTest_Insert_TestD0Ev
FNA:1,1,_ZN21ArrayTest_Insert_TestD2Ev
FNL:2,122,126
FNA:2,1,_ZN20ArrayTest_Print_Test8TestBodyEv
FNA:2,1,_ZN20ArrayTest_Print_TestC2Ev
FNA:2,1,_ZN20ArrayTest_Print_TestD0Ev
FNA:2,1,_ZN20ArrayTest_Print_TestD2Ev
FNL:3,25,33
FNA:3,1,_ZN27ArrayTest_InsertErrors_Test8TestBodyEv
FNA:3,1,_ZN27ArrayTest_InsertErrors_TestC2Ev
FNA:3,1,_ZN27ArrayTest_InsertErrors_TestD0Ev
FNA:3,1,_ZN27ArrayTest_InsertErrors_TestD2Ev
FNL:4,35,46
FNA:4,1,_ZN21ArrayTest_Remove_Test8TestBodyEv
FNA:4,1,_ZN21ArrayTest_Remove_TestC2Ev
FNA:4,1,_ZN21ArrayTest_Remove_TestD0Ev
FNA:4,1,_ZN21ArrayTest_Remove_TestD2Ev
FNL:5,48,56
FNA:5,1,_ZN21ArrayTest_SetGet_Test8TestBodyEv
FNA:5,1,_ZN21ArrayTest_SetGet_TestC2Ev
FNA:5,1,_ZN21ArrayTest_SetGet_TestD0Ev
FNA:5,1,_ZN21ArrayTest_SetGet_TestD2Ev
FNL:6,5,9
FNA:6,1,_ZN41ArrayTest_ConstructorAndInitialState_Test8TestBodyEv
FNA:6,1,_ZN41ArrayTest_ConstructorAndInitialState_TestC2Ev
FNA:6,1,_ZN41ArrayTest_ConstructorAndInitialState_TestD0Ev
FNA:6,1,_ZN41ArrayTest_ConstructorAndInitialState_TestD2Ev
FNL:7,58,70
FNA:7,1,_ZN28ArrayTest_Serialization_Test8TestBodyEv
FNA:7,1,_ZN28ArrayTest_Serialization_TestC2Ev
FNA:7,1,_ZN28ArrayTest_Serialization_TestD0Ev
FNA:7,1,_ZN28ArrayTest_Serialization_TestD2Ev
FNL:8,72,87
FNA:8,1,_ZN34ArrayTest_BinarySerialization_Test8TestBodyEv
FNA:8,1,_ZN34ArrayTest_BinarySerialization_TestC2Ev
FNA:8,1,_ZN34ArrayTest_BinarySerialization_TestD0Ev
FNA:8,1,_ZN34ArrayTest_BinarySerialization_TestD2Ev
FNL:9,89,104
FNA:9,1,_ZN32ArrayTest_TextSerialization_Test8TestBodyEv
FNA:9,1,_ZN32ArrayTest_TextSerialization_TestC2Ev
FNA:9,1,_ZN32ArrayTest_TextSerialization_TestD0Ev
FNA:9,1,_ZN32ArrayTest_TextSerialization_TestD2Ev
FNF:10
FNH:10
DA:5,4
DA:6,1
DA:7,1
DA:8,1
DA:9,1
DA:11,4
DA:12,1
DA:13,1
DA:14,1
DA:15,1
DA:16,1
DA:18,2
DA:19,1
DA:20,1
DA:21,1
DA:22,1
DA:23,1
DA:25,4
DA:26,1
DA:27,3
DA:29,2
DA:30,2
DA:31,1
DA:32,3
DA:33,1
DA:35,4
DA:36,1
DA:37,2
DA:38,2
DA:39,1
DA:41,1
DA:42,1
DA:43,1
DA:45,1
DA:46,1
DA:48,4
DA:49,1
DA:50,2
DA:51,1
DA:52,1
DA:54,1
DA:55,3
DA:56,1
DA:58,4
DA:59,1
DA:60,2
DA:61,1
DA:63,1
DA:64,1
DA:65,1
DA:67,1
DA:68,1
DA:69,1
DA:70,1
DA:72,4
DA:73,1
DA:74,2
DA:75,1
DA:77,1
DA:78,1
DA:80,1
DA:81,1
DA:82,1
DA:84,1
DA:85,1
DA:86,1
DA:87,1
DA:89,4
DA:90,1
DA:91,2
DA:92,1
DA:94,1
DA:95,1
DA:97,1
DA:98,1
DA:99,1
DA:101,1
DA:102,1
DA:103,1
DA:104,1
DA:106,4
DA:107,1
DA:109,1
DA:110,1
DA:111,1
DA:112,1
DA:114,2
DA:115,1
DA:116,2
DA:117,2
DA:118,1
DA:119,1
DA:120,1
DA:122,4
DA:123,1
DA:124,1
DA:125,1
DA:126,1
LF:98
LH:98
end_of_record
TN:
SF:/home/osnsab/Документы/Sem3/laba3/laba3/UnitC++Test/src/ChainHashTableTest.cpp
FNL:0,109,130
FNA:0,1,_ZN47ChainHashTableTest_EmptyTableSerialization_Test8TestBodyEv
FNA:0,1,_ZN47ChainHashTableTest_EmptyTableSerialization_TestC2Ev
FNA:0,1,_ZN47ChainHashTableTest_EmptyTableSerialization_TestD0Ev
FNA:0,1,_ZN47ChainHashTableTest_EmptyTableSerialization_TestD2Ev
FNL:1,11,22
FNA:1,1,_ZN37ChainHashTableTest_InsertAndFind_Test8TestBodyEv
FNA:1,1,_ZN37ChainHashTableTest_InsertAndFind_TestC2Ev
FNA:1,1,_ZN37ChainHashTableTest_InsertAndFind_TestD0Ev
FNA:1,1,_ZN37ChainHashTableTest_InsertAndFind_TestD2Ev
FNL:2,132,144
FNA:2,1,_ZN41ChainHashTableTest_CollisionHandling_Test8TestBodyEv
FNA:2,1,_ZN41ChainHashTableTest_CollisionHandling_TestC2Ev
FNA:2,1,_ZN41ChainHashTableTest_CollisionHandling_TestD0Ev
FNA:2,1,_ZN41ChainHashTableTest_CollisionHandling_TestD2Ev
FNL:3,24,31
FNA:3,1,_ZN35ChainHashTableTest_UpdateValue_Test8TestBodyEv
FNA:3,1,_ZN35ChainHashTableTest_UpdateValue_TestC2Ev
FNA:3,1,_ZN35ChainHashTableTest_UpdateValue_TestD0Ev
FNA:3,1,_ZN35ChainHashTableTest_UpdateValue_TestD2Ev
FNL:4,33,45
FNA:4,1,_ZN30ChainHashTableTest_Remove_Test8TestBodyEv
FNA:4,1,_ZN30ChainHashTableTest_Remove_TestC2Ev
FNA:4,1,_ZN30ChainHashTableTest_Remove_TestD0Ev
FNA:4,1,_ZN30ChainHashTableTest_Remove_TestD2Ev
FNL:5,47,53
FNA:5,1,_ZN30ChainHashTableTest_HasKey_Test8TestBodyEv
FNA:5,1,_ZN30ChainHashTableTest_HasKey_TestC2Ev
FNA:5,1,_ZN30ChainHashTableTest_HasKey_TestD0Ev
FNA:5,1,_ZN30ChainHashTableTest_HasKey_TestD2Ev
FNL:6,5,9
FNA:6,1,_ZN50ChainHashTableTest_ConstructorAndInitialState_Test8TestBodyEv
FNA:6,1,_ZN50ChainHashTableTest_ConstructorAndInitialState_TestC2Ev
FNA:6,1,_ZN50ChainHashTableTest_ConstructorAndInitialState_TestD0Ev
FNA:6,1,_ZN50ChainHashTableTest_ConstructorAndInitialState_TestD2Ev
FNL:7,55,69
FNA:7,1,_ZN41ChainHashTableTest_JsonSerialization_Test8TestBodyEv
FNA:7,1,_ZN41ChainHashTableTest_JsonSerialization_TestC2Ev
FNA:7,1,_ZN41ChainHashTableTest_JsonSerialization_TestD0Ev
FNA:7,1,_ZN41ChainHashTableTest_JsonSerialization_TestD2Ev
FNL:8,71,88
FNA:8,1,_ZN43ChainHashTableTest_BinarySerialization_Test8TestBodyEv
FNA:8,1,_ZN43ChainHashTableTest_BinarySerialization_TestC2Ev
FNA:8,1,_ZN43ChainHashTableTest_BinarySerialization_TestD0Ev
FNA:8,1,_ZN43ChainHashTableTest_BinarySerialization_TestD2Ev
FNL:9,90,107
FNA:9,1,_ZN41ChainHashTableTest_TextSerialization_Test8TestBodyEv
FNA:9,1,_ZN41ChainHashTableTest_TextSerialization_TestC2Ev
FNA:9,1,_ZN41ChainHashTableTest_TextSerialization_TestD0Ev
FNA:9,1,_ZN41ChainHashTableTest_TextSerialization_TestD2Ev
FNF:10
FNH:10
DA:5,4
DA:6,1
DA:7,1
DA:8,1
DA:9,1
DA:11,4
DA:12,1
DA:13,4
DA:14,3
DA:16,1
DA:17,1
DA:19,2
DA:20,2
DA:21,2
DA:22,1
DA:24,4
DA:25,1
DA:26,4
DA:27,3
DA:29,1
DA:30,2
DA:31,1
DA:33,4
DA:34,1
DA:35,4
DA:36,4
DA:37,4
DA:39,1
DA:40,1
DA:41,2
DA:43,1
DA:44,1
DA:45,1
DA:47,4
DA:48,1
DA:49,4
DA:51,2
DA:52,2
DA:53,1
DA:55,4
DA:56,1
DA:57,4
DA:58,4
DA:59,3
DA:61,1
DA:62,1
DA:63,1
DA:65,1
DA:66,2
DA:67,2
DA:68,2
DA:69,1
DA:71,4
DA:72,1
DA:73,4
DA:74,4
DA:75,3
DA:77,1
DA:78,1
DA:80,1
DA:81,1
DA:82,1
DA:84,1
DA:85,2
DA:86,2
DA:87,2
DA:88,1
DA:90,4
DA:91,1
DA:92,4
DA:93,4
DA:94,3
DA:96,1
DA:97,1
DA:99,1
DA:100,1
DA:101,1
DA:103,1
DA:104,2
DA:105,2
DA:106,2
DA:107,1
DA:109,4
DA:110,1
DA:112,1
DA:113,1
DA:114,1
DA:115,1
DA:117,2
DA:118,1
DA:119,2
DA:120,2
DA:121,1
DA:122,1
DA:124,2
DA:125,1
DA:126,2
DA:127,2
DA:128,1
DA:129,1
DA:130,1
DA:132,4
DA:133,1
DA:135,21
DA:136,20
DA:139,1
DA:141,21
DA:142,20
DA:144,1
LF:109
LH:109
end_of_record
TN:
SF:/home/osnsab/Документы/Sem3/laba3/laba3/UnitC++Test/src/DoublyListTest.cpp
FNL:0,11,21
FNA:0,1,_ZN33DoublyListTest_PushFrontBack_Test8TestBodyEv
FNA:0,1,_ZN33DoublyListTest_PushFrontBack_TestC2Ev
FNA:0,1,_ZN33DoublyListTest_PushFrontBack_TestD0Ev
FNA:0,1,_ZN33DoublyListTest_PushFrontBack_TestD2Ev
FNL:1,110,125
FNA:1,1,_ZN39DoublyListTest_BinarySerialization_Test8TestBodyEv
FNA:1,1,_ZN39DoublyListTest_BinarySerialization_TestC2Ev
FNA:1,1,_ZN39DoublyListTest_BinarySerialization_TestD0Ev
FNA:1,1,_ZN39DoublyListTest_BinarySerialization_TestD2Ev
FNL:2,127,142
FNA:2,1,_ZN37DoublyListTest_TextSerialization_Test8TestBodyEv
FNA:2,1,_ZN37DoublyListTest_TextSerialization_TestC2Ev
FNA:2,1,_ZN37DoublyListTest_TextSerialization_TestD0Ev
FNA:2,1,_ZN37DoublyListTest_TextSerialization_TestD2Ev
FNL:3,144,158
FNA:3,1,_ZN42DoublyListTest_EmptyListSerialization_Test8TestBodyEv
FNA:3,1,_ZN42DoublyListTest_EmptyListSerialization_TestC2Ev
FNA:3,1,_ZN42DoublyListTest_EmptyListSerialization_TestD0Ev
FNA:3,1,_ZN42DoublyListTest_EmptyListSerialization_TestD2Ev
FNL:4,160,165
FNA:4,1,_ZN25DoublyListTest_Print_Test8TestBodyEv
FNA:4,1,_ZN25DoublyListTest_Print_TestC2Ev
FNA:4,1,_ZN25DoublyListTest_Print_TestD0Ev
FNA:4,1,_ZN25DoublyListTest_Print_TestD2Ev
FNL:5,23,43
FNA:5,1,_ZN32DoublyListTest_PopFrontBack_Test8TestBodyEv
FNA:5,1,_ZN32DoublyListTest_PopFrontBack_TestC2Ev
FNA:5,1,_ZN32DoublyListTest_PopFrontBack_TestD0Ev
FNA:5,1,_ZN32DoublyListTest_PopFrontBack_TestD2Ev
FNL:6,45,63
FNA:6,1,_ZN26DoublyListTest_Insert_Test8TestBodyEv
FNA:6,1,_ZN26DoublyListTest_Insert_TestC2Ev
FNA:6,1,_ZN26DoublyListTest_Insert_TestD0Ev
FNA:6,1,_ZN26DoublyListTest_Insert_TestD2Ev
FNL:7,5,9
FNA:7,1,_ZN46DoublyListTest_ConstructorAndInitialState_Test8TestBodyEv
FNA:7,1,_ZN46DoublyListTest_ConstructorAndInitialState_TestC2Ev
FNA:7,1,_ZN46DoublyListTest_ConstructorAndInitialState_TestD0Ev
FNA:7,1,_ZN46DoublyListTest_ConstructorAndInitialState_TestD2Ev
FNL:8,65,84
FNA:8,1,_ZN26DoublyListTest_Remove_Test8TestBodyEv
FNA:8,1,_ZN26DoublyListTest_Remove_TestC2Ev
FNA:8,1,_ZN26DoublyListTest_Remove_TestD0Ev
FNA:8,1,_ZN26DoublyListTest_Remove_TestD2Ev
FNL:9,86,92
FNA:9,1,_ZN23DoublyListTest_Get_Test8TestBodyEv
FNA:9,1,_ZN23DoublyListTest_Get_TestC2Ev
FNA:9,1,_ZN23DoublyListTest_Get_TestD0Ev
FNA:9,1,_ZN23DoublyListTest_Get_TestD2Ev
FNL:10,94,108
FNA:10,1,_ZN33DoublyListTest_Serialization_Test8TestBodyEv
FNA:10,1,_ZN33DoublyListTest_Serialization_TestC2Ev
FNA:10,1,_ZN33DoublyListTest_Serialization_TestD0Ev
FNA:10,1,_ZN33DoublyListTest_Serialization_TestD2Ev
FNF:11
FNH:11
DA:5,4
DA:6,1
DA:7,1
DA:8,1
DA:9,1
DA:11,4
DA:12,1
DA:13,2
DA:14,2
DA:15,1
DA:17,1
DA:18,1
DA:19,1
DA:20,1
DA:21,1
DA:23,4
DA:24,1
DA:25,2
DA:26,2
DA:27,1
DA:29,1
DA:30,1
DA:31,1
DA:33,1
DA:34,1
DA:35,1
DA:37,1
DA:38,1
DA:40,1
DA:41,0
DA:42,0
DA:43,1
DA:45,4
DA:46,1
DA:47,2
DA:48,2
DA:49,1
DA:51,1
DA:52,1
DA:53,1
DA:54,1
DA:56,1
DA:57,1
DA:59,1
DA:60,1
DA:62,3
DA:63,1
DA:65,4
DA:66,1
DA:67,2
DA:68,2
DA:69,1
DA:71,1
DA:72,1
DA:73,1
DA:74,1
DA:76,1
DA:77,1
DA:79,1
DA:80,1
DA:81,1
DA:83,1
DA:84,1
DA:86,4
DA:87,1
DA:88,1
DA:89,1
DA:91,1
DA:92,1
DA:94,4
DA:95,1
DA:96,2
DA:97,2
DA:98,1
DA:100,1
DA:101,1
DA:102,1
DA:104,1
DA:105,1
DA:106,1
DA:107,1
DA:108,1
DA:110,4
DA:111,1
DA:112,2
DA:113,1
DA:115,1
DA:116,1
DA:118,1
DA:119,1
DA:120,1
DA:122,1
DA:123,1
DA:124,1
DA:125,1
DA:127,4
DA:128,1
DA:129,2
DA:130,1
DA:132,1
DA:133,1
DA:135,1
DA:136,1
DA:137,1
DA:139,1
DA:140,1
DA:141,1
DA:142,1
DA:144,4
DA:145,1
DA:147,1
DA:148,1
DA:149,1
DA:150,1
DA:152,2
DA:153,1
DA:154,2
DA:155,2
DA:156,1
DA:157,1
DA:158,1
DA:160,4
DA:161,1
DA:162,2
DA:163,1
DA:164,1
DA:165,1
LF:127
LH:125
end_of_record
TN:
SF:/home/osnsab/Документы/Sem3/laba3/laba3/UnitC++Test/src/ForwardListTest.cpp
FNL:0,100,112
FNA:0,1,_ZN43ForwardListTest_EmptyListSerialization_Test8TestBodyEv
FNA:0,1,_ZN43ForwardListTest_EmptyListSerialization_TestC2Ev
FNA:0,1,_ZN43ForwardListTest_EmptyListSerialization_TestD0Ev
FNA:0,1,_ZN43ForwardListTest_EmptyListSerialization_TestD2Ev
FNL:1,17,28
FNA:1,1,_ZN29ForwardListTest_PopFront_Test8TestBodyEv
FNA:1,1,_ZN29ForwardListTest_PopFront_TestC2Ev
FNA:1,1,_ZN29ForwardListTest_PopFront_TestD0Ev
FNA:1,1,_ZN29ForwardListTest_PopFront_TestD2Ev
FNL:2,30,40
FNA:2,1,_ZN27ForwardListTest_Insert_Test8TestBodyEv
FNA:2,1,_ZN27ForwardListTest_Insert_TestC2Ev
FNA:2,1,_ZN27ForwardListTest_Insert_TestD0Ev
FNA:2,1,_ZN27ForwardListTest_Insert_TestD2Ev
FNL:3,4,7
FNA:3,1,_ZN47ForwardListTest_ConstructorAndInitialState_Test8TestBodyEv
FNA:3,1,_ZN47ForwardListTest_ConstructorAndInitialState_TestC2Ev
FNA:3,1,_ZN47ForwardListTest_ConstructorAndInitialState_TestD0Ev
FNA:3,1,_ZN47ForwardListTest_ConstructorAndInitialState_TestD2Ev
FNL:4,42,52
FNA:4,1,_ZN27ForwardListTest_Remove_Test8TestBodyEv
FNA:4,1,_ZN27ForwardListTest_Remove_TestC2Ev
FNA:4,1,_ZN27ForwardListTest_Remove_TestD0Ev
FNA:4,1,_ZN27ForwardListTest_Remove_TestD2Ev
FNL:5,54,68
FNA:5,1,_ZN34ForwardListTest_Serialization_Test8TestBodyEv
FNA:5,1,_ZN34ForwardListTest_Serialization_TestC2Ev
FNA:5,1,_ZN34ForwardListTest_Serialization_TestD0Ev
FNA:5,1,_ZN34ForwardListTest_Serialization_TestD2Ev
FNL:6,70,82
FNA:6,1,_ZN40ForwardListTest_BinarySerialization_Test8TestBodyEv
FNA:6,1,_ZN40ForwardListTest_BinarySerialization_TestC2Ev
FNA:6,1,_ZN40ForwardListTest_BinarySerialization_TestD0Ev
FNA:6,1,_ZN40ForwardListTest_BinarySerialization_TestD2Ev
FNL:7,84,98
FNA:7,1,_ZN38ForwardListTest_TextSerialization_Test8TestBodyEv
FNA:7,1,_ZN38ForwardListTest_TextSerialization_TestC2Ev
FNA:7,1,_ZN38ForwardListTest_TextSerialization_TestD0Ev
FNA:7,1,_ZN38ForwardListTest_TextSerialization_TestD2Ev
FNL:8,9,15
FNA:8,1,_ZN30ForwardListTest_PushFront_Test8TestBodyEv
FNA:8,1,_ZN30ForwardListTest_PushFront_TestC2Ev
FNA:8,1,_ZN30ForwardListTest_PushFront_TestD0Ev
FNA:8,1,_ZN30ForwardListTest_PushFront_TestD2Ev
FNF:9
FNH:9
DA:4,4
DA:5,1
DA:6,1
DA:7,1
DA:9,4
DA:10,1
DA:11,1
DA:12,1
DA:13,1
DA:14,1
DA:15,1
DA:17,4
DA:18,1
DA:19,1
DA:20,1
DA:21,1
DA:23,1
DA:24,1
DA:26,1
DA:27,0
DA:28,1
DA:30,4
DA:31,1
DA:32,2
DA:33,2
DA:34,1
DA:36,1
DA:37,1
DA:38,1
DA:39,1
DA:40,1
DA:42,4
DA:43,1
DA:44,2
DA:45,2
DA:46,1
DA:48,1
DA:49,1
DA:50,1
DA:51,1
DA:52,1
DA:54,4
DA:55,1
DA:56,2
DA:57,2
DA:58,1
DA:60,1
DA:61,1
DA:62,1
DA:64,1
DA:65,1
DA:66,1
DA:67,1
DA:68,1
DA:70,4
DA:71,1
DA:72,2
DA:73,2
DA:75,1
DA:76,1
DA:77,1
DA:79,1
DA:80,1
DA:81,1
DA:82,1
DA:84,4
DA:85,1
DA:86,2
DA:87,2
DA:88,3
DA:90,1
DA:91,1
DA:92,1
DA:94,1
DA:95,1
DA:96,1
DA:97,1
DA:98,1
DA:100,4
DA:101,1
DA:103,1
DA:104,1
DA:105,1
DA:106,1
DA:108,1
DA:109,2
DA:110,1
DA:111,1
DA:112,1
LF:89
LH:88
end_of_record
TN:
SF:/home/osnsab/Документы/Sem3/laba3/laba3/UnitC++Test/src/QueueTest.cpp
FNL:0,102,107
FNA:0,1,_ZN20QueueTest_Print_Test8TestBodyEv
FNA:0,1,_ZN20QueueTest_Print_TestC2Ev
FNA:0,1,_ZN20QueueTest_Print_TestD0Ev
FNA:0,1,_ZN20QueueTest_Print_TestD2Ev
FNL:1,109,124
FNA:1,1,_ZN32QueueTest_ComplexOperations_Test8TestBodyEv
FNA:1,1,_ZN32QueueTest_ComplexOperations_TestC2Ev
FNA:1,1,_ZN32QueueTest_ComplexOperations_TestD0Ev
FNA:1,1,_ZN32QueueTest_ComplexOperations_TestD2Ev
FNL:2,12,22
FNA:2,1,_ZN22QueueTest_Enqueue_Test8TestBodyEv
FNA:2,1,_ZN22QueueTest_Enqueue_TestC2Ev
FNA:2,1,_ZN22QueueTest_Enqueue_TestD0Ev
FNA:2,1,_ZN22QueueTest_Enqueue_TestD2Ev
FNL:3,24,38
FNA:3,1,_ZN22QueueTest_Dequeue_Test8TestBodyEv
FNA:3,1,_ZN22QueueTest_Dequeue_TestC2Ev
FNA:3,1,_ZN22QueueTest_Dequeue_TestD0Ev
FNA:3,1,_ZN22QueueTest_Dequeue_TestD2Ev
FNL:4,40,52
FNA:4,1,_ZN28QueueTest_Serialization_Test8TestBodyEv
FNA:4,1,_ZN28QueueTest_Serialization_TestC2Ev
FNA:4,1,_ZN28QueueTest_Serialization_TestD0Ev
FNA:4,1,_ZN28QueueTest_Serialization_TestD2Ev
FNL:5,5,10
FNA:5,1,_ZN41QueueTest_ConstructorAndInitialState_Test8TestBodyEv
FNA:5,1,_ZN41QueueTest_ConstructorAndInitialState_TestC2Ev
FNA:5,1,_ZN41QueueTest_ConstructorAndInitialState_TestD0Ev
FNA:5,1,_ZN41QueueTest_ConstructorAndInitialState_TestD2Ev
FNL:6,54,68
FNA:6,1,_ZN34QueueTest_BinarySerialization_Test8TestBodyEv
FNA:6,1,_ZN34QueueTest_BinarySerialization_TestC2Ev
FNA:6,1,_ZN34QueueTest_BinarySerialization_TestD0Ev
FNA:6,1,_ZN34QueueTest_BinarySerialization_TestD2Ev
FNL:7,70,84
FNA:7,1,_ZN32QueueTest_TextSerialization_Test8TestBodyEv
FNA:7,1,_ZN32QueueTest_TextSerialization_TestC2Ev
FNA:7,1,_ZN32QueueTest_TextSerialization_TestD0Ev
FNA:7,1,_ZN32QueueTest_TextSerialization_TestD2Ev
FNL:8,86,100
FNA:8,1,_ZN38QueueTest_EmptyQueueSerialization_Test8TestBodyEv
FNA:8,1,_ZN38QueueTest_EmptyQueueSerialization_TestC2Ev
FNA:8,1,_ZN38QueueTest_EmptyQueueSerialization_TestD0Ev
FNA:8,1,_ZN38QueueTest_EmptyQueueSerialization_TestD2Ev
FNF:9
FNH:9
DA:5,4
DA:6,1
DA:7,1
DA:8,1
DA:9,1
DA:10,1
DA:12,4
DA:13,1
DA:14,1
DA:15,1
DA:16,1
DA:17,1
DA:19,1
DA:20,1
DA:21,1
DA:22,1
DA:24,4
DA:25,1
DA:26,2
DA:27,1
DA:29,1
DA:30,1
DA:31,1
DA:33,1
DA:34,1
DA:36,1
DA:37,0
DA:38,1
DA:40,4
DA:41,1
DA:42,2
DA:43,2
DA:44,1
DA:46,1
DA:47,1
DA:48,1
DA:50,1
DA:51,1
DA:52,1
DA:54,4
DA:55,1
DA:56,2
DA:57,1
DA:59,1
DA:60,1
DA:62,1
DA:63,1
DA:64,1
DA:66,1
DA:67,1
DA:68,1
DA:70,4
DA:71,1
DA:72,2
DA:73,1
DA:75,1
DA:76,1
DA:78,1
DA:79,1
DA:80,1
DA:82,1
DA:83,1
DA:84,1
DA:86,4
DA:87,1
DA:89,1
DA:90,1
DA:91,1
DA:92,1
DA:94,2
DA:95,1
DA:96,2
DA:97,2
DA:98,1
DA:99,1
DA:100,1
DA:102,4
DA:103,1
DA:104,2
DA:105,1
DA:106,1
DA:107,1
DA:109,4
DA:110,1
DA:112,6
DA:113,5
DA:116,1
DA:118,4
DA:119,3
DA:122,1
DA:123,1
DA:124,1
LF:92
LH:91
end_of_record
TN:
SF:/home/osnsab/Документы/Sem3/laba3/laba3/UnitC++Test/src/RedBlackTreeTest.cpp
FNL:0,10,25
FNA:0,1,_ZN28RedBlackTreeTest_Insert_Test8TestBodyEv
FNA:0,1,_ZN28RedBlackTreeTest_Insert_TestC2Ev
FNA:0,1,_ZN28RedBlackTreeTest_Insert_TestD0Ev
FNA:0,1,_ZN28RedBlackTreeTest_Insert_TestD2Ev
FNL:1,112,133
FNA:1,1,_ZN39RedBlackTreeTest_TextSerialization_Test8TestBodyEv
FNA:1,1,_ZN39RedBlackTreeTest_TextSerialization_TestC2Ev
FNA:1,1,_ZN39RedBlackTreeTest_TextSerialization_TestD0Ev
FNA:1,1,_ZN39RedBlackTreeTest_TextSerialization_TestD2Ev
FNL:2,135,156
FNA:2,1,_ZN44RedBlackTreeTest_EmptyTreeSerialization_Test8TestBodyEv
FNA:2,1,_ZN44RedBlackTreeTest_EmptyTreeSerialization_TestC2Ev
FNA:2,1,_ZN44RedBlackTreeTest_EmptyTreeSerialization_TestD0Ev
FNA:2,1,_ZN44RedBlackTreeTest_EmptyTreeSerialization_TestD2Ev
FNL:3,158,174
FNA:3,1,_ZN31RedBlackTreeTest_EdgeCases_Test8TestBodyEv
FNA:3,1,_ZN31RedBlackTreeTest_EdgeCases_TestC2Ev
FNA:3,1,_ZN31RedBlackTreeTest_EdgeCases_TestD0Ev
FNA:3,1,_ZN31RedBlackTreeTest_EdgeCases_TestD2Ev
FNL:4,176,194
FNA:4,1,_ZN40RedBlackTreeTest_ExtensiveRotations_Test8TestBodyEv
FNA:4,1,_ZN40RedBlackTreeTest_ExtensiveRotations_TestC2Ev
FNA:4,1,_ZN40RedBlackTreeTest_ExtensiveRotations_TestD0Ev
FNA:4,1,_ZN40RedBlackTreeTest_ExtensiveRotations_TestD2Ev
FNL:5,27,56
FNA:5,1,_ZN38RedBlackTreeTest_RotationCoverage_Test8TestBodyEv
FNA:5,1,_ZN38RedBlackTreeTest_RotationCoverage_TestC2Ev
FNA:5,1,_ZN38RedBlackTreeTest_RotationCoverage_TestD0Ev
FNA:5,1,_ZN38RedBlackTreeTest_RotationCoverage_TestD2Ev
FNL:6,5,8
FNA:6,1,_ZN48RedBlackTreeTest_ConstructorAndInitialState_Test8TestBodyEv
FNA:6,1,_ZN48RedBlackTreeTest_ConstructorAndInitialState_TestC2Ev
FNA:6,1,_ZN48RedBlackTreeTest_ConstructorAndInitialState_TestD0Ev
FNA:6,1,_ZN48RedBlackTreeTest_ConstructorAndInitialState_TestD2Ev
FNL:7,58,67
FNA:7,1,_ZN39RedBlackTreeTest_ComplexInsertions_Test8TestBodyEv
FNA:7,1,_ZN39RedBlackTreeTest_ComplexInsertions_TestC2Ev
FNA:7,1,_ZN39RedBlackTreeTest_ComplexInsertions_TestD0Ev
FNA:7,1,_ZN39RedBlackTreeTest_ComplexInsertions_TestD2Ev
FNL:8,69,87
FNA:8,1,_ZN42RedBlackTreeTest_SerializeDeserialize_Test8TestBodyEv
FNA:8,1,_ZN42RedBlackTreeTest_SerializeDeserialize_TestC2Ev
FNA:8,1,_ZN42RedBlackTreeTest_SerializeDeserialize_TestD0Ev
FNA:8,1,_ZN42RedBlackTreeTest_SerializeDeserialize_TestD2Ev
FNL:9,89,110
FNA:9,1,_ZN41RedBlackTreeTest_BinarySerialization_Test8TestBodyEv
FNA:9,1,_ZN41RedBlackTreeTest_BinarySerialization_TestC2Ev
FNA:9,1,_ZN41RedBlackTreeTest_BinarySerialization_TestD0Ev
FNA:9,1,_ZN41RedBlackTreeTest_BinarySerialization_TestD2Ev
FNF:10
FNH:10
DA:5,4
DA:6,1
DA:7,1
DA:8,1
DA:10,4
DA:11,1
DA:12,2
DA:13,2
DA:14,2
DA:15,2
DA:16,1
DA:18,1
DA:19,2
DA:20,2
DA:21,2
DA:22,2
DA:23,2
DA:24,2
DA:25,1
DA:27,4
DA:28,1
DA:30,2
DA:31,2
DA:32,2
DA:33,2
DA:34,2
DA:35,2
DA:36,2
DA:37,2
DA:38,2
DA:39,2
DA:40,2
DA:41,2
DA:42,2
DA:43,2
DA:44,2
DA:45,2
DA:46,2
DA:47,2
DA:48,2
DA:49,2
DA:50,2
DA:51,2
DA:52,2
DA:53,2
DA:54,2
DA:55,1
DA:56,1
DA:58,4
DA:59,1
DA:61,31
DA:62,30
DA:64,31
DA:65,30
DA:67,1
DA:69,4
DA:70,1
DA:71,2
DA:72,2
DA:73,2
DA:74,2
DA:75,1
DA:77,1
DA:78,1
DA:79,1
DA:81,3
DA:82,2
DA:83,2
DA:84,2
DA:85,2
DA:86,2
DA:87,1
DA:89,4
DA:90,1
DA:91,2
DA:92,2
DA:93,2
DA:94,2
DA:95,1
DA:97,1
DA:98,1
DA:100,1
DA:101,1
DA:102,1
DA:104,3
DA:105,2
DA:106,2
DA:107,2
DA:108,2
DA:109,2
DA:110,1
DA:112,4
DA:113,1
DA:114,2
DA:115,2
DA:116,2
DA:117,2
DA:118,1
DA:120,1
DA:121,1
DA:123,1
DA:124,1
DA:125,1
DA:127,3
DA:128,2
DA:129,2
DA:130,2
DA:131,2
DA:132,2
DA:133,1
DA:135,4
DA:136,1
DA:138,1
DA:139,1
DA:140,1
DA:141,1
DA:143,2
DA:144,1
DA:145,2
DA:146,2
DA:147,1
DA:148,1
DA:150,2
DA:151,1
DA:152,2
DA:153,2
DA:154,1
DA:155,1
DA:156,1
DA:158,4
DA:159,1
DA:162,2
DA:163,2
DA:166,2
DA:167,2
DA:170,2
DA:171,2
DA:173,1
DA:174,1
DA:176,4
DA:177,1
DA:185,2
DA:187,33
DA:188,31
DA:191,33
DA:192,31
DA:194,1
LF:147
LH:147
end_of_record
TN:
SF:/home/osnsab/Документы/Sem3/laba3/laba3/UnitC++Test/src/StackTest.cpp
FNL:0,122,127
FNA:0,1,_ZN20StackTest_Print_Test8TestBodyEv
FNA:0,1,_ZN20StackTest_Print_TestC2Ev
FNA:0,1,_ZN20StackTest_Print_TestD0Ev
FNA:0,1,_ZN20StackTest_Print_TestD2Ev
FNL:1,13,24
FNA:1,1,_ZN19StackTest_Push_Test8TestBodyEv
FNA:1,1,_ZN19StackTest_Push_TestC2Ev
FNA:1,1,_ZN19StackTest_Push_TestD0Ev
FNA:1,1,_ZN19StackTest_Push_TestD2Ev
FNL:2,26,37
FNA:2,1,_ZN18StackTest_Pop_Test8TestBodyEv
FNA:2,1,_ZN18StackTest_Pop_TestC2Ev
FNA:2,1,_ZN18StackTest_Pop_TestD0Ev
FNA:2,1,_ZN18StackTest_Pop_TestD2Ev
FNL:3,39,47
FNA:3,1,_ZN23StackTest_Contains_Test8TestBodyEv
FNA:3,1,_ZN23StackTest_Contains_TestC2Ev
FNA:3,1,_ZN23StackTest_Contains_TestD0Ev
FNA:3,1,_ZN23StackTest_Contains_TestD2Ev
FNL:4,49,61
FNA:4,1,_ZN35StackTest_SerializeDeserialize_Test8TestBodyEv
FNA:4,1,_ZN35StackTest_SerializeDeserialize_TestC2Ev
FNA:4,1,_ZN35StackTest_SerializeDeserialize_TestD0Ev
FNA:4,1,_ZN35StackTest_SerializeDeserialize_TestD2Ev
FNL:5,6,11
FNA:5,1,_ZN41StackTest_ConstructorAndInitialState_Test8TestBodyEv
FNA:5,1,_ZN41StackTest_ConstructorAndInitialState_TestC2Ev
FNA:5,1,_ZN41StackTest_ConstructorAndInitialState_TestD0Ev
FNA:5,1,_ZN41StackTest_ConstructorAndInitialState_TestD2Ev
FNL:6,63,80
FNA:6,1,_ZN34StackTest_BinarySerialization_Test8TestBodyEv
FNA:6,1,_ZN34StackTest_BinarySerialization_TestC2Ev
FNA:6,1,_ZN34StackTest_BinarySerialization_TestD0Ev
FNA:6,1,_ZN34StackTest_BinarySerialization_TestD2Ev
FNL:7,82,97
FNA:7,1,_ZN32StackTest_TextSerialization_Test8TestBodyEv
FNA:7,1,_ZN32StackTest_TextSerialization_TestC2Ev
FNA:7,1,_ZN32StackTest_TextSerialization_TestD0Ev
FNA:7,1,_ZN32StackTest_TextSerialization_TestD2Ev
FNL:8,99,120
FNA:8,1,_ZN38StackTest_EmptyStackSerialization_Test8TestBodyEv
FNA:8,1,_ZN38StackTest_EmptyStackSerialization_TestC2Ev
FNA:8,1,_ZN38StackTest_EmptyStackSerialization_TestD0Ev
FNA:8,1,_ZN38StackTest_EmptyStackSerialization_TestD2Ev
FNF:9
FNH:9
DA:6,4
DA:7,1
DA:8,1
DA:9,1
DA:10,1
DA:11,1
DA:13,4
DA:14,1
DA:15,1
DA:16,1
DA:17,1
DA:18,1
DA:19,1
DA:20,1
DA:21,1
DA:22,1
DA:23,1
DA:24,1
DA:26,4
DA:27,1
DA:28,2
DA:29,1
DA:30,1
DA:31,1
DA:32,1
DA:33,1
DA:34,1
DA:35,1
DA:36,0
DA:37,1
DA:39,4
DA:40,1
DA:41,3
DA:42,2
DA:43,2
DA:44,2
DA:45,2
DA:46,2
DA:47,1
DA:49,4
DA:50,1
DA:51,2
DA:52,2
DA:53,1
DA:55,1
DA:56,1
DA:57,1
DA:59,1
DA:60,1
DA:61,1
DA:63,4
DA:64,1
DA:65,2
DA:66,2
DA:67,1
DA:69,1
DA:70,1
DA:72,1
DA:73,1
DA:74,1
DA:76,1
DA:77,1
DA:78,1
DA:79,1
DA:80,1
DA:82,4
DA:83,1
DA:84,2
DA:85,2
DA:86,1
DA:88,1
DA:89,1
DA:91,1
DA:92,1
DA:93,1
DA:95,1
DA:96,1
DA:97,1
DA:99,4
DA:100,1
DA:102,1
DA:103,1
DA:104,1
DA:105,1
DA:107,2
DA:108,1
DA:109,2
DA:110,2
DA:111,1
DA:112,1
DA:114,2
DA:115,1
DA:116,2
DA:117,2
DA:118,1
DA:119,1
DA:120,1
DA:122,4
DA:123,1
DA:124,2
DA:125,1
DA:126,1
DA:127,1
LF:103
LH:102
end_of_record
