TN:
SF:/home/osnsab/Документы/Sem3/laba3/laba3/UnitC++Test/include/Array.cpp
FNL:0,12,15
FNA:0,2,_ZN5Array6removeEi
FNL:1,17,20
FNA:1,12,_ZNK5Array3getB5cxx11Ei
FNL:2,22,25
FNA:2,2,_ZN5Array3setEiRKNSt7__cxx1112basic_stringIcSt11char_traitsIcESaIcEEE
FNL:3,27,27
FNA:3,7,_ZNK5Array4sizeEv
FNL:4,28,28
FNA:4,4,_ZNK5Array5emptyEv
FNL:5,29,29
FNA:5,0,_ZNK5Array7isEmptyEv
FNL:6,31,36
FNA:6,2,_ZNK5Array9serializeB5cxx11Ev
FNL:7,38,41
FNA:7,2,_ZN5Array11deserializeERKN8nlohmann16json_abi_v3_11_310basic_jsonISt3mapSt6vectorNSt7__cxx1112basic_stringIcSt11char_traitsIcESaIcEEEblmdSaNS1_14adl_serializerES4_IhSaIhEEvEE
FNL:8,43,51
FNA:8,2,_ZNK5Array15serializeBinaryERSo
FNL:9,5,5
FNA:9,16,_ZN5ArrayC2Ei
FNL:10,53,64
FNA:10,2,_ZN5Array17deserializeBinaryERSi
FNL:11,66,71
FNA:11,1,_ZNK5Array13serializeTextERSo
FNL:12,7,10
FNA:12,18,_ZN5Array6insertEiRKNSt7__cxx1112basic_stringIcSt11char_traitsIcESaIcEEE
FNL:13,73,83
FNA:13,1,_ZN5Array15deserializeTextERSi
FNL:14,85,91
FNA:14,1,_ZNK5Array5printEv
FNF:15
FNH:14
DA:5,16
DA:7,18
DA:8,18
DA:9,51
DA:10,17
DA:12,2
DA:13,2
DA:14,3
DA:15,1
DA:17,12
DA:18,12
DA:19,11
DA:22,2
DA:23,2
DA:24,1
DA:25,1
DA:27,7
DA:28,4
DA:29,0
DA:31,2
DA:32,2
DA:33,2
DA:34,2
DA:35,2
DA:36,0
DA:38,2
DA:39,2
DA:40,2
DA:41,2
DA:43,2
DA:44,2
DA:45,2
DA:46,6
DA:47,2
DA:48,2
DA:49,2
DA:51,2
DA:53,2
DA:54,2
DA:56,2
DA:57,4
DA:59,2
DA:60,2
DA:61,2
DA:62,2
DA:63,2
DA:64,2
DA:66,1
DA:67,1
DA:68,4
DA:69,2
DA:71,1
DA:73,1
DA:74,1
DA:76,1
DA:77,1
DA:78,3
DA:79,2
DA:80,2
DA:81,2
DA:82,2
DA:83,1
DA:85,1
DA:86,1
DA:87,3
DA:88,1
DA:90,1
DA:91,1
LF:68
LH:66
end_of_record
TN:
SF:/home/osnsab/Документы/Sem3/laba3/laba3/UnitC++Test/include/Array.hpp
FNF:0
FNH:0
LF:0
LH:0
end_of_record
TN:
SF:/home/osnsab/Документы/Sem3/laba3/laba3/UnitC++Test/include/ChainHashTable.cpp
FNL:0,110,128
FNA:0,2,_ZNK14ChainHashTable15serializeBinaryERSo
FNL:1,130,156
FNA:1,2,_ZN14ChainHashTable17deserializeBinaryERSi
FNL:2,158,167
FNA:2,2,_ZNK14ChainHashTable13serializeTextERSo
FNL:3,169,185
FNA:3,2,_ZN14ChainHashTable15deserializeTextERSi
FNL:4,17,31
FNA:4,37,_ZN14ChainHashTable6insertERKNSt7__cxx1112basic_stringIcSt11char_traitsIcESaIcEEES7_
FNL:5,187,199
FNA:5,0,_ZNK14ChainHashTable7displayEv
FNL:6,33,42
FNA:6,34,_ZNK14ChainHashTable4findERKNSt7__cxx1112basic_stringIcSt11char_traitsIcESaIcEEE
FNL:7,44,53
FNA:7,2,_ZNK14ChainHashTable6hasKeyERKNSt7__cxx1112basic_stringIcSt11char_traitsIcESaIcEEE
FNL:8,5,7
FNA:8,16,_ZN14ChainHashTableC2Ei
FNL:9,55,66
FNA:9,2,_ZN14ChainHashTable6removeERKNSt7__cxx1112basic_stringIcSt11char_traitsIcESaIcEEE
FNL:10,68,70
FNA:10,9,_ZNK14ChainHashTable4sizeEv
FNL:11,72,74
FNA:11,5,_ZNK14ChainHashTable7isEmptyEv
FNL:12,76,94
FNA:12,2,_ZNK14ChainHashTable9serializeB5cxx11Ev
FNL:13,9,15
FNA:13,75,_ZNK14ChainHashTable4hashERKNSt7__cxx1112basic_stringIcSt11char_traitsIcESaIcEEE
FNL:14,96,108
FNA:14,2,_ZN14ChainHashTable11deserializeERKN8nlohmann16json_abi_v3_11_310basic_jsonISt3mapSt6vectorNSt7__cxx1112basic_stringIcSt11char_traitsIcESaIcEEEblmdSaNS1_14adl_serializerES4_IhSaIhEEvEE
FNF:15
FNH:14
DA:5,16
DA:6,16
DA:7,16
DA:9,75
DA:10,75
DA:11,497
DA:12,347
DA:14,75
DA:17,37
DA:18,37
DA:21,79
DA:22,43
DA:23,1
DA:24,1
DA:29,36
DA:30,36
DA:33,34
DA:34,34
DA:36,76
DA:37,74
DA:38,32
DA:41,4
DA:44,2
DA:45,2
DA:47,2
DA:48,1
DA:49,1
DA:52,1
DA:55,2
DA:56,2
DA:58,2
DA:59,2
DA:60,1
DA:61,1
DA:62,1
DA:63,1
DA:68,9
DA:69,9
DA:72,5
DA:73,5
DA:76,2
DA:77,2
DA:78,2
DA:79,2
DA:80,2
DA:82,36
DA:83,32
DA:84,35
DA:85,3
DA:86,3
DA:87,3
DA:88,3
DA:89,3
DA:90,32
DA:91,32
DA:93,2
DA:94,0
DA:96,2
DA:97,2
DA:98,2
DA:99,2
DA:100,2
DA:102,2
DA:103,34
DA:104,38
DA:105,3
DA:108,2
DA:110,2
DA:111,2
DA:112,2
DA:114,36
DA:115,32
DA:116,32
DA:118,35
DA:119,3
DA:120,3
DA:122,3
DA:123,3
DA:124,3
DA:125,3
DA:128,2
DA:130,2
DA:131,2
DA:133,2
DA:134,2
DA:136,2
DA:138,34
DA:140,32
DA:142,35
DA:145,3
DA:146,3
DA:147,3
DA:149,3
DA:150,3
DA:151,3
DA:153,3
DA:154,3
DA:156,2
DA:158,2
DA:159,2
DA:161,36
DA:162,32
DA:163,35
DA:164,3
DA:167,2
DA:169,2
DA:170,2
DA:172,2
DA:173,2
DA:175,34
DA:177,32
DA:179,35
DA:180,3
DA:181,3
DA:182,3
DA:183,3
DA:185,2
DA:187,0
DA:188,0
DA:190,0
DA:191,0
DA:192,0
DA:193,0
DA:194,0
DA:196,0
DA:199,0
LF:126
LH:116
end_of_record
TN:
SF:/home/osnsab/Документы/Sem3/laba3/laba3/UnitC++Test/include/ChainHashTable.hpp
FNL:0,11,11
FNA:0,45,_ZN8HashNodeC2ERKNSt7__cxx1112basic_stringIcSt11char_traitsIcESaIcEEES7_
FNF:1
FNH:1
DA:11,45
LF:1
LH:1
end_of_record
TN:
SF:/home/osnsab/Документы/Sem3/laba3/laba3/UnitC++Test/include/DoublyList.cpp
FNL:0,107,107
FNA:0,12,_ZNK10DoublyList4sizeEv
FNL:1,108,108
FNA:1,118,_ZNK10DoublyList7isEmptyEv
FNL:2,110,120
FNA:2,2,_ZNK10DoublyList9serializeB5cxx11Ev
FNL:3,122,128
FNA:3,2,_ZN10DoublyList11deserializeERKN8nlohmann16json_abi_v3_11_310basic_jsonISt3mapSt6vectorNSt7__cxx1112basic_stringIcSt11char_traitsIcESaIcEEEblmdSaNS1_14adl_serializerES4_IhSaIhEEvEE
FNL:4,13,23
FNA:4,3,_ZN10DoublyList9pushFrontERKNSt7__cxx1112basic_stringIcSt11char_traitsIcESaIcEEE
FNL:5,130,139
FNA:5,2,_ZNK10DoublyList15serializeBinaryERSo
FNL:6,141,152
FNA:6,2,_ZN10DoublyList17deserializeBinaryERSi
FNL:7,154,161
FNA:7,1,_ZNK10DoublyList13serializeTextERSo
FNL:8,163,173
FNA:8,1,_ZN10DoublyList15deserializeTextERSi
FNL:9,175,183
FNA:9,1,_ZNK10DoublyList5printEv
FNL:10,25,35
FNA:10,28,_ZN10DoublyList8pushBackERKNSt7__cxx1112basic_stringIcSt11char_traitsIcESaIcEEE
FNL:11,37,48
FNA:11,29,_ZN10DoublyList8popFrontEv
FNL:12,5,5
FNA:12,16,_ZN10DoublyListC2Ev
FNL:13,50,61
FNA:13,3,_ZN10DoublyList7popBackEv
FNL:14,63,79
FNA:14,4,_ZN10DoublyList6insertEiRKNSt7__cxx1112basic_stringIcSt11char_traitsIcESaIcEEE
FNL:15,7,11
FNA:15,16,_ZN10DoublyListD2Ev
FNL:16,81,96
FNA:16,4,_ZN10DoublyList6removeEi
FNL:17,98,105
FNA:17,23,_ZNK10DoublyList3getB5cxx11Ei
FNF:18
FNH:18
DA:5,16
DA:7,16
DA:8,42
DA:9,26
DA:11,16
DA:13,3
DA:14,3
DA:15,3
DA:16,1
DA:18,2
DA:19,2
DA:20,2
DA:22,3
DA:23,3
DA:25,28
DA:26,28
DA:27,28
DA:28,11
DA:30,17
DA:31,17
DA:32,17
DA:34,28
DA:35,28
DA:37,29
DA:38,29
DA:39,28
DA:40,28
DA:41,11
DA:43,17
DA:44,17
DA:46,28
DA:47,28
DA:48,28
DA:50,3
DA:51,3
DA:52,3
DA:53,3
DA:54,1
DA:56,2
DA:57,2
DA:59,3
DA:60,3
DA:61,3
DA:63,4
DA:64,4
DA:65,3
DA:67,2
DA:68,8
DA:69,6
DA:71,2
DA:73,1
DA:74,1
DA:75,1
DA:76,1
DA:77,1
DA:78,1
DA:81,4
DA:82,4
DA:83,4
DA:84,3
DA:86,2
DA:87,4
DA:88,2
DA:90,2
DA:92,1
DA:93,1
DA:94,1
DA:95,1
DA:98,23
DA:99,23
DA:100,40
DA:101,17
DA:103,23
DA:104,22
DA:107,12
DA:108,118
DA:110,2
DA:111,2
DA:112,2
DA:113,2
DA:114,2
DA:115,5
DA:116,3
DA:117,3
DA:119,2
DA:120,0
DA:122,2
DA:123,2
DA:124,2
DA:125,5
DA:126,3
DA:128,2
DA:130,2
DA:131,2
DA:132,2
DA:133,4
DA:134,2
DA:135,2
DA:136,2
DA:137,2
DA:139,2
DA:141,2
DA:142,2
DA:144,2
DA:145,4
DA:147,2
DA:148,2
DA:149,2
DA:150,2
DA:151,2
DA:152,2
DA:154,1
DA:155,1
DA:156,1
DA:157,3
DA:158,2
DA:159,2
DA:161,1
DA:163,1
DA:164,1
DA:166,1
DA:167,1
DA:168,3
DA:169,2
DA:170,2
DA:171,2
DA:172,2
DA:173,1
DA:175,1
DA:176,1
DA:177,1
DA:178,3
DA:179,2
DA:180,2
DA:182,1
DA:183,1
LF:136
LH:135
end_of_record
TN:
SF:/home/osnsab/Документы/Sem3/laba3/laba3/UnitC++Test/include/DoublyList.hpp
FNL:0,10,10
FNA:0,32,_ZN14DoublyListNodeC2ERKNSt7__cxx1112basic_stringIcSt11char_traitsIcESaIcEEE
FNF:1
FNH:1
DA:10,32
LF:1
LH:1
end_of_record
TN:
SF:/home/osnsab/Документы/Sem3/laba3/laba3/UnitC++Test/include/ForwardList.cpp
FNL:0,108,116
FNA:0,1,_ZNK11ForwardList8saveTextERKNSt7__cxx1112basic_stringIcSt11char_traitsIcESaIcEEE
FNL:1,118,133
FNA:1,1,_ZN11ForwardList8loadTextERKNSt7__cxx1112basic_stringIcSt11char_traitsIcESaIcEEE
FNL:2,135,143
FNA:2,0,_ZNK11ForwardList5printEv
FNL:3,16,22
FNA:3,24,_ZN11ForwardList8popFrontEv
FNL:4,24,33
FNA:4,3,_ZN11ForwardList6insertEiRKNSt7__cxx1112basic_stringIcSt11char_traitsIcESaIcEEE
FNL:5,35,45
FNA:5,1,_ZN11ForwardList6removeEi
FNL:6,47,52
FNA:6,15,_ZNK11ForwardList3getB5cxx11Ei
FNL:7,54,54
FNA:7,7,_ZNK11ForwardList4sizeEv
FNL:8,55,55
FNA:8,71,_ZNK11ForwardList7isEmptyEv
FNL:9,57,67
FNA:9,2,_ZNK11ForwardList6toJSONB5cxx11Ev
FNL:10,6,6
FNA:10,14,_ZN11ForwardListC2Ev
FNL:11,69,76
FNA:11,2,_ZN11ForwardList8fromJSONERKNSt7__cxx1112basic_stringIcSt11char_traitsIcESaIcEEE
FNL:12,7,7
FNA:12,14,_ZN11ForwardListD2Ev
FNL:13,78,88
FNA:13,2,_ZNK11ForwardList10saveBinaryERKNSt7__cxx1112basic_stringIcSt11char_traitsIcESaIcEEE
FNL:14,9,14
FNA:14,23,_ZN11ForwardList9pushFrontERKNSt7__cxx1112basic_stringIcSt11char_traitsIcESaIcEEE
FNL:15,90,106
FNA:15,2,_ZN11ForwardList10loadBinaryERKNSt7__cxx1112basic_stringIcSt11char_traitsIcESaIcEEE
FNF:16
FNH:15
DA:6,14
DA:7,36
DA:9,23
DA:10,23
DA:11,23
DA:12,23
DA:13,23
DA:14,23
DA:16,24
DA:17,24
DA:18,23
DA:19,23
DA:20,23
DA:21,23
DA:22,23
DA:24,3
DA:25,3
DA:26,1
DA:27,1
DA:28,1
DA:29,1
DA:30,1
DA:31,1
DA:32,1
DA:35,1
DA:36,1
DA:37,1
DA:38,1
DA:39,1
DA:40,1
DA:41,1
DA:42,1
DA:43,1
DA:44,1
DA:47,15
DA:48,15
DA:49,26
DA:50,15
DA:51,15
DA:54,7
DA:55,71
DA:57,2
DA:58,2
DA:59,2
DA:60,2
DA:61,2
DA:62,5
DA:63,3
DA:64,3
DA:66,4
DA:67,2
DA:69,2
DA:70,2
DA:71,2
DA:72,2
DA:73,5
DA:74,3
DA:76,2
DA:78,2
DA:79,2
DA:80,2
DA:81,2
DA:82,4
DA:83,2
DA:84,2
DA:85,2
DA:86,2
DA:88,2
DA:90,2
DA:91,2
DA:92,2
DA:94,2
DA:95,2
DA:96,4
DA:98,2
DA:99,2
DA:100,2
DA:101,2
DA:102,2
DA:103,4
DA:104,2
DA:106,2
DA:108,1
DA:109,1
DA:110,1
DA:111,1
DA:112,4
DA:113,3
DA:114,3
DA:116,1
DA:118,1
DA:119,1
DA:120,1
DA:122,1
DA:123,1
DA:124,1
DA:125,4
DA:126,3
DA:127,3
DA:128,3
DA:129,3
DA:130,4
DA:131,3
DA:133,1
DA:135,0
DA:136,0
DA:137,0
DA:138,0
DA:139,0
DA:140,0
DA:142,0
DA:143,0
LF:112
LH:104
end_of_record
TN:
SF:/home/osnsab/Документы/Sem3/laba3/laba3/UnitC++Test/include/ForwardList.hpp
FNL:0,7,7
FNA:0,24,_ZN15ForwardListNodeC2ERKNSt7__cxx1112basic_stringIcSt11char_traitsIcESaIcEEE
FNF:1
FNH:1
DA:7,24
LF:1
LH:1
end_of_record
TN:
SF:/home/osnsab/Документы/Sem3/laba3/laba3/UnitC++Test/include/Queue.cpp
FNL:0,106,122
FNA:0,2,_ZN5Queue17deserializeBinaryERSi
FNL:1,124,132
FNA:1,1,_ZNK5Queue13serializeTextERSo
FNL:2,134,148
FNA:2,1,_ZN5Queue15deserializeTextERSi
FNL:3,14,23
FNA:3,25,_ZN5Queue7enqueueERKNSt7__cxx1112basic_stringIcSt11char_traitsIcESaIcEEE
FNL:4,151,159
FNA:4,1,_ZNK5Queue5printEv
FNL:5,26,42
FNA:5,26,_ZN5Queue7dequeueB5cxx11Ev
FNL:6,44,49
FNA:6,8,_ZNK5Queue5frontB5cxx11Ev
FNL:7,5,5
FNA:7,14,_ZN5QueueC2Ev
FNL:8,51,53
FNA:8,0,_ZNK5Queue8getFrontB5cxx11Ev
FNL:9,55,57
FNA:9,103,_ZNK5Queue5emptyEv
FNL:10,59,61
FNA:10,0,_ZNK5Queue7isEmptyEv
FNL:11,63,65
FNA:11,9,_ZNK5Queue4sizeEv
FNL:12,68,80
FNA:12,2,_ZNK5Queue9serializeB5cxx11Ev
FNL:13,7,11
FNA:13,14,_ZN5QueueD2Ev
FNL:14,83,92
FNA:14,2,_ZN5Queue11deserializeERKN8nlohmann16json_abi_v3_11_310basic_jsonISt3mapSt6vectorNSt7__cxx1112basic_stringIcSt11char_traitsIcESaIcEEEblmdSaNS1_14adl_serializerES4_IhSaIhEEvEE
FNL:15,94,104
FNA:15,2,_ZNK5Queue15serializeBinaryERSo
FNF:16
FNH:14
DA:5,14
DA:7,14
DA:8,34
DA:9,20
DA:11,14
DA:14,25
DA:15,25
DA:16,25
DA:17,10
DA:19,15
DA:20,15
DA:22,25
DA:23,25
DA:26,26
DA:27,26
DA:28,1
DA:31,25
DA:32,25
DA:33,25
DA:35,25
DA:36,10
DA:39,25
DA:40,25
DA:41,25
DA:44,8
DA:45,8
DA:46,1
DA:48,7
DA:51,0
DA:52,0
DA:55,103
DA:56,103
DA:59,0
DA:60,0
DA:63,9
DA:64,9
DA:68,2
DA:69,2
DA:70,2
DA:71,2
DA:73,2
DA:74,5
DA:75,3
DA:76,3
DA:79,2
DA:80,0
DA:83,2
DA:84,2
DA:85,0
DA:88,2
DA:89,5
DA:90,3
DA:92,2
DA:94,2
DA:95,2
DA:97,2
DA:98,4
DA:99,2
DA:100,2
DA:101,2
DA:102,2
DA:104,2
DA:106,2
DA:107,2
DA:108,0
DA:112,2
DA:114,4
DA:116,2
DA:118,2
DA:119,2
DA:120,2
DA:121,2
DA:122,2
DA:124,1
DA:125,1
DA:127,1
DA:128,3
DA:129,2
DA:130,2
DA:132,1
DA:134,1
DA:135,1
DA:136,0
DA:140,1
DA:141,1
DA:143,3
DA:144,2
DA:145,2
DA:146,2
DA:147,2
DA:148,1
DA:151,1
DA:152,1
DA:153,1
DA:154,3
DA:155,2
DA:156,2
DA:158,1
DA:159,1
LF:99
LH:91
end_of_record
TN:
SF:/home/osnsab/Документы/Sem3/laba3/laba3/UnitC++Test/include/Queue.hpp
FNL:0,8,8
FNA:0,25,_ZN9QueueNodeC2ERKNSt7__cxx1112basic_stringIcSt11char_traitsIcESaIcEEE
FNF:1
FNH:1
DA:8,25
LF:1
LH:1
end_of_record
TN:
SF:/home/osnsab/Документы/Sem3/laba3/laba3/UnitC++Test/include/RedBlackTree.cpp
FNL:0,109,117
FNA:0,88,_ZNK12RedBlackTree6searchERKNSt7__cxx1112basic_stringIcSt11char_traitsIcESaIcEEE
FNL:1,119,128
FNA:1,0,_ZN12RedBlackTree6removeERKNSt7__cxx1112basic_stringIcSt11char_traitsIcESaIcEEE
FNL:2,13,15
FNA:2,16,_ZN12RedBlackTreeD2Ev
FNL:3,130,135
FNA:3,7,_ZNK12RedBlackTree7isEmptyEv
FNL:4,137,145
FNA:4,65,_ZNK12RedBlackTree16inorderTraversalEP6RBNodeRNSt7__cxx1112basic_stringIcSt11char_traitsIcESaIcEEE
FNL:5,147,154
FNA:5,2,_ZNK12RedBlackTree9serializeB5cxx11Ev
FNL:6,156,167
FNA:6,2,_ZN12RedBlackTree11deserializeERKN8nlohmann16json_abi_v3_11_310basic_jsonISt3mapSt6vectorNSt7__cxx1112basic_stringIcSt11char_traitsIcESaIcEEEblmdSaNS1_14adl_serializerES4_IhSaIhEEvEE
FNL:7,169,177
FNA:7,2,_ZNK12RedBlackTree15serializeBinaryERSo
FNL:8,17,28
FNA:8,35,_ZN12RedBlackTree10leftRotateEP6RBNode
FNL:9,179,193
FNA:9,2,_ZN12RedBlackTree17deserializeBinaryERSi
FNL:10,195,199
FNA:10,2,_ZNK12RedBlackTree13serializeTextERSo
FNL:11,201,213
FNA:11,2,_ZN12RedBlackTree15deserializeTextERSi
FNL:12,215,220
FNA:12,1,_ZNK12RedBlackTree5printEv
FNL:13,30,41
FNA:13,14,_ZN12RedBlackTree11rightRotateEP6RBNode
FNL:14,43,68
FNA:14,125,_ZN12RedBlackTree6insertERKNSt7__cxx1112basic_stringIcSt11char_traitsIcESaIcEEE
FNL:15,6,11
FNA:15,16,_ZN12RedBlackTreeC2Ev
FNL:16,70,107
FNA:16,114,_ZN12RedBlackTree11insertFixupEP6RBNode
FNF:17
FNH:16
DA:6,16
DA:7,48
DA:8,16
DA:9,16
DA:10,16
DA:11,16
DA:13,16
DA:15,16
DA:17,35
DA:18,35
DA:19,35
DA:20,35
DA:21,35
DA:22,35
DA:23,35
DA:24,29
DA:25,11
DA:26,35
DA:27,35
DA:30,14
DA:31,14
DA:32,14
DA:33,14
DA:34,14
DA:35,14
DA:36,14
DA:37,11
DA:38,1
DA:39,14
DA:40,14
DA:43,125
DA:44,125
DA:45,125
DA:46,125
DA:48,125
DA:49,11
DA:50,11
DA:51,11
DA:54,114
DA:55,114
DA:57,491
DA:58,377
DA:59,377
DA:60,244
DA:63,114
DA:64,114
DA:65,77
DA:67,114
DA:70,114
DA:71,194
DA:72,80
DA:73,29
DA:74,29
DA:75,15
DA:76,15
DA:77,15
DA:78,15
DA:80,14
DA:81,14
DA:82,14
DA:84,14
DA:85,14
DA:86,14
DA:89,51
DA:90,51
DA:91,30
DA:92,30
DA:93,30
DA:94,30
DA:96,21
DA:97,0
DA:98,0
DA:100,21
DA:101,21
DA:102,21
DA:106,114
DA:107,114
DA:109,88
DA:110,88
DA:111,329
DA:112,323
DA:113,241
DA:114,139
DA:116,6
DA:119,0
DA:120,0
DA:121,0
DA:122,0
DA:123,0
DA:125,0
DA:126,0
DA:128,0
DA:130,7
DA:131,7
DA:132,2
DA:133,2
DA:134,2
DA:135,2
DA:137,65
DA:138,65
DA:139,28
DA:140,28
DA:141,28
DA:143,28
DA:145,65
DA:147,2
DA:148,2
DA:149,2
DA:150,2
DA:151,2
DA:152,2
DA:153,2
DA:154,2
DA:156,2
DA:157,2
DA:158,2
DA:159,1
DA:160,1
DA:161,7
DA:162,5
DA:163,5
DA:166,1
DA:167,2
DA:169,2
DA:170,2
DA:171,2
DA:172,2
DA:173,2
DA:174,2
DA:175,1
DA:177,2
DA:179,2
DA:181,2
DA:182,2
DA:183,1
DA:184,1
DA:185,1
DA:186,1
DA:187,7
DA:188,5
DA:189,5
DA:192,1
DA:193,2
DA:195,2
DA:196,2
DA:197,2
DA:198,2
DA:199,2
DA:201,2
DA:202,2
DA:203,2
DA:204,2
DA:205,1
DA:206,1
DA:207,7
DA:208,5
DA:209,5
DA:212,1
DA:213,2
DA:215,1
DA:216,1
DA:217,1
DA:218,1
DA:219,1
DA:220,1
LF:165
LH:155
end_of_record
TN:
SF:/home/osnsab/Документы/Sem3/laba3/laba3/UnitC++Test/include/RedBlackTree.hpp
FNL:0,14,14
FNA:0,141,_ZN6RBNodeC2ERKNSt7__cxx1112basic_stringIcSt11char_traitsIcESaIcEEE
FNF:1
FNH:1
DA:14,141
LF:1
LH:1
end_of_record
TN:
SF:/home/osnsab/Документы/Sem3/laba3/laba3/UnitC++Test/include/Stack.cpp
FNL:0,108,129
FNA:0,2,_ZN5Stack17deserializeBinaryERSi
FNL:1,132,140
FNA:1,2,_ZNK5Stack13serializeTextERSo
FNL:2,14,19
FNA:2,26,_ZN5Stack4pushERKNSt7__cxx1112basic_stringIcSt11char_traitsIcESaIcEEE
FNL:3,143,162
FNA:3,2,_ZN5Stack15deserializeTextERSi
FNL:4,165,173
FNA:4,1,_ZNK5Stack5printEv
FNL:5,22,33
FNA:5,27,_ZN5Stack3popB5cxx11Ev
FNL:6,36,41
FNA:6,9,_ZNK5Stack3topB5cxx11Ev
FNL:7,43,45
FNA:7,85,_ZNK5Stack5emptyEv
FNL:8,47,49
FNA:8,0,_ZNK5Stack7isEmptyEv
FNL:9,5,5
FNA:9,15,_ZN5StackC2Ev
FNL:10,51,53
FNA:10,7,_ZNK5Stack4sizeEv
FNL:11,56,65
FNA:11,4,_ZNK5Stack8containsERKNSt7__cxx1112basic_stringIcSt11char_traitsIcESaIcEEE
FNL:12,68,80
FNA:12,2,_ZNK5Stack9serializeB5cxx11Ev
FNL:13,7,11
FNA:13,15,_ZN5StackD2Ev
FNL:14,83,92
FNA:14,2,_ZN5Stack11deserializeERKN8nlohmann16json_abi_v3_11_310basic_jsonISt3mapSt6vectorNSt7__cxx1112basic_stringIcSt11char_traitsIcESaIcEEEblmdSaNS1_14adl_serializerES4_IhSaIhEEvEE
FNL:15,95,105
FNA:15,2,_ZNK5Stack15serializeBinaryERSo
FNF:16
FNH:15
DA:5,15
DA:7,15
DA:8,37
DA:9,22
DA:11,15
DA:14,26
DA:15,26
DA:16,26
DA:17,26
DA:18,26
DA:19,26
DA:22,27
DA:23,27
DA:24,1
DA:27,26
DA:28,26
DA:29,26
DA:30,26
DA:31,26
DA:32,26
DA:36,9
DA:37,9
DA:38,1
DA:40,8
DA:43,85
DA:44,85
DA:47,0
DA:48,0
DA:51,7
DA:52,7
DA:56,4
DA:57,4
DA:58,7
DA:59,5
DA:60,2
DA:62,3
DA:64,2
DA:68,2
DA:69,2
DA:70,2
DA:71,2
DA:73,2
DA:74,5
DA:75,3
DA:76,3
DA:79,2
DA:80,0
DA:83,2
DA:84,2
DA:85,0
DA:88,2
DA:89,5
DA:90,3
DA:92,2
DA:95,2
DA:96,2
DA:98,2
DA:99,5
DA:100,3
DA:101,3
DA:102,3
DA:103,3
DA:105,2
DA:108,2
DA:109,2
DA:110,0
DA:114,2
DA:116,2
DA:117,5
DA:119,3
DA:121,3
DA:122,3
DA:123,3
DA:124,3
DA:126,5
DA:127,3
DA:129,2
DA:132,2
DA:133,2
DA:135,2
DA:136,5
DA:137,3
DA:138,3
DA:140,2
DA:143,2
DA:144,2
DA:145,0
DA:149,2
DA:150,2
DA:152,2
DA:153,5
DA:154,3
DA:155,3
DA:156,3
DA:157,3
DA:159,5
DA:160,3
DA:162,2
DA:165,1
DA:166,1
DA:167,1
DA:168,3
DA:169,2
DA:170,2
DA:172,1
DA:173,1
LF:106
LH:100
end_of_record
TN:
SF:/home/osnsab/Документы/Sem3/laba3/laba3/UnitC++Test/include/Stack.hpp
FNL:0,11,11
FNA:0,26,_ZN9StackNodeC2ERKNSt7__cxx1112basic_stringIcSt11char_traitsIcESaIcEEE
FNF:1
FNH:1
DA:11,26
LF:1
LH:1
end_of_record
TN:
SF:/home/osnsab/Документы/Sem3/laba3/laba3/UnitC++Test/nlohmann/json.hpp
FNL:0,12239,12249
FNA:0,2,_ZN8nlohmann16json_abi_v3_11_36detail6parserINS0_10basic_jsonISt3mapSt6vectorNSt7__cxx1112basic_stringIcSt11char_traitsIcESaIcEEEblmdSaNS0_14adl_serializerES5_IhSaIhEEvEENS1_22iterator_input_adapterIN9__gnu_cxx17__normal_iteratorIPKcSB_EEEEEC2EOSM_St8functionIFbiNS1_13parse_event_tERSF_EEbb
FNL:1,12261,12313
FNA:1,2,_ZN8nlohmann16json_abi_v3_11_36detail6parserINS0_10basic_jsonISt3mapSt6vectorNSt7__cxx1112basic_stringIcSt11char_traitsIcESaIcEEEblmdSaNS0_14adl_serializerES5_IhSaIhEEvEENS1_22iterator_input_adapterIN9__gnu_cxx17__normal_iteratorIPKcSB_EEEEE5parseEbRSF_
FNL:2,12348,12638
FNA:2,2,_ZN8nlohmann16json_abi_v3_11_36detail6parserINS0_10basic_jsonISt3mapSt6vectorNSt7__cxx1112basic_stringIcSt11char_traitsIcESaIcEEEblmdSaNS0_14adl_serializerES5_IhSaIhEEvEENS1_22iterator_input_adapterIN9__gnu_cxx17__normal_iteratorIPKcSB_EEEEE18sax_parse_internalINS1_19json_sax_dom_parserISF_EEEEbPT_
FNA:2,0,_ZN8nlohmann16json_abi_v3_11_36detail6parserINS0_10basic_jsonISt3mapSt6vectorNSt7__cxx1112basic_stringIcSt11char_traitsIcESaIcEEEblmdSaNS0_14adl_serializerES5_IhSaIhEEvEENS1_22iterator_input_adapterIN9__gnu_cxx17__normal_iteratorIPKcSB_EEEEE18sax_parse_internalINS1_28json_sax_dom_callback_parserISF_EEEEbPT_
FNL:3,12641,12644
FNA:3,27,_ZN8nlohmann16json_abi_v3_11_36detail6parserINS0_10basic_jsonISt3mapSt6vectorNSt7__cxx1112basic_stringIcSt11char_traitsIcESaIcEEEblmdSaNS0_14adl_serializerES5_IhSaIhEEvEENS1_22iterator_input_adapterIN9__gnu_cxx17__normal_iteratorIPKcSB_EEEEE9get_tokenEv
FNL:4,12646,12673
FNA:4,0,_ZN8nlohmann16json_abi_v3_11_36detail6parserINS0_10basic_jsonISt3mapSt6vectorNSt7__cxx1112basic_stringIcSt11char_traitsIcESaIcEEEblmdSaNS0_14adl_serializerES5_IhSaIhEEvEENS1_22iterator_input_adapterIN9__gnu_cxx17__normal_iteratorIPKcSB_EEEEE17exception_messageENS1_10lexer_baseISF_E10token_typeERKSB_
FNL:5,12750,12753
FNA:5,0,_ZN8nlohmann16json_abi_v3_11_36detail20primitive_iterator_t9set_beginEv
FNL:6,12756,12759
FNA:6,0,_ZN8nlohmann16json_abi_v3_11_36detail20primitive_iterator_t7set_endEv
FNL:7,12762,12765
FNA:7,0,_ZNK8nlohmann16json_abi_v3_11_36detail20primitive_iterator_t8is_beginEv
FNL:8,12773,12776
FNA:8,0,_ZN8nlohmann16json_abi_v3_11_36detaileqENS1_20primitive_iterator_tES2_
FNL:9,12795,12799
FNA:9,0,_ZN8nlohmann16json_abi_v3_11_36detail20primitive_iterator_tppEv
FNL:10,12808,12812
FNA:10,0,_ZN8nlohmann16json_abi_v3_11_36detail20primitive_iterator_tmmEv
FNL:11,12968,13000
FNA:11,4,_ZN8nlohmann16json_abi_v3_11_36detail9iter_implIKNS0_10basic_jsonISt3mapSt6vectorNSt7__cxx1112basic_stringIcSt11char_traitsIcESaIcEEEblmdSaNS0_14adl_serializerES5_IhSaIhEEvEEEC2EPSG_
FNA:11,86,_ZN8nlohmann16json_abi_v3_11_36detail9iter_implINS0_10basic_jsonISt3mapSt6vectorNSt7__cxx1112basic_stringIcSt11char_traitsIcESaIcEEEblmdSaNS0_14adl_serializerES5_IhSaIhEEvEEEC2EPSF_
FNL:12,13043,13045
FNA:12,60,_ZN8nlohmann16json_abi_v3_11_36detail9iter_implINS0_10basic_jsonISt3mapSt6vectorNSt7__cxx1112basic_stringIcSt11char_traitsIcESaIcEEEblmdSaNS0_14adl_serializerES5_IhSaIhEEvEEEC2ERKSG_
FNL:13,13065,13103
FNA:13,2,_ZN8nlohmann16json_abi_v3_11_36detail9iter_implIKNS0_10basic_jsonISt3mapSt6vectorNSt7__cxx1112basic_stringIcSt11char_traitsIcESaIcEEEblmdSaNS0_14adl_serializerES5_IhSaIhEEvEEE9set_beginEv
FNA:13,46,_ZN8nlohmann16json_abi_v3_11_36detail9iter_implINS0_10basic_jsonISt3mapSt6vectorNSt7__cxx1112basic_stringIcSt11char_traitsIcESaIcEEEblmdSaNS0_14adl_serializerES5_IhSaIhEEvEEE9set_beginEv
FNL:14,13109,13141
FNA:14,2,_ZN8nlohmann16json_abi_v3_11_36detail9iter_implIKNS0_10basic_jsonISt3mapSt6vectorNSt7__cxx1112basic_stringIcSt11char_traitsIcESaIcEEEblmdSaNS0_14adl_serializerES5_IhSaIhEEvEEE7set_endEv
FNA:14,40,_ZN8nlohmann16json_abi_v3_11_36detail9iter_implINS0_10basic_jsonISt3mapSt6vectorNSt7__cxx1112basic_stringIcSt11char_traitsIcESaIcEEEblmdSaNS0_14adl_serializerES5_IhSaIhEEvEEE7set_endEv
FNL:15,13148,13186
FNA:15,2,_ZNK8nlohmann16json_abi_v3_11_36detail9iter_implIKNS0_10basic_jsonISt3mapSt6vectorNSt7__cxx1112basic_stringIcSt11char_traitsIcESaIcEEEblmdSaNS0_14adl_serializerES5_IhSaIhEEvEEEdeEv
FNA:15,9,_ZNK8nlohmann16json_abi_v3_11_36detail9iter_implINS0_10basic_jsonISt3mapSt6vectorNSt7__cxx1112basic_stringIcSt11char_traitsIcESaIcEEEblmdSaNS0_14adl_serializerES5_IhSaIhEEvEEEdeEv
FNL:16,13192,13228
FNA:16,6,_ZNK8nlohmann16json_abi_v3_11_36detail9iter_implINS0_10basic_jsonISt3mapSt6vectorNSt7__cxx1112basic_stringIcSt11char_traitsIcESaIcEEEblmdSaNS0_14adl_serializerES5_IhSaIhEEvEEEptEv
FNL:17,13245,13279
FNA:17,2,_ZN8nlohmann16json_abi_v3_11_36detail9iter_implIKNS0_10basic_jsonISt3mapSt6vectorNSt7__cxx1112basic_stringIcSt11char_traitsIcESaIcEEEblmdSaNS0_14adl_serializerES5_IhSaIhEEvEEEppEv
FNA:17,9,_ZN8nlohmann16json_abi_v3_11_36detail9iter_implINS0_10basic_jsonISt3mapSt6vectorNSt7__cxx1112basic_stringIcSt11char_traitsIcESaIcEEEblmdSaNS0_14adl_serializerES5_IhSaIhEEvEEEppEv
FNL:18,13296,13330
FNA:18,12,_ZN8nlohmann16json_abi_v3_11_36detail9iter_implINS0_10basic_jsonISt3mapSt6vectorNSt7__cxx1112basic_stringIcSt11char_traitsIcESaIcEEEblmdSaNS0_14adl_serializerES5_IhSaIhEEvEEEmmEv
FNL:19,13337,13366
FNA:19,4,_ZNK8nlohmann16json_abi_v3_11_36detail9iter_implIKNS0_10basic_jsonISt3mapSt6vectorNSt7__cxx1112basic_stringIcSt11char_traitsIcESaIcEEEblmdSaNS0_14adl_serializerES5_IhSaIhEEvEEEeqISH_LDnEEEbRKT_
FNA:19,55,_ZNK8nlohmann16json_abi_v3_11_36detail9iter_implINS0_10basic_jsonISt3mapSt6vectorNSt7__cxx1112basic_stringIcSt11char_traitsIcESaIcEEEblmdSaNS0_14adl_serializerES5_IhSaIhEEvEEEeqISG_LDnEEEbRKT_
FNL:20,13373,13376
FNA:20,4,_ZNK8nlohmann16json_abi_v3_11_36detail9iter_implIKNS0_10basic_jsonISt3mapSt6vectorNSt7__cxx1112basic_stringIcSt11char_traitsIcESaIcEEEblmdSaNS0_14adl_serializerES5_IhSaIhEEvEEEneISH_LDnEEEbRKT_
FNA:20,45,_ZNK8nlohmann16json_abi_v3_11_36detail9iter_implINS0_10basic_jsonISt3mapSt6vectorNSt7__cxx1112basic_stringIcSt11char_traitsIcESaIcEEEblmdSaNS0_14adl_serializerES5_IhSaIhEEvEEEneISG_LDnEEEbRKT_
FNL:21,13678,13679
FNA:21,14,_ZN8nlohmann16json_abi_v3_11_36detail21json_reverse_iteratorINS1_9iter_implINS0_10basic_jsonISt3mapSt6vectorNSt7__cxx1112basic_stringIcSt11char_traitsIcESaIcEEEblmdSaNS0_14adl_serializerES6_IhSaIhEEvEEEEEC2ERKSH_
FNL:22,13691,13694
FNA:22,6,_ZN8nlohmann16json_abi_v3_11_36detail21json_reverse_iteratorINS1_9iter_implINS0_10basic_jsonISt3mapSt6vectorNSt7__cxx1112basic_stringIcSt11char_traitsIcESaIcEEEblmdSaNS0_14adl_serializerES6_IhSaIhEEvEEEEEppEv
FNL:23,14850,14857
FNA:23,0,_ZNK8nlohmann16json_abi_v3_11_36detail8json_refINS0_10basic_jsonISt3mapSt6vectorNSt7__cxx1112basic_stringIcSt11char_traitsIcESaIcEEEblmdSaNS0_14adl_serializerES5_IhSaIhEEvEEE15moved_or_copiedEv
FNL:24,14859,14862
FNA:24,0,_ZNK8nlohmann16json_abi_v3_11_36detail8json_refINS0_10basic_jsonISt3mapSt6vectorNSt7__cxx1112basic_stringIcSt11char_traitsIcESaIcEEEblmdSaNS0_14adl_serializerES5_IhSaIhEEvEEEdeEv
FNL:25,14864,14867
FNA:25,0,_ZNK8nlohmann16json_abi_v3_11_36detail8json_refINS0_10basic_jsonISt3mapSt6vectorNSt7__cxx1112basic_stringIcSt11char_traitsIcESaIcEEEblmdSaNS0_14adl_serializerES5_IhSaIhEEvEEEptEv
FNL:26,14948,14948
FNA:26,0,_ZN8nlohmann16json_abi_v3_11_36detail23output_adapter_protocolIcED0Ev
FNA:26,2,_ZN8nlohmann16json_abi_v3_11_36detail23output_adapter_protocolIcED2Ev
FNL:27,14950,14950
FNA:27,2,_ZN8nlohmann16json_abi_v3_11_36detail23output_adapter_protocolIcEC2Ev
FNL:28,15016,15018
FNA:28,2,_ZN8nlohmann16json_abi_v3_11_36detail21output_string_adapterIcNSt7__cxx1112basic_stringIcSt11char_traitsIcESaIcEEEEC2ERS8_
FNL:29,15020,15023
FNA:29,21,_ZN8nlohmann16json_abi_v3_11_36detail21output_string_adapterIcNSt7__cxx1112basic_stringIcSt11char_traitsIcESaIcEEEE15write_characterEc
FNL:30,15026,15029
FNA:30,13,_ZN8nlohmann16json_abi_v3_11_36detail21output_string_adapterIcNSt7__cxx1112basic_stringIcSt11char_traitsIcESaIcEEEE16write_charactersEPKcm
FNL:31,15048,15049
FNA:31,2,_ZN8nlohmann16json_abi_v3_11_36detail14output_adapterIcNSt7__cxx1112basic_stringIcSt11char_traitsIcESaIcEEEEC2ERS8_
FNL:32,15051,15054
FNA:32,2,_ZN8nlohmann16json_abi_v3_11_36detail14output_adapterIcNSt7__cxx1112basic_stringIcSt11char_traitsIcESaIcEEEEcvSt10shared_ptrINS1_23output_adapter_protocolIcEEEEv
FNL:33,16863,16866
FNA:33,0,_ZN8nlohmann16json_abi_v3_11_36detail13binary_writerINS0_10basic_jsonISt3mapSt6vectorNSt7__cxx1112basic_stringIcSt11char_traitsIcESaIcEEEblmdSaNS0_14adl_serializerES5_IhSaIhEEvEEcE12to_char_typeIccLPv0EEEcT_
FNL:34,16955,16962
FNA:34,0,_ZN8nlohmann16json_abi_v3_11_36detail9dtoa_impl16reinterpret_bitsImdEET_T0_
FNL:35,16971,16971
FNA:35,0,_ZN8nlohmann16json_abi_v3_11_36detail9dtoa_impl5diyfpC2Emi
FNL:36,16977,16983
FNA:36,0,_ZN8nlohmann16json_abi_v3_11_36detail9dtoa_impl5diyfp3subERKS3_S5_
FNL:37,16989,17048
FNA:37,0,_ZN8nlohmann16json_abi_v3_11_36detail9dtoa_impl5diyfp3mulERKS3_S5_
FNL:38,17054,17065
FNA:38,0,_ZN8nlohmann16json_abi_v3_11_36detail9dtoa_impl5diyfp9normalizeES3_
FNL:39,17071,17079
FNA:39,0,_ZN8nlohmann16json_abi_v3_11_36detail9dtoa_impl5diyfp12normalize_toERKS3_i
FNL:40,17096,17161
FNA:40,0,_ZN8nlohmann16json_abi_v3_11_36detail9dtoa_impl18compute_boundariesIdEENS2_10boundariesET_
FNL:41,17235,17393
FNA:41,0,_ZN8nlohmann16json_abi_v3_11_36detail9dtoa_impl36get_cached_power_for_binary_exponentEi
FNL:42,17399,17451
FNA:42,0,_ZN8nlohmann16json_abi_v3_11_36detail9dtoa_impl18find_largest_pow10EjRj
FNL:43,17453,17488
FNA:43,0,_ZN8nlohmann16json_abi_v3_11_36detail9dtoa_impl12grisu2_roundEPcimmmm
FNL:44,17494,17727
FNA:44,0,_ZN8nlohmann16json_abi_v3_11_36detail9dtoa_impl16grisu2_digit_genEPcRiS4_NS2_5diyfpES5_S5_
FNL:45,17735,17786
FNA:45,0,_ZN8nlohmann16json_abi_v3_11_36detail9dtoa_impl6grisu2EPcRiS4_NS2_5diyfpES5_S5_
FNL:46,17795,17826
FNA:46,0,_ZN8nlohmann16json_abi_v3_11_36detail9dtoa_impl6grisu2IdEEvPcRiS5_T_
FNL:47,17835,17874
FNA:47,0,_ZN8nlohmann16json_abi_v3_11_36detail9dtoa_impl15append_exponentEPci
FNL:48,17887,17955
FNA:48,0,_ZN8nlohmann16json_abi_v3_11_36detail9dtoa_impl13format_bufferEPciiii
FNL:49,17972,18022
FNA:49,0,_ZN8nlohmann16json_abi_v3_11_36detail8to_charsIdEEPcS3_PKcT_
FNL:50,18075,18084
FNA:50,2,_ZN8nlohmann16json_abi_v3_11_36detail10serializerINS0_10basic_jsonISt3mapSt6vectorNSt7__cxx1112basic_stringIcSt11char_traitsIcESaIcEEEblmdSaNS0_14adl_serializerES5_IhSaIhEEvEEEC2ESt10shared_ptrINS1_23output_adapter_protocolIcEEEcNS1_15error_handler_tE
FNL:51,18091,18091
FNA:51,2,_ZN8nlohmann16json_abi_v3_11_36detail10serializerINS0_10basic_jsonISt3mapSt6vectorNSt7__cxx1112basic_stringIcSt11char_traitsIcESaIcEEEblmdSaNS0_14adl_serializerES5_IhSaIhEEvEEED2Ev
FNL:52,18115,18382
FNA:52,9,_ZN8nlohmann16json_abi_v3_11_36detail10serializerINS0_10basic_jsonISt3mapSt6vectorNSt7__cxx1112basic_stringIcSt11char_traitsIcESaIcEEEblmdSaNS0_14adl_serializerES5_IhSaIhEEvEEE4dumpERKSF_bbjj
FNL:53,18399,18643
FNA:53,7,_ZN8nlohmann16json_abi_v3_11_36detail10serializerINS0_10basic_jsonISt3mapSt6vectorNSt7__cxx1112basic_stringIcSt11char_traitsIcESaIcEEEblmdSaNS0_14adl_serializerES5_IhSaIhEEvEEE12dump_escapedERKSB_b
FNL:54,18654,18678
FNA:54,1,_ZN8nlohmann16json_abi_v3_11_36detail10serializerINS0_10basic_jsonISt3mapSt6vectorNSt7__cxx1112basic_stringIcSt11char_traitsIcESaIcEEEblmdSaNS0_14adl_serializerES5_IhSaIhEEvEEE12count_digitsEm
FNL:55,18685,18692
FNA:55,0,_ZN8nlohmann16json_abi_v3_11_36detail10serializerINS0_10basic_jsonISt3mapSt6vectorNSt7__cxx1112basic_stringIcSt11char_traitsIcESaIcEEEblmdSaNS0_14adl_serializerES5_IhSaIhEEvEEE9hex_bytesEh
FNL:56,18696,18699
FNA:56,1,_ZN8nlohmann16json_abi_v3_11_36detail10serializerINS0_10basic_jsonISt3mapSt6vectorNSt7__cxx1112basic_stringIcSt11char_traitsIcESaIcEEEblmdSaNS0_14adl_serializerES5_IhSaIhEEvEEE18is_negative_numberIlLi0EEEbT_
FNL:57,18702,18705
FNA:57,0,_ZN8nlohmann16json_abi_v3_11_36detail10serializerINS0_10basic_jsonISt3mapSt6vectorNSt7__cxx1112basic_stringIcSt11char_traitsIcESaIcEEEblmdSaNS0_14adl_serializerES5_IhSaIhEEvEEE18is_negative_numberIhLi0EEEbT_
FNA:57,0,_ZN8nlohmann16json_abi_v3_11_36detail10serializerINS0_10basic_jsonISt3mapSt6vectorNSt7__cxx1112basic_stringIcSt11char_traitsIcESaIcEEEblmdSaNS0_14adl_serializerES5_IhSaIhEEvEEE18is_negative_numberImLi0EEEbT_
FNL:58,18722,18797
FNA:58,0,_ZN8nlohmann16json_abi_v3_11_36detail10serializerINS0_10basic_jsonISt3mapSt6vectorNSt7__cxx1112basic_stringIcSt11char_traitsIcESaIcEEEblmdSaNS0_14adl_serializerES5_IhSaIhEEvEEE12dump_integerIhLi0EEEvT_
FNA:58,2,_ZN8nlohmann16json_abi_v3_11_36detail10serializerINS0_10basic_jsonISt3mapSt6vectorNSt7__cxx1112basic_stringIcSt11char_traitsIcESaIcEEEblmdSaNS0_14adl_serializerES5_IhSaIhEEvEEE12dump_integerIlLi0EEEvT_
FNA:58,0,_ZN8nlohmann16json_abi_v3_11_36detail10serializerINS0_10basic_jsonISt3mapSt6vectorNSt7__cxx1112basic_stringIcSt11char_traitsIcESaIcEEEblmdSaNS0_14adl_serializerES5_IhSaIhEEvEEE12dump_integerImLi0EEEvT_
FNL:59,18807,18826
FNA:59,0,_ZN8nlohmann16json_abi_v3_11_36detail10serializerINS0_10basic_jsonISt3mapSt6vectorNSt7__cxx1112basic_stringIcSt11char_traitsIcESaIcEEEblmdSaNS0_14adl_serializerES5_IhSaIhEEvEEE10dump_floatEd
FNL:60,18828,18834
FNA:60,0,_ZN8nlohmann16json_abi_v3_11_36detail10serializerINS0_10basic_jsonISt3mapSt6vectorNSt7__cxx1112basic_stringIcSt11char_traitsIcESaIcEEEblmdSaNS0_14adl_serializerES5_IhSaIhEEvEEE10dump_floatEdSt17integral_constantIbLb1EE
FNL:61,18908,18941
FNA:61,40,_ZN8nlohmann16json_abi_v3_11_36detail10serializerINS0_10basic_jsonISt3mapSt6vectorNSt7__cxx1112basic_stringIcSt11char_traitsIcESaIcEEEblmdSaNS0_14adl_serializerES5_IhSaIhEEvEEE6decodeERhRjh
FNL:62,18963,18967
FNA:62,0,_ZN8nlohmann16json_abi_v3_11_36detail10serializerINS0_10basic_jsonISt3mapSt6vectorNSt7__cxx1112basic_stringIcSt11char_traitsIcESaIcEEEblmdSaNS0_14adl_serializerES5_IhSaIhEEvEEE11remove_signEl
FNL:63,19434,19443
FNA:63,2,_ZN8nlohmann16json_abi_v3_11_310basic_jsonISt3mapSt6vectorNSt7__cxx1112basic_stringIcSt11char_traitsIcESaIcEEEblmdSaNS0_14adl_serializerES3_IhSaIhEEvE6parserINS0_6detail22iterator_input_adapterIN9__gnu_cxx17__normal_iteratorIPKcS9_EEEEEENSF_6parserISD_T_EESO_St8functionIFbiNSF_13parse_event_tERSD_EEbb
FNL:64,19680,19693
FNA:64,0,_ZN8nlohmann16json_abi_v3_11_310basic_jsonISt3mapSt6vectorNSt7__cxx1112basic_stringIcSt11char_traitsIcESaIcEEEblmdSaNS0_14adl_serializerES3_IhSaIhEEvE6createINS0_27byte_container_with_subtypeISC_EEJEEEPT_DpOT0_
FNA:64,0,_ZN8nlohmann16json_abi_v3_11_310basic_jsonISt3mapSt6vectorNSt7__cxx1112basic_stringIcSt11char_traitsIcESaIcEEEblmdSaNS0_14adl_serializerES3_IhSaIhEEvE6createINS0_27byte_container_with_subtypeISC_EEJRKSG_EEEPT_DpOT0_
FNA:64,19,_ZN8nlohmann16json_abi_v3_11_310basic_jsonISt3mapSt6vectorNSt7__cxx1112basic_stringIcSt11char_traitsIcESaIcEEEblmdSaNS0_14adl_serializerES3_IhSaIhEEvE6createIS2_IS9_SD_St4lessIvESaISt4pairIKS9_SD_EEEJEEEPT_DpOT0_
FNA:64,9,_ZN8nlohmann16json_abi_v3_11_310basic_jsonISt3mapSt6vectorNSt7__cxx1112basic_stringIcSt11char_traitsIcESaIcEEEblmdSaNS0_14adl_serializerES3_IhSaIhEEvE6createIS2_IS9_SD_St4lessIvESaISt4pairIKS9_SD_EEEJRKSL_EEEPT_DpOT0_
FNA:64,2,_ZN8nlohmann16json_abi_v3_11_310basic_jsonISt3mapSt6vectorNSt7__cxx1112basic_stringIcSt11char_traitsIcESaIcEEEblmdSaNS0_14adl_serializerES3_IhSaIhEEvE6createIS3_ISD_SaISD_EEJEEEPT_DpOT0_
FNA:64,2,_ZN8nlohmann16json_abi_v3_11_310basic_jsonISt3mapSt6vectorNSt7__cxx1112basic_stringIcSt11char_traitsIcESaIcEEEblmdSaNS0_14adl_serializerES3_IhSaIhEEvE6createIS3_ISD_SaISD_EEJN9__gnu_cxx17__normal_iteratorIPKS9_S3_IS9_SaIS9_EEEESN_EEEPT_DpOT0_
FNA:64,42,_ZN8nlohmann16json_abi_v3_11_310basic_jsonISt3mapSt6vectorNSt7__cxx1112basic_stringIcSt11char_traitsIcESaIcEEEblmdSaNS0_14adl_serializerES3_IhSaIhEEvE6createIS3_ISD_SaISD_EEJPKNS0_6detail8json_refISD_EESL_EEEPT_DpOT0_
FNA:64,74,_ZN8nlohmann16json_abi_v3_11_310basic_jsonISt3mapSt6vectorNSt7__cxx1112basic_stringIcSt11char_traitsIcESaIcEEEblmdSaNS0_14adl_serializerES3_IhSaIhEEvE6createIS3_ISD_SaISD_EEJRKSG_EEEPT_DpOT0_
FNA:64,0,_ZN8nlohmann16json_abi_v3_11_310basic_jsonISt3mapSt6vectorNSt7__cxx1112basic_stringIcSt11char_traitsIcESaIcEEEblmdSaNS0_14adl_serializerES3_IhSaIhEEvE6createIS9_JRA1_KcEEEPT_DpOT0_
FNA:64,55,_ZN8nlohmann16json_abi_v3_11_310basic_jsonISt3mapSt6vectorNSt7__cxx1112basic_stringIcSt11char_traitsIcESaIcEEEblmdSaNS0_14adl_serializerES3_IhSaIhEEvE6createIS9_JRKS9_EEEPT_DpOT0_
FNL:65,19685,19685
FNA:65,0,_ZZN8nlohmann16json_abi_v3_11_310basic_jsonISt3mapSt6vectorNSt7__cxx1112basic_stringIcSt11char_traitsIcESaIcEEEblmdSaNS0_14adl_serializerES3_IhSaIhEEvE6createINS0_27byte_container_with_subtypeISC_EEJEEEPT_DpOT0_ENKUlPSG_E_clESM_
FNA:65,0,_ZZN8nlohmann16json_abi_v3_11_310basic_jsonISt3mapSt6vectorNSt7__cxx1112basic_stringIcSt11char_traitsIcESaIcEEEblmdSaNS0_14adl_serializerES3_IhSaIhEEvE6createINS0_27byte_container_with_subtypeISC_EEJRKSG_EEEPT_DpOT0_ENKUlPSG_E_clESO_
FNA:65,0,_ZZN8nlohmann16json_abi_v3_11_310basic_jsonISt3mapSt6vectorNSt7__cxx1112basic_stringIcSt11char_traitsIcESaIcEEEblmdSaNS0_14adl_serializerES3_IhSaIhEEvE6createIS2_IS9_SD_St4lessIvESaISt4pairIKS9_SD_EEEJEEEPT_DpOT0_ENKUlPSL_E_clESR_
FNA:65,0,_ZZN8nlohmann16json_abi_v3_11_310basic_jsonISt3mapSt6vectorNSt7__cxx1112basic_stringIcSt11char_traitsIcESaIcEEEblmdSaNS0_14adl_serializerES3_IhSaIhEEvE6createIS2_IS9_SD_St4lessIvESaISt4pairIKS9_SD_EEEJRKSL_EEEPT_DpOT0_ENKUlPSL_E_clEST_
FNA:65,0,_ZZN8nlohmann16json_abi_v3_11_310basic_jsonISt3mapSt6vectorNSt7__cxx1112basic_stringIcSt11char_traitsIcESaIcEEEblmdSaNS0_14adl_serializerES3_IhSaIhEEvE6createIS3_ISD_SaISD_EEJEEEPT_DpOT0_ENKUlPSG_E_clESM_
FNA:65,0,_ZZN8nlohmann16json_abi_v3_11_310basic_jsonISt3mapSt6vectorNSt7__cxx1112basic_stringIcSt11char_traitsIcESaIcEEEblmdSaNS0_14adl_serializerES3_IhSaIhEEvE6createIS3_ISD_SaISD_EEJN9__gnu_cxx17__normal_iteratorIPKS9_S3_IS9_SaIS9_EEEESN_EEEPT_DpOT0_ENKUlPSG_E_clEST_
FNA:65,0,_ZZN8nlohmann16json_abi_v3_11_310basic_jsonISt3mapSt6vectorNSt7__cxx1112basic_stringIcSt11char_traitsIcESaIcEEEblmdSaNS0_14adl_serializerES3_IhSaIhEEvE6createIS3_ISD_SaISD_EEJPKNS0_6detail8json_refISD_EESL_EEEPT_DpOT0_ENKUlPSG_E_clESR_
FNA:65,0,_ZZN8nlohmann16json_abi_v3_11_310basic_jsonISt3mapSt6vectorNSt7__cxx1112basic_stringIcSt11char_traitsIcESaIcEEEblmdSaNS0_14adl_serializerES3_IhSaIhEEvE6createIS3_ISD_SaISD_EEJRKSG_EEEPT_DpOT0_ENKUlPSG_E_clESO_
FNA:65,0,_ZZN8nlohmann16json_abi_v3_11_310basic_jsonISt3mapSt6vectorNSt7__cxx1112basic_stringIcSt11char_traitsIcESaIcEEEblmdSaNS0_14adl_serializerES3_IhSaIhEEvE6createIS9_JRA1_KcEEEPT_DpOT0_ENKUlPS9_E_clESN_
FNA:65,0,_ZZN8nlohmann16json_abi_v3_11_310basic_jsonISt3mapSt6vectorNSt7__cxx1112basic_stringIcSt11char_traitsIcESaIcEEEblmdSaNS0_14adl_serializerES3_IhSaIhEEvE6createIS9_JRKS9_EEEPT_DpOT0_ENKUlPS9_E_clESM_
FNL:66,19747,19747
FNA:66,2,_ZN8nlohmann16json_abi_v3_11_310basic_jsonISt3mapSt6vectorNSt7__cxx1112basic_stringIcSt11char_traitsIcESaIcEEEblmdSaNS0_14adl_serializerES3_IhSaIhEEvE10json_valueC2Eb
FNL:67,19749,19749
FNA:67,14,_ZN8nlohmann16json_abi_v3_11_310basic_jsonISt3mapSt6vectorNSt7__cxx1112basic_stringIcSt11char_traitsIcESaIcEEEblmdSaNS0_14adl_serializerES3_IhSaIhEEvE10json_valueC2El
FNL:68,19751,19751
FNA:68,2,_ZN8nlohmann16json_abi_v3_11_310basic_jsonISt3mapSt6vectorNSt7__cxx1112basic_stringIcSt11char_traitsIcESaIcEEEblmdSaNS0_14adl_serializerES3_IhSaIhEEvE10json_valueC2Em
FNL:69,19753,19753
FNA:69,0,_ZN8nlohmann16json_abi_v3_11_310basic_jsonISt3mapSt6vectorNSt7__cxx1112basic_stringIcSt11char_traitsIcESaIcEEEblmdSaNS0_14adl_serializerES3_IhSaIhEEvE10json_valueC2Ed
FNL:70,19755,19824
FNA:70,63,_ZN8nlohmann16json_abi_v3_11_310basic_jsonISt3mapSt6vectorNSt7__cxx1112basic_stringIcSt11char_traitsIcESaIcEEEblmdSaNS0_14adl_serializerES3_IhSaIhEEvE10json_valueC2ENS0_6detail7value_tE
FNL:71,19827,19827
FNA:71,55,_ZN8nlohmann16json_abi_v3_11_310basic_jsonISt3mapSt6vectorNSt7__cxx1112basic_stringIcSt11char_traitsIcESaIcEEEblmdSaNS0_14adl_serializerES3_IhSaIhEEvE10json_valueC2ERKS9_
FNL:72,19833,19833
FNA:72,9,_ZN8nlohmann16json_abi_v3_11_310basic_jsonISt3mapSt6vectorNSt7__cxx1112basic_stringIcSt11char_traitsIcESaIcEEEblmdSaNS0_14adl_serializerES3_IhSaIhEEvE10json_valueC2ERKS2_IS9_SD_St4lessIvESaISt4pairIKS9_SD_EEE
FNL:73,19839,19839
FNA:73,74,_ZN8nlohmann16json_abi_v3_11_310basic_jsonISt3mapSt6vectorNSt7__cxx1112basic_stringIcSt11char_traitsIcESaIcEEEblmdSaNS0_14adl_serializerES3_IhSaIhEEvE10json_valueC2ERKS3_ISD_SaISD_EE
FNL:74,19851,19851
FNA:74,0,_ZN8nlohmann16json_abi_v3_11_310basic_jsonISt3mapSt6vectorNSt7__cxx1112basic_stringIcSt11char_traitsIcESaIcEEEblmdSaNS0_14adl_serializerES3_IhSaIhEEvE10json_valueC2ERKNS0_27byte_container_with_subtypeISC_EE
FNL:75,19856,19962
FNA:75,742,_ZN8nlohmann16json_abi_v3_11_310basic_jsonISt3mapSt6vectorNSt7__cxx1112basic_stringIcSt11char_traitsIcESaIcEEEblmdSaNS0_14adl_serializerES3_IhSaIhEEvE10json_value7destroyENS0_6detail7value_tE
FNL:76,19984,20003
FNA:76,2148,_ZNK8nlohmann16json_abi_v3_11_310basic_jsonISt3mapSt6vectorNSt7__cxx1112basic_stringIcSt11char_traitsIcESaIcEEEblmdSaNS0_14adl_serializerES3_IhSaIhEEvE16assert_invariantEb
FNL:77,20005,20040
FNA:77,682,_ZN8nlohmann16json_abi_v3_11_310basic_jsonISt3mapSt6vectorNSt7__cxx1112basic_stringIcSt11char_traitsIcESaIcEEEblmdSaNS0_14adl_serializerES3_IhSaIhEEvE11set_parentsEv
FNL:78,20055,20091
FNA:78,129,_ZN8nlohmann16json_abi_v3_11_310basic_jsonISt3mapSt6vectorNSt7__cxx1112basic_stringIcSt11char_traitsIcESaIcEEEblmdSaNS0_14adl_serializerES3_IhSaIhEEvE10set_parentERSD_m
FNL:79,20117,20121
FNA:79,63,_ZN8nlohmann16json_abi_v3_11_310basic_jsonISt3mapSt6vectorNSt7__cxx1112basic_stringIcSt11char_traitsIcESaIcEEEblmdSaNS0_14adl_serializerES3_IhSaIhEEvEC2ENS0_6detail7value_tE
FNL:80,20125,20129
FNA:80,59,_ZN8nlohmann16json_abi_v3_11_310basic_jsonISt3mapSt6vectorNSt7__cxx1112basic_stringIcSt11char_traitsIcESaIcEEEblmdSaNS0_14adl_serializerES3_IhSaIhEEvEC2EDn
FNL:81,20137,20144
FNA:81,2,_ZN8nlohmann16json_abi_v3_11_310basic_jsonISt3mapSt6vectorNSt7__cxx1112basic_stringIcSt11char_traitsIcESaIcEEEblmdSaNS0_14adl_serializerES3_IhSaIhEEvEC2IRKS3_IS9_SaIS9_EESG_Li0EEEOT_
FNA:81,8,_ZN8nlohmann16json_abi_v3_11_310basic_jsonISt3mapSt6vectorNSt7__cxx1112basic_stringIcSt11char_traitsIcESaIcEEEblmdSaNS0_14adl_serializerES3_IhSaIhEEvEC2IRKS9_S9_Li0EEEOT_
FNA:81,14,_ZN8nlohmann16json_abi_v3_11_310basic_jsonISt3mapSt6vectorNSt7__cxx1112basic_stringIcSt11char_traitsIcESaIcEEEblmdSaNS0_14adl_serializerES3_IhSaIhEEvEC2IRKiiLi0EEEOT_
FNA:81,17,_ZN8nlohmann16json_abi_v3_11_310basic_jsonISt3mapSt6vectorNSt7__cxx1112basic_stringIcSt11char_traitsIcESaIcEEEblmdSaNS0_14adl_serializerES3_IhSaIhEEvEC2IRS9_S9_Li0EEEOT_
FNA:81,0,_ZN8nlohmann16json_abi_v3_11_310basic_jsonISt3mapSt6vectorNSt7__cxx1112basic_stringIcSt11char_traitsIcESaIcEEEblmdSaNS0_14adl_serializerES3_IhSaIhEEvEC2IRbbLi0EEEOT_
FNA:81,0,_ZN8nlohmann16json_abi_v3_11_310basic_jsonISt3mapSt6vectorNSt7__cxx1112basic_stringIcSt11char_traitsIcESaIcEEEblmdSaNS0_14adl_serializerES3_IhSaIhEEvEC2IRddLi0EEEOT_
FNA:81,0,_ZN8nlohmann16json_abi_v3_11_310basic_jsonISt3mapSt6vectorNSt7__cxx1112basic_stringIcSt11char_traitsIcESaIcEEEblmdSaNS0_14adl_serializerES3_IhSaIhEEvEC2IRllLi0EEEOT_
FNA:81,2,_ZN8nlohmann16json_abi_v3_11_310basic_jsonISt3mapSt6vectorNSt7__cxx1112basic_stringIcSt11char_traitsIcESaIcEEEblmdSaNS0_14adl_serializerES3_IhSaIhEEvEC2IRmmLi0EEEOT_
FNA:81,2,_ZN8nlohmann16json_abi_v3_11_310basic_jsonISt3mapSt6vectorNSt7__cxx1112basic_stringIcSt11char_traitsIcESaIcEEEblmdSaNS0_14adl_serializerES3_IhSaIhEEvEC2IbbLi0EEEOT_
FNL:82,20204,20258
FNA:82,42,_ZN8nlohmann16json_abi_v3_11_310basic_jsonISt3mapSt6vectorNSt7__cxx1112basic_stringIcSt11char_traitsIcESaIcEEEblmdSaNS0_14adl_serializerES3_IhSaIhEEvEC2ESt16initializer_listINS0_6detail8json_refISD_EEEbNSF_7value_tE
FNL:83,20211,20211
FNA:83,0,_ZZN8nlohmann16json_abi_v3_11_310basic_jsonISt3mapSt6vectorNSt7__cxx1112basic_stringIcSt11char_traitsIcESaIcEEEblmdSaNS0_14adl_serializerES3_IhSaIhEEvEC4ESt16initializer_listINS0_6detail8json_refISD_EEEbNSF_7value_tEENKUlRKSH_E_clESL_
FNL:84,20307,20310
FNA:84,42,_ZN8nlohmann16json_abi_v3_11_310basic_jsonISt3mapSt6vectorNSt7__cxx1112basic_stringIcSt11char_traitsIcESaIcEEEblmdSaNS0_14adl_serializerES3_IhSaIhEEvE5arrayESt16initializer_listINS0_6detail8json_refISD_EEE
FNL:85,20443,20443
FNA:85,0,_ZN8nlohmann16json_abi_v3_11_310basic_jsonISt3mapSt6vectorNSt7__cxx1112basic_stringIcSt11char_traitsIcESaIcEEEblmdSaNS0_14adl_serializerES3_IhSaIhEEvEC2INS0_6detail8json_refISD_EELi0EEERKT_
FNL:86,20447,20512
FNA:86,113,_ZN8nlohmann16json_abi_v3_11_310basic_jsonISt3mapSt6vectorNSt7__cxx1112basic_stringIcSt11char_traitsIcESaIcEEEblmdSaNS0_14adl_serializerES3_IhSaIhEEvEC2ERKSD_
FNL:87,20516,20529
FNA:87,434,_ZN8nlohmann16json_abi_v3_11_310basic_jsonISt3mapSt6vectorNSt7__cxx1112basic_stringIcSt11char_traitsIcESaIcEEEblmdSaNS0_14adl_serializerES3_IhSaIhEEvEC2EOSD_
FNL:88,20533,20552
FNA:88,42,_ZN8nlohmann16json_abi_v3_11_310basic_jsonISt3mapSt6vectorNSt7__cxx1112basic_stringIcSt11char_traitsIcESaIcEEEblmdSaNS0_14adl_serializerES3_IhSaIhEEvEaSESD_
FNL:89,20556,20559
FNA:89,697,_ZN8nlohmann16json_abi_v3_11_310basic_jsonISt3mapSt6vectorNSt7__cxx1112basic_stringIcSt11char_traitsIcESaIcEEEblmdSaNS0_14adl_serializerES3_IhSaIhEEvED2Ev
FNL:90,20574,20592
FNA:90,2,_ZNK8nlohmann16json_abi_v3_11_310basic_jsonISt3mapSt6vectorNSt7__cxx1112basic_stringIcSt11char_traitsIcESaIcEEEblmdSaNS0_14adl_serializerES3_IhSaIhEEvE4dumpEicbNS0_6detail15error_handler_tE
FNL:91,20610,20613
FNA:91,0,_ZNK8nlohmann16json_abi_v3_11_310basic_jsonISt3mapSt6vectorNSt7__cxx1112basic_stringIcSt11char_traitsIcESaIcEEEblmdSaNS0_14adl_serializerES3_IhSaIhEEvE13is_structuredEv
FNL:92,20617,20620
FNA:92,208,_ZNK8nlohmann16json_abi_v3_11_310basic_jsonISt3mapSt6vectorNSt7__cxx1112basic_stringIcSt11char_traitsIcESaIcEEEblmdSaNS0_14adl_serializerES3_IhSaIhEEvE7is_nullEv
FNL:93,20624,20627
FNA:93,0,_ZNK8nlohmann16json_abi_v3_11_310basic_jsonISt3mapSt6vectorNSt7__cxx1112basic_stringIcSt11char_traitsIcESaIcEEEblmdSaNS0_14adl_serializerES3_IhSaIhEEvE10is_booleanEv
FNL:94,20638,20641
FNA:94,6,_ZNK8nlohmann16json_abi_v3_11_310basic_jsonISt3mapSt6vectorNSt7__cxx1112basic_stringIcSt11char_traitsIcESaIcEEEblmdSaNS0_14adl_serializerES3_IhSaIhEEvE17is_number_integerEv
FNL:95,20645,20648
FNA:95,0,_ZNK8nlohmann16json_abi_v3_11_310basic_jsonISt3mapSt6vectorNSt7__cxx1112basic_stringIcSt11char_traitsIcESaIcEEEblmdSaNS0_14adl_serializerES3_IhSaIhEEvE18is_number_unsignedEv
FNL:96,20652,20655
FNA:96,0,_ZNK8nlohmann16json_abi_v3_11_310basic_jsonISt3mapSt6vectorNSt7__cxx1112basic_stringIcSt11char_traitsIcESaIcEEEblmdSaNS0_14adl_serializerES3_IhSaIhEEvE15is_number_floatEv
FNL:97,20659,20662
FNA:97,202,_ZNK8nlohmann16json_abi_v3_11_310basic_jsonISt3mapSt6vectorNSt7__cxx1112basic_stringIcSt11char_traitsIcESaIcEEEblmdSaNS0_14adl_serializerES3_IhSaIhEEvE9is_objectEv
FNL:98,20666,20669
FNA:98,257,_ZNK8nlohmann16json_abi_v3_11_310basic_jsonISt3mapSt6vectorNSt7__cxx1112basic_stringIcSt11char_traitsIcESaIcEEEblmdSaNS0_14adl_serializerES3_IhSaIhEEvE8is_arrayEv
FNL:99,20673,20676
FNA:99,44,_ZNK8nlohmann16json_abi_v3_11_310basic_jsonISt3mapSt6vectorNSt7__cxx1112basic_stringIcSt11char_traitsIcESaIcEEEblmdSaNS0_14adl_serializerES3_IhSaIhEEvE9is_stringEv
FNL:100,20680,20683
FNA:100,0,_ZNK8nlohmann16json_abi_v3_11_310basic_jsonISt3mapSt6vectorNSt7__cxx1112basic_stringIcSt11char_traitsIcESaIcEEEblmdSaNS0_14adl_serializerES3_IhSaIhEEvE9is_binaryEv
FNL:101,20687,20690
FNA:101,0,_ZNK8nlohmann16json_abi_v3_11_310basic_jsonISt3mapSt6vectorNSt7__cxx1112basic_stringIcSt11char_traitsIcESaIcEEEblmdSaNS0_14adl_serializerES3_IhSaIhEEvE12is_discardedEv
FNL:102,20694,20697
FNA:102,6,_ZNK8nlohmann16json_abi_v3_11_310basic_jsonISt3mapSt6vectorNSt7__cxx1112basic_stringIcSt11char_traitsIcESaIcEEEblmdSaNS0_14adl_serializerES3_IhSaIhEEvEcvNS0_6detail7value_tEEv
FNL:103,20748,20751
FNA:103,22,_ZNK8nlohmann16json_abi_v3_11_310basic_jsonISt3mapSt6vectorNSt7__cxx1112basic_stringIcSt11char_traitsIcESaIcEEEblmdSaNS0_14adl_serializerES3_IhSaIhEEvE12get_impl_ptrEPKS9_
FNL:104,20760,20763
FNA:104,0,_ZNK8nlohmann16json_abi_v3_11_310basic_jsonISt3mapSt6vectorNSt7__cxx1112basic_stringIcSt11char_traitsIcESaIcEEEblmdSaNS0_14adl_serializerES3_IhSaIhEEvE12get_impl_ptrEPKb
FNL:105,20772,20775
FNA:105,6,_ZNK8nlohmann16json_abi_v3_11_310basic_jsonISt3mapSt6vectorNSt7__cxx1112basic_stringIcSt11char_traitsIcESaIcEEEblmdSaNS0_14adl_serializerES3_IhSaIhEEvE12get_impl_ptrEPKl
FNL:106,20784,20787
FNA:106,0,_ZNK8nlohmann16json_abi_v3_11_310basic_jsonISt3mapSt6vectorNSt7__cxx1112basic_stringIcSt11char_traitsIcESaIcEEEblmdSaNS0_14adl_serializerES3_IhSaIhEEvE12get_impl_ptrEPKm
FNL:107,20796,20799
FNA:107,0,_ZNK8nlohmann16json_abi_v3_11_310basic_jsonISt3mapSt6vectorNSt7__cxx1112basic_stringIcSt11char_traitsIcESaIcEEEblmdSaNS0_14adl_serializerES3_IhSaIhEEvE12get_impl_ptrEPKd
FNL:108,20858,20862
FNA:108,22,_ZNK8nlohmann16json_abi_v3_11_310basic_jsonISt3mapSt6vectorNSt7__cxx1112basic_stringIcSt11char_traitsIcESaIcEEEblmdSaNS0_14adl_serializerES3_IhSaIhEEvE7get_ptrIPKS9_Li0EEEDTcldtclL_ZSt7declvalIRKSD_EDTcl9__declvalIT_ELi0EEEvEE12get_impl_ptrcl7declvalISK_EEEEv
FNA:108,0,_ZNK8nlohmann16json_abi_v3_11_310basic_jsonISt3mapSt6vectorNSt7__cxx1112basic_stringIcSt11char_traitsIcESaIcEEEblmdSaNS0_14adl_serializerES3_IhSaIhEEvE7get_ptrIPKbLi0EEEDTcldtclL_ZSt7declvalIRKSD_EDTcl9__declvalIT_ELi0EEEvEE12get_impl_ptrcl7declvalISK_EEEEv
FNA:108,0,_ZNK8nlohmann16json_abi_v3_11_310basic_jsonISt3mapSt6vectorNSt7__cxx1112basic_stringIcSt11char_traitsIcESaIcEEEblmdSaNS0_14adl_serializerES3_IhSaIhEEvE7get_ptrIPKdLi0EEEDTcldtclL_ZSt7declvalIRKSD_EDTcl9__declvalIT_ELi0EEEvEE12get_impl_ptrcl7declvalISK_EEEEv
FNA:108,6,_ZNK8nlohmann16json_abi_v3_11_310basic_jsonISt3mapSt6vectorNSt7__cxx1112basic_stringIcSt11char_traitsIcESaIcEEEblmdSaNS0_14adl_serializerES3_IhSaIhEEvE7get_ptrIPKlLi0EEEDTcldtclL_ZSt7declvalIRKSD_EDTcl9__declvalIT_ELi0EEEvEE12get_impl_ptrcl7declvalISK_EEEEv
FNA:108,0,_ZNK8nlohmann16json_abi_v3_11_310basic_jsonISt3mapSt6vectorNSt7__cxx1112basic_stringIcSt11char_traitsIcESaIcEEEblmdSaNS0_14adl_serializerES3_IhSaIhEEvE7get_ptrIPKmLi0EEEDTcldtclL_ZSt7declvalIRKSD_EDTcl9__declvalIT_ELi0EEEvEE12get_impl_ptrcl7declvalISK_EEEEv
FNL:109,20908,20914
FNA:109,2,_ZNK8nlohmann16json_abi_v3_11_310basic_jsonISt3mapSt6vectorNSt7__cxx1112basic_stringIcSt11char_traitsIcESaIcEEEblmdSaNS0_14adl_serializerES3_IhSaIhEEvE8get_implIS3_IS9_SaIS9_EELi0EEET_NS0_6detail12priority_tagILj0EEE
FNA:109,22,_ZNK8nlohmann16json_abi_v3_11_310basic_jsonISt3mapSt6vectorNSt7__cxx1112basic_stringIcSt11char_traitsIcESaIcEEEblmdSaNS0_14adl_serializerES3_IhSaIhEEvE8get_implIS9_Li0EEET_NS0_6detail12priority_tagILj0EEE
FNA:109,6,_ZNK8nlohmann16json_abi_v3_11_310basic_jsonISt3mapSt6vectorNSt7__cxx1112basic_stringIcSt11char_traitsIcESaIcEEEblmdSaNS0_14adl_serializerES3_IhSaIhEEvE8get_implIiLi0EEET_NS0_6detail12priority_tagILj0EEE
FNL:110,21046,21056
FNA:110,2,_ZNK8nlohmann16json_abi_v3_11_310basic_jsonISt3mapSt6vectorNSt7__cxx1112basic_stringIcSt11char_traitsIcESaIcEEEblmdSaNS0_14adl_serializerES3_IhSaIhEEvE3getIS3_IS9_SaIS9_EESG_EEDTcldtclL_ZSt7declvalIRKSD_EDTcl9__declvalIT_ELi0EEEvEE8get_implIT0_EtlNS0_6detail12priority_tagILj4EEEEEEv
FNA:110,22,_ZNK8nlohmann16json_abi_v3_11_310basic_jsonISt3mapSt6vectorNSt7__cxx1112basic_stringIcSt11char_traitsIcESaIcEEEblmdSaNS0_14adl_serializerES3_IhSaIhEEvE3getIS9_S9_EEDTcldtclL_ZSt7declvalIRKSD_EDTcl9__declvalIT_ELi0EEEvEE8get_implIT0_EtlNS0_6detail12priority_tagILj4EEEEEEv
FNA:110,6,_ZNK8nlohmann16json_abi_v3_11_310basic_jsonISt3mapSt6vectorNSt7__cxx1112basic_stringIcSt11char_traitsIcESaIcEEEblmdSaNS0_14adl_serializerES3_IhSaIhEEvE3getIiiEEDTcldtclL_ZSt7declvalIRKSD_EDTcl9__declvalIT_ELi0EEEvEE8get_implIT0_EtlNS0_6detail12priority_tagILj4EEEEEEv
FNL:111,21198,21202
FNA:111,8,_ZNK8nlohmann16json_abi_v3_11_310basic_jsonISt3mapSt6vectorNSt7__cxx1112basic_stringIcSt11char_traitsIcESaIcEEEblmdSaNS0_14adl_serializerES3_IhSaIhEEvEcvT_IS9_Li0EEEv
FNA:111,6,_ZNK8nlohmann16json_abi_v3_11_310basic_jsonISt3mapSt6vectorNSt7__cxx1112basic_stringIcSt11char_traitsIcESaIcEEEblmdSaNS0_14adl_serializerES3_IhSaIhEEvEcvT_IiLi0EEEv
FNL:112,21362,21404
FNA:112,32,_ZN8nlohmann16json_abi_v3_11_310basic_jsonISt3mapSt6vectorNSt7__cxx1112basic_stringIcSt11char_traitsIcESaIcEEEblmdSaNS0_14adl_serializerES3_IhSaIhEEvEixEm
FNL:113,21408,21417
FNA:113,0,_ZNK8nlohmann16json_abi_v3_11_310basic_jsonISt3mapSt6vectorNSt7__cxx1112basic_stringIcSt11char_traitsIcESaIcEEEblmdSaNS0_14adl_serializerES3_IhSaIhEEvEixEm
FNL:114,21421,21439
FNA:114,82,_ZN8nlohmann16json_abi_v3_11_310basic_jsonISt3mapSt6vectorNSt7__cxx1112basic_stringIcSt11char_traitsIcESaIcEEEblmdSaNS0_14adl_serializerES3_IhSaIhEEvEixES9_
FNL:115,21443,21454
FNA:115,24,_ZNK8nlohmann16json_abi_v3_11_310basic_jsonISt3mapSt6vectorNSt7__cxx1112basic_stringIcSt11char_traitsIcESaIcEEEblmdSaNS0_14adl_serializerES3_IhSaIhEEvEixERKS9_
FNL:116,21459,21462
FNA:116,82,_ZN8nlohmann16json_abi_v3_11_310basic_jsonISt3mapSt6vectorNSt7__cxx1112basic_stringIcSt11char_traitsIcESaIcEEEblmdSaNS0_14adl_serializerES3_IhSaIhEEvEixIKcEERSD_PT_
FNL:117,21465,21468
FNA:117,24,_ZNK8nlohmann16json_abi_v3_11_310basic_jsonISt3mapSt6vectorNSt7__cxx1112basic_stringIcSt11char_traitsIcESaIcEEEblmdSaNS0_14adl_serializerES3_IhSaIhEEvEixIKcEERKSD_PT_
FNL:118,21731,21794
FNA:118,0,_ZN8nlohmann16json_abi_v3_11_310basic_jsonISt3mapSt6vectorNSt7__cxx1112basic_stringIcSt11char_traitsIcESaIcEEEblmdSaNS0_14adl_serializerES3_IhSaIhEEvE5eraseINS0_6detail9iter_implISD_EELi0EEET_SI_
FNL:119,22070,22075
FNA:119,46,_ZN8nlohmann16json_abi_v3_11_310basic_jsonISt3mapSt6vectorNSt7__cxx1112basic_stringIcSt11char_traitsIcESaIcEEEblmdSaNS0_14adl_serializerES3_IhSaIhEEvE5beginEv
FNL:120,22079,22082
FNA:120,2,_ZNK8nlohmann16json_abi_v3_11_310basic_jsonISt3mapSt6vectorNSt7__cxx1112basic_stringIcSt11char_traitsIcESaIcEEEblmdSaNS0_14adl_serializerES3_IhSaIhEEvE5beginEv
FNL:121,22086,22091
FNA:121,2,_ZNK8nlohmann16json_abi_v3_11_310basic_jsonISt3mapSt6vectorNSt7__cxx1112basic_stringIcSt11char_traitsIcESaIcEEEblmdSaNS0_14adl_serializerES3_IhSaIhEEvE6cbeginEv
FNL:122,22095,22100
FNA:122,40,_ZN8nlohmann16json_abi_v3_11_310basic_jsonISt3mapSt6vectorNSt7__cxx1112basic_stringIcSt11char_traitsIcESaIcEEEblmdSaNS0_14adl_serializerES3_IhSaIhEEvE3endEv
FNL:123,22104,22107
FNA:123,2,_ZNK8nlohmann16json_abi_v3_11_310basic_jsonISt3mapSt6vectorNSt7__cxx1112basic_stringIcSt11char_traitsIcESaIcEEEblmdSaNS0_14adl_serializerES3_IhSaIhEEvE3endEv
FNL:124,22111,22116
FNA:124,2,_ZNK8nlohmann16json_abi_v3_11_310basic_jsonISt3mapSt6vectorNSt7__cxx1112basic_stringIcSt11char_traitsIcESaIcEEEblmdSaNS0_14adl_serializerES3_IhSaIhEEvE4cendEv
FNL:125,22120,22123
FNA:125,4,_ZN8nlohmann16json_abi_v3_11_310basic_jsonISt3mapSt6vectorNSt7__cxx1112basic_stringIcSt11char_traitsIcESaIcEEEblmdSaNS0_14adl_serializerES3_IhSaIhEEvE6rbeginEv
FNL:126,22134,22137
FNA:126,10,_ZN8nlohmann16json_abi_v3_11_310basic_jsonISt3mapSt6vectorNSt7__cxx1112basic_stringIcSt11char_traitsIcESaIcEEEblmdSaNS0_14adl_serializerES3_IhSaIhEEvE4rendEv
FNL:127,22247,22282
FNA:127,36,_ZNK8nlohmann16json_abi_v3_11_310basic_jsonISt3mapSt6vectorNSt7__cxx1112basic_stringIcSt11char_traitsIcESaIcEEEblmdSaNS0_14adl_serializerES3_IhSaIhEEvE4sizeEv
FNL:128,22286,22316
FNA:128,0,_ZNK8nlohmann16json_abi_v3_11_310basic_jsonISt3mapSt6vectorNSt7__cxx1112basic_stringIcSt11char_traitsIcESaIcEEEblmdSaNS0_14adl_serializerES3_IhSaIhEEvE8max_sizeEv
FNL:129,22390,22411
FNA:129,12,_ZN8nlohmann16json_abi_v3_11_310basic_jsonISt3mapSt6vectorNSt7__cxx1112basic_stringIcSt11char_traitsIcESaIcEEEblmdSaNS0_14adl_serializerES3_IhSaIhEEvE9push_backEOSD_
FNL:130,22423,22443
FNA:130,35,_ZN8nlohmann16json_abi_v3_11_310basic_jsonISt3mapSt6vectorNSt7__cxx1112basic_stringIcSt11char_traitsIcESaIcEEEblmdSaNS0_14adl_serializerES3_IhSaIhEEvE9push_backERKSD_
FNL:131,23317,23325
FNA:131,2,_ZN8nlohmann16json_abi_v3_11_310basic_jsonISt3mapSt6vectorNSt7__cxx1112basic_stringIcSt11char_traitsIcESaIcEEEblmdSaNS0_14adl_serializerES3_IhSaIhEEvE5parseIRKS9_EESD_OT_St8functionIFbiNS0_6detail13parse_event_tERSD_EEbb
FNL:132,23460,23484
FNA:132,0,_ZNK8nlohmann16json_abi_v3_11_310basic_jsonISt3mapSt6vectorNSt7__cxx1112basic_stringIcSt11char_traitsIcESaIcEEEblmdSaNS0_14adl_serializerES3_IhSaIhEEvE9type_nameEv
FNL:133,23499,23502
FNA:133,63,_ZN8nlohmann16json_abi_v3_11_310basic_jsonISt3mapSt6vectorNSt7__cxx1112basic_stringIcSt11char_traitsIcESaIcEEEblmdSaNS0_14adl_serializerES3_IhSaIhEEvE4dataC2ENS0_6detail7value_tE
FNL:134,23510,23510
FNA:134,200,_ZN8nlohmann16json_abi_v3_11_310basic_jsonISt3mapSt6vectorNSt7__cxx1112basic_stringIcSt11char_traitsIcESaIcEEEblmdSaNS0_14adl_serializerES3_IhSaIhEEvE4dataC2Ev
FNL:135,23516,23519
FNA:135,697,_ZN8nlohmann16json_abi_v3_11_310basic_jsonISt3mapSt6vectorNSt7__cxx1112basic_stringIcSt11char_traitsIcESaIcEEEblmdSaNS0_14adl_serializerES3_IhSaIhEEvE4dataD2Ev
FNL:136,2971,2980
FNA:136,0,_ZN8nlohmann16json_abi_v3_11_36detail17replace_substringINSt7__cxx1112basic_stringIcSt11char_traitsIcESaIcEEEEEvRT_RKS9_SC_
FNL:137,3005,3009
FNA:137,0,_ZN8nlohmann16json_abi_v3_11_36detailL8unescapeINSt7__cxx1112basic_stringIcSt11char_traitsIcESaIcEEEEEvRT_
FNL:138,3045,3048
FNA:138,0,_ZNK8nlohmann16json_abi_v3_11_36detail10position_tcvmEv
FNL:139,4234,4237
FNA:139,0,_ZN8nlohmann16json_abi_v3_11_36detail13concat_lengthEv
FNL:140,4246,4249
FNA:140,0,_ZN8nlohmann16json_abi_v3_11_36detail13concat_lengthIJEEEmcDpRKT_
FNA:140,0,_ZN8nlohmann16json_abi_v3_11_36detail13concat_lengthIJNSt7__cxx1112basic_stringIcSt11char_traitsIcESaIcEEEA3_cEEEmcDpRKT_
FNL:141,4252,4256
FNA:141,0,_ZN8nlohmann16json_abi_v3_11_36detail13concat_lengthIJA15_cNSt7__cxx1112basic_stringIcSt11char_traitsIcESaIcEEEcEEEmPKcDpRKT_
FNA:141,0,_ZN8nlohmann16json_abi_v3_11_36detail13concat_lengthIJEEEmPKcDpRKT_
FNA:141,0,_ZN8nlohmann16json_abi_v3_11_36detail13concat_lengthIJNSt7__cxx1112basic_stringIcSt11char_traitsIcESaIcEEEA10_cS8_EEEmPKcDpRKT_
FNA:141,0,_ZN8nlohmann16json_abi_v3_11_36detail13concat_lengthIJNSt7__cxx1112basic_stringIcSt11char_traitsIcESaIcEEEA3_cS8_S8_EEEmPKcDpRKT_
FNA:141,0,_ZN8nlohmann16json_abi_v3_11_36detail13concat_lengthIJNSt7__cxx1112basic_stringIcSt11char_traitsIcESaIcEEEA5_cS8_EEEmPKcDpRKT_
FNA:141,0,_ZN8nlohmann16json_abi_v3_11_36detail13concat_lengthIJNSt7__cxx1112basic_stringIcSt11char_traitsIcESaIcEEEEEEmPKcDpRKT_
FNA:141,0,_ZN8nlohmann16json_abi_v3_11_36detail13concat_lengthIJNSt7__cxx1112basic_stringIcSt11char_traitsIcESaIcEEES8_EEEmPKcDpRKT_
FNA:141,0,_ZN8nlohmann16json_abi_v3_11_36detail13concat_lengthIJNSt7__cxx1112basic_stringIcSt11char_traitsIcESaIcEEEcEEEmPKcDpRKT_
FNA:141,0,_ZN8nlohmann16json_abi_v3_11_36detail13concat_lengthIJNSt7__cxx1112basic_stringIcSt11char_traitsIcESaIcEEEcS8_A3_cEEEmPKcDpRKT_
FNA:141,0,_ZN8nlohmann16json_abi_v3_11_36detail13concat_lengthIJPKcEEEmS4_DpRKT_
FNL:142,4259,4262
FNA:142,0,_ZN8nlohmann16json_abi_v3_11_36detail13concat_lengthINSt7__cxx1112basic_stringIcSt11char_traitsIcESaIcEEEJA10_cS8_EEEmRKT_DpRKT0_
FNA:142,0,_ZN8nlohmann16json_abi_v3_11_36detail13concat_lengthINSt7__cxx1112basic_stringIcSt11char_traitsIcESaIcEEEJA12_cS8_A3_cS8_S8_EEEmRKT_DpRKT0_
FNA:142,0,_ZN8nlohmann16json_abi_v3_11_36detail13concat_lengthINSt7__cxx1112basic_stringIcSt11char_traitsIcESaIcEEEJA3_cEEEmRKT_DpRKT0_
FNA:142,0,_ZN8nlohmann16json_abi_v3_11_36detail13concat_lengthINSt7__cxx1112basic_stringIcSt11char_traitsIcESaIcEEEJA3_cS8_S8_EEEmRKT_DpRKT0_
FNA:142,0,_ZN8nlohmann16json_abi_v3_11_36detail13concat_lengthINSt7__cxx1112basic_stringIcSt11char_traitsIcESaIcEEEJA5_cS8_EEEmRKT_DpRKT0_
FNA:142,0,_ZN8nlohmann16json_abi_v3_11_36detail13concat_lengthINSt7__cxx1112basic_stringIcSt11char_traitsIcESaIcEEEJEEEmRKT_DpRKT0_
FNA:142,0,_ZN8nlohmann16json_abi_v3_11_36detail13concat_lengthINSt7__cxx1112basic_stringIcSt11char_traitsIcESaIcEEEJS8_EEEmRKT_DpRKT0_
FNA:142,0,_ZN8nlohmann16json_abi_v3_11_36detail13concat_lengthINSt7__cxx1112basic_stringIcSt11char_traitsIcESaIcEEEJS8_S8_EEEmRKT_DpRKT0_
FNA:142,0,_ZN8nlohmann16json_abi_v3_11_36detail13concat_lengthINSt7__cxx1112basic_stringIcSt11char_traitsIcESaIcEEEJcEEEmRKT_DpRKT0_
FNA:142,0,_ZN8nlohmann16json_abi_v3_11_36detail13concat_lengthINSt7__cxx1112basic_stringIcSt11char_traitsIcESaIcEEEJcS8_A3_cEEEmRKT_DpRKT0_
FNL:143,4265,4266
FNA:143,0,_ZN8nlohmann16json_abi_v3_11_36detail11concat_intoINSt7__cxx1112basic_stringIcSt11char_traitsIcESaIcEEEEEvRT_
FNL:144,4312,4316
FNA:144,0,_ZN8nlohmann16json_abi_v3_11_36detail11concat_intoINSt7__cxx1112basic_stringIcSt11char_traitsIcESaIcEEEPKcJELi0EEEvRT_OT0_DpOT1_
FNA:144,0,_ZN8nlohmann16json_abi_v3_11_36detail11concat_intoINSt7__cxx1112basic_stringIcSt11char_traitsIcESaIcEEEPKcJRA15_S9_S8_cELi0EEEvRT_OT0_DpOT1_
FNA:144,0,_ZN8nlohmann16json_abi_v3_11_36detail11concat_intoINSt7__cxx1112basic_stringIcSt11char_traitsIcESaIcEEERA10_KcJS8_ELi0EEEvRT_OT0_DpOT1_
FNA:144,0,_ZN8nlohmann16json_abi_v3_11_36detail11concat_intoINSt7__cxx1112basic_stringIcSt11char_traitsIcESaIcEEERA10_KcJS8_SB_S8_ELi0EEEvRT_OT0_DpOT1_
FNA:144,0,_ZN8nlohmann16json_abi_v3_11_36detail11concat_intoINSt7__cxx1112basic_stringIcSt11char_traitsIcESaIcEEERA12_KcJPS9_ELi0EEEvRT_OT0_DpOT1_
FNA:144,0,_ZN8nlohmann16json_abi_v3_11_36detail11concat_intoINSt7__cxx1112basic_stringIcSt11char_traitsIcESaIcEEERA12_KcJS8_RA3_S9_S8_RKS8_ELi0EEEvRT_OT0_DpOT1_
FNA:144,0,_ZN8nlohmann16json_abi_v3_11_36detail11concat_intoINSt7__cxx1112basic_stringIcSt11char_traitsIcESaIcEEERA15_KcJRKS8_cELi0EEEvRT_OT0_DpOT1_
FNA:144,0,_ZN8nlohmann16json_abi_v3_11_36detail11concat_intoINSt7__cxx1112basic_stringIcSt11char_traitsIcESaIcEEERA15_KcJS8_cELi0EEEvRT_OT0_DpOT1_
FNA:144,0,_ZN8nlohmann16json_abi_v3_11_36detail11concat_intoINSt7__cxx1112basic_stringIcSt11char_traitsIcESaIcEEERA17_KcJRKS8_cS8_RA3_S9_ELi0EEEvRT_OT0_DpOT1_
FNA:144,0,_ZN8nlohmann16json_abi_v3_11_36detail11concat_intoINSt7__cxx1112basic_stringIcSt11char_traitsIcESaIcEEERA23_KcJS8_ELi0EEEvRT_OT0_DpOT1_
FNA:144,0,_ZN8nlohmann16json_abi_v3_11_36detail11concat_intoINSt7__cxx1112basic_stringIcSt11char_traitsIcESaIcEEERA24_KcJS8_ELi0EEEvRT_OT0_DpOT1_
FNA:144,0,_ZN8nlohmann16json_abi_v3_11_36detail11concat_intoINSt7__cxx1112basic_stringIcSt11char_traitsIcESaIcEEERA25_KcJPS9_ELi0EEEvRT_OT0_DpOT1_
FNA:144,0,_ZN8nlohmann16json_abi_v3_11_36detail11concat_intoINSt7__cxx1112basic_stringIcSt11char_traitsIcESaIcEEERA26_KcJS8_cELi0EEEvRT_OT0_DpOT1_
FNA:144,0,_ZN8nlohmann16json_abi_v3_11_36detail11concat_intoINSt7__cxx1112basic_stringIcSt11char_traitsIcESaIcEEERA28_KcJPS9_ELi0EEEvRT_OT0_DpOT1_
FNA:144,0,_ZN8nlohmann16json_abi_v3_11_36detail11concat_intoINSt7__cxx1112basic_stringIcSt11char_traitsIcESaIcEEERA29_KcJPS9_ELi0EEEvRT_OT0_DpOT1_
FNA:144,0,_ZN8nlohmann16json_abi_v3_11_36detail11concat_intoINSt7__cxx1112basic_stringIcSt11char_traitsIcESaIcEEERA29_KcJS8_RA5_S9_S8_ELi0EEEvRT_OT0_DpOT1_
FNA:144,0,_ZN8nlohmann16json_abi_v3_11_36detail11concat_intoINSt7__cxx1112basic_stringIcSt11char_traitsIcESaIcEEERA39_KcJS8_ELi0EEEvRT_OT0_DpOT1_
FNA:144,0,_ZN8nlohmann16json_abi_v3_11_36detail11concat_intoINSt7__cxx1112basic_stringIcSt11char_traitsIcESaIcEEERA3_KcJELi0EEEvRT_OT0_DpOT1_
FNA:144,0,_ZN8nlohmann16json_abi_v3_11_36detail11concat_intoINSt7__cxx1112basic_stringIcSt11char_traitsIcESaIcEEERA3_KcJS8_RKS8_ELi0EEEvRT_OT0_DpOT1_
FNA:144,0,_ZN8nlohmann16json_abi_v3_11_36detail11concat_intoINSt7__cxx1112basic_stringIcSt11char_traitsIcESaIcEEERA51_KcJPS9_ELi0EEEvRT_OT0_DpOT1_
FNA:144,0,_ZN8nlohmann16json_abi_v3_11_36detail11concat_intoINSt7__cxx1112basic_stringIcSt11char_traitsIcESaIcEEERA52_KcJPS9_ELi0EEEvRT_OT0_DpOT1_
FNA:144,0,_ZN8nlohmann16json_abi_v3_11_36detail11concat_intoINSt7__cxx1112basic_stringIcSt11char_traitsIcESaIcEEERA5_KcJS8_ELi0EEEvRT_OT0_DpOT1_
FNA:144,0,_ZN8nlohmann16json_abi_v3_11_36detail11concat_intoINSt7__cxx1112basic_stringIcSt11char_traitsIcESaIcEEERKS8_JELi0EEEvRT_OT0_DpOT1_
FNA:144,0,_ZN8nlohmann16json_abi_v3_11_36detail11concat_intoINSt7__cxx1112basic_stringIcSt11char_traitsIcESaIcEEERKS8_JcELi0EEEvRT_OT0_DpOT1_
FNA:144,0,_ZN8nlohmann16json_abi_v3_11_36detail11concat_intoINSt7__cxx1112basic_stringIcSt11char_traitsIcESaIcEEERKS8_JcS8_RA3_KcELi0EEEvRT_OT0_DpOT1_
FNA:144,0,_ZN8nlohmann16json_abi_v3_11_36detail11concat_intoINSt7__cxx1112basic_stringIcSt11char_traitsIcESaIcEEES8_JELi0EEEvRT_OT0_DpOT1_
FNA:144,0,_ZN8nlohmann16json_abi_v3_11_36detail11concat_intoINSt7__cxx1112basic_stringIcSt11char_traitsIcESaIcEEES8_JRA10_KcS8_ELi0EEEvRT_OT0_DpOT1_
FNA:144,0,_ZN8nlohmann16json_abi_v3_11_36detail11concat_intoINSt7__cxx1112basic_stringIcSt11char_traitsIcESaIcEEES8_JRA12_KcS8_RA3_S9_S8_RKS8_ELi0EEEvRT_OT0_DpOT1_
FNA:144,0,_ZN8nlohmann16json_abi_v3_11_36detail11concat_intoINSt7__cxx1112basic_stringIcSt11char_traitsIcESaIcEEES8_JRA3_KcELi0EEEvRT_OT0_DpOT1_
FNA:144,0,_ZN8nlohmann16json_abi_v3_11_36detail11concat_intoINSt7__cxx1112basic_stringIcSt11char_traitsIcESaIcEEES8_JRA3_KcS8_RKS8_ELi0EEEvRT_OT0_DpOT1_
FNA:144,0,_ZN8nlohmann16json_abi_v3_11_36detail11concat_intoINSt7__cxx1112basic_stringIcSt11char_traitsIcESaIcEEES8_JRA5_KcS8_ELi0EEEvRT_OT0_DpOT1_
FNA:144,0,_ZN8nlohmann16json_abi_v3_11_36detail11concat_intoINSt7__cxx1112basic_stringIcSt11char_traitsIcESaIcEEES8_JRKS8_ELi0EEEvRT_OT0_DpOT1_
FNA:144,0,_ZN8nlohmann16json_abi_v3_11_36detail11concat_intoINSt7__cxx1112basic_stringIcSt11char_traitsIcESaIcEEES8_JS8_RKS8_ELi0EEEvRT_OT0_DpOT1_
FNA:144,0,_ZN8nlohmann16json_abi_v3_11_36detail11concat_intoINSt7__cxx1112basic_stringIcSt11char_traitsIcESaIcEEES8_JcELi0EEEvRT_OT0_DpOT1_
FNL:145,4321,4325
FNA:145,0,_ZN8nlohmann16json_abi_v3_11_36detail11concat_intoINSt7__cxx1112basic_stringIcSt11char_traitsIcESaIcEEEcJELi0EEEvRT_OT0_DpOT1_
FNA:145,0,_ZN8nlohmann16json_abi_v3_11_36detail11concat_intoINSt7__cxx1112basic_stringIcSt11char_traitsIcESaIcEEEcJS8_RA3_KcELi0EEEvRT_OT0_DpOT1_
FNL:146,4349,4355
FNA:146,0,_ZN8nlohmann16json_abi_v3_11_36detail6concatINSt7__cxx1112basic_stringIcSt11char_traitsIcESaIcEEEJPKcRA15_S9_S8_cEEET_DpOT0_
FNA:146,0,_ZN8nlohmann16json_abi_v3_11_36detail6concatINSt7__cxx1112basic_stringIcSt11char_traitsIcESaIcEEEJRA10_KcS8_SB_S8_EEET_DpOT0_
FNA:146,0,_ZN8nlohmann16json_abi_v3_11_36detail6concatINSt7__cxx1112basic_stringIcSt11char_traitsIcESaIcEEEJRA12_KcPS9_EEET_DpOT0_
FNA:146,0,_ZN8nlohmann16json_abi_v3_11_36detail6concatINSt7__cxx1112basic_stringIcSt11char_traitsIcESaIcEEEJRA15_KcRKS8_cEEET_DpOT0_
FNA:146,0,_ZN8nlohmann16json_abi_v3_11_36detail6concatINSt7__cxx1112basic_stringIcSt11char_traitsIcESaIcEEEJRA17_KcRKS8_cS8_RA3_S9_EEET_DpOT0_
FNA:146,0,_ZN8nlohmann16json_abi_v3_11_36detail6concatINSt7__cxx1112basic_stringIcSt11char_traitsIcESaIcEEEJRA23_KcS8_EEET_DpOT0_
FNA:146,0,_ZN8nlohmann16json_abi_v3_11_36detail6concatINSt7__cxx1112basic_stringIcSt11char_traitsIcESaIcEEEJRA24_KcS8_EEET_DpOT0_
FNA:146,0,_ZN8nlohmann16json_abi_v3_11_36detail6concatINSt7__cxx1112basic_stringIcSt11char_traitsIcESaIcEEEJRA25_KcPS9_EEET_DpOT0_
FNA:146,0,_ZN8nlohmann16json_abi_v3_11_36detail6concatINSt7__cxx1112basic_stringIcSt11char_traitsIcESaIcEEEJRA26_KcS8_cEEET_DpOT0_
FNA:146,0,_ZN8nlohmann16json_abi_v3_11_36detail6concatINSt7__cxx1112basic_stringIcSt11char_traitsIcESaIcEEEJRA28_KcPS9_EEET_DpOT0_
FNA:146,0,_ZN8nlohmann16json_abi_v3_11_36detail6concatINSt7__cxx1112basic_stringIcSt11char_traitsIcESaIcEEEJRA29_KcPS9_EEET_DpOT0_
FNA:146,0,_ZN8nlohmann16json_abi_v3_11_36detail6concatINSt7__cxx1112basic_stringIcSt11char_traitsIcESaIcEEEJRA29_KcS8_RA5_S9_S8_EEET_DpOT0_
FNA:146,0,_ZN8nlohmann16json_abi_v3_11_36detail6concatINSt7__cxx1112basic_stringIcSt11char_traitsIcESaIcEEEJRA39_KcS8_EEET_DpOT0_
FNA:146,0,_ZN8nlohmann16json_abi_v3_11_36detail6concatINSt7__cxx1112basic_stringIcSt11char_traitsIcESaIcEEEJRA51_KcPS9_EEET_DpOT0_
FNA:146,0,_ZN8nlohmann16json_abi_v3_11_36detail6concatINSt7__cxx1112basic_stringIcSt11char_traitsIcESaIcEEEJRA52_KcPS9_EEET_DpOT0_
FNA:146,0,_ZN8nlohmann16json_abi_v3_11_36detail6concatINSt7__cxx1112basic_stringIcSt11char_traitsIcESaIcEEEJS8_RA12_KcS8_RA3_S9_S8_RKS8_EEET_DpOT0_
FNA:146,0,_ZN8nlohmann16json_abi_v3_11_36detail6concatINSt7__cxx1112basic_stringIcSt11char_traitsIcESaIcEEEJS8_S8_RKS8_EEET_DpOT0_
FNL:147,4375,4378
FNA:147,0,_ZNK8nlohmann16json_abi_v3_11_36detail9exception4whatEv
FNL:148,4385,4385
FNA:148,0,_ZN8nlohmann16json_abi_v3_11_36detail9exceptionC2EiPKc
FNL:149,4387,4390
FNA:149,0,_ZN8nlohmann16json_abi_v3_11_36detail9exception4nameERKNSt7__cxx1112basic_stringIcSt11char_traitsIcESaIcEEEi
FNL:150,4392,4395
FNA:150,0,_ZN8nlohmann16json_abi_v3_11_36detail9exception11diagnosticsB5cxx11EDn
FNL:151,4398,4460
FNA:151,0,_ZN8nlohmann16json_abi_v3_11_36detail9exception11diagnosticsINS0_10basic_jsonISt3mapSt6vectorNSt7__cxx1112basic_stringIcSt11char_traitsIcESaIcEEEblmdSaNS0_14adl_serializerES6_IhSaIhEEvEEEESC_PKT_
FNL:152,4482,4487
FNA:152,0,_ZN8nlohmann16json_abi_v3_11_36detail11parse_error6createIDnLi0EEES2_iRKNS1_10position_tERKNSt7__cxx1112basic_stringIcSt11char_traitsIcESaIcEEET_
FNL:153,4510,4511
FNA:153,0,_ZN8nlohmann16json_abi_v3_11_36detail11parse_errorC2EimPKc
FNL:154,4513,4517
FNA:154,0,_ZN8nlohmann16json_abi_v3_11_36detail11parse_error15position_stringB5cxx11ERKNS1_10position_tE
FNL:155,4526,4530
FNA:155,0,_ZN8nlohmann16json_abi_v3_11_36detail16invalid_iterator6createIPKNS0_10basic_jsonISt3mapSt6vectorNSt7__cxx1112basic_stringIcSt11char_traitsIcESaIcEEEblmdSaNS0_14adl_serializerES6_IhSaIhEEvEELi0EEES2_iRKSC_T_
FNA:155,0,_ZN8nlohmann16json_abi_v3_11_36detail16invalid_iterator6createIPNS0_10basic_jsonISt3mapSt6vectorNSt7__cxx1112basic_stringIcSt11char_traitsIcESaIcEEEblmdSaNS0_14adl_serializerES6_IhSaIhEEvEELi0EEES2_iRKSC_T_
FNL:156,4534,4535
FNA:156,0,_ZN8nlohmann16json_abi_v3_11_36detail16invalid_iteratorC2EiPKc
FNL:157,4544,4548
FNA:157,0,_ZN8nlohmann16json_abi_v3_11_36detail10type_error6createIDnLi0EEES2_iRKNSt7__cxx1112basic_stringIcSt11char_traitsIcESaIcEEET_
FNA:157,0,_ZN8nlohmann16json_abi_v3_11_36detail10type_error6createIPKNS0_10basic_jsonISt3mapSt6vectorNSt7__cxx1112basic_stringIcSt11char_traitsIcESaIcEEEblmdSaNS0_14adl_serializerES6_IhSaIhEEvEELi0EEES2_iRKSC_T_
FNA:157,0,_ZN8nlohmann16json_abi_v3_11_36detail10type_error6createIPNS0_10basic_jsonISt3mapSt6vectorNSt7__cxx1112basic_stringIcSt11char_traitsIcESaIcEEEblmdSaNS0_14adl_serializerES6_IhSaIhEEvEELi0EEES2_iRKSC_T_
FNL:158,4552,4552
FNA:158,0,_ZN8nlohmann16json_abi_v3_11_36detail10type_errorC2EiPKc
FNL:159,4561,4565
FNA:159,0,_ZN8nlohmann16json_abi_v3_11_36detail12out_of_range6createIDnLi0EEES2_iRKNSt7__cxx1112basic_stringIcSt11char_traitsIcESaIcEEET_
FNA:159,0,_ZN8nlohmann16json_abi_v3_11_36detail12out_of_range6createIPNS0_10basic_jsonISt3mapSt6vectorNSt7__cxx1112basic_stringIcSt11char_traitsIcESaIcEEEblmdSaNS0_14adl_serializerES6_IhSaIhEEvEELi0EEES2_iRKSC_T_
FNL:160,4569,4569
FNA:160,0,_ZN8nlohmann16json_abi_v3_11_36detail12out_of_rangeC2EiPKc
FNL:161,4578,4582
FNA:161,0,_ZN8nlohmann16json_abi_v3_11_36detail11other_error6createIDnLi0EEES2_iRKNSt7__cxx1112basic_stringIcSt11char_traitsIcESaIcEEET_
FNL:162,4586,4586
FNA:162,0,_ZN8nlohmann16json_abi_v3_11_36detail11other_errorC2EiPKc
FNL:163,4721,4728
FNA:163,22,_ZN8nlohmann16json_abi_v3_11_36detail9from_jsonINS0_10basic_jsonISt3mapSt6vectorNSt7__cxx1112basic_stringIcSt11char_traitsIcESaIcEEEblmdSaNS0_14adl_serializerES5_IhSaIhEEvEEEEvRKT_RNSG_8string_tE
FNL:164,4841,4859
FNA:164,2,_ZN8nlohmann16json_abi_v3_11_36detail20from_json_array_implINS0_10basic_jsonISt3mapSt6vectorNSt7__cxx1112basic_stringIcSt11char_traitsIcESaIcEEEblmdSaNS0_14adl_serializerES5_IhSaIhEEvEES5_ISB_SaISB_EELi0EEEDTcmcmcldtfp0_7reservecl7declvalINT0_9size_typeEEEEcldtfp_3getINSI_10value_typeEEEcvv_EERKT_RSI_NS1_12priority_tagILj1EEE
FNL:165,4852,4852
FNA:165,2,_ZZN8nlohmann16json_abi_v3_11_36detail20from_json_array_implINS0_10basic_jsonISt3mapSt6vectorNSt7__cxx1112basic_stringIcSt11char_traitsIcESaIcEEEblmdSaNS0_14adl_serializerES5_IhSaIhEEvEES5_ISB_SaISB_EELi0EEEDTcmcmcldtfp0_7reservecl7declvalINT0_9size_typeEEEEcldtfp_3getINSI_10value_typeEEEcvv_EERKT_RSI_NS1_12priority_tagILj1EEEENKUlRKSF_E_clEST_
FNL:166,4890,4901
FNA:166,2,_ZN8nlohmann16json_abi_v3_11_36detail9from_jsonINS0_10basic_jsonISt3mapSt6vectorNSt7__cxx1112basic_stringIcSt11char_traitsIcESaIcEEEblmdSaNS0_14adl_serializerES5_IhSaIhEEvEES5_ISB_SaISB_EELi0EEEDTcmcmcl20from_json_array_implfp_fp0_tlNS1_12priority_tagILj3EEEEEcldtfp_3getINT0_10value_typeEEEcvv_EERKT_RSK_
FNL:167,4967,5001
FNA:167,6,_ZN8nlohmann16json_abi_v3_11_36detail9from_jsonINS0_10basic_jsonISt3mapSt6vectorNSt7__cxx1112basic_stringIcSt11char_traitsIcESaIcEEEblmdSaNS0_14adl_serializerES5_IhSaIhEEvEEiLi0EEEvRKT_RT0_
FNL:168,5101,5106
FNA:168,2,_ZNK8nlohmann16json_abi_v3_11_36detail12from_json_fnclINS0_10basic_jsonISt3mapSt6vectorNSt7__cxx1112basic_stringIcSt11char_traitsIcESaIcEEEblmdSaNS0_14adl_serializerES6_IhSaIhEEvEERS6_ISC_SaISC_EEEEDTcl9from_jsonfp_cl7forwardIT0_Efp0_EEERKT_OSK_
FNA:168,22,_ZNK8nlohmann16json_abi_v3_11_36detail12from_json_fnclINS0_10basic_jsonISt3mapSt6vectorNSt7__cxx1112basic_stringIcSt11char_traitsIcESaIcEEEblmdSaNS0_14adl_serializerES6_IhSaIhEEvEERSC_EEDTcl9from_jsonfp_cl7forwardIT0_Efp0_EEERKT_OSI_
FNA:168,6,_ZNK8nlohmann16json_abi_v3_11_36detail12from_json_fnclINS0_10basic_jsonISt3mapSt6vectorNSt7__cxx1112basic_stringIcSt11char_traitsIcESaIcEEEblmdSaNS0_14adl_serializerES6_IhSaIhEEvEERiEEDTcl9from_jsonfp_cl7forwardIT0_Efp0_EEERKT_OSI_
FNL:169,5425,5431
FNA:169,2,_ZN8nlohmann16json_abi_v3_11_36detail20external_constructorILNS1_7value_tE4EE9constructINS0_10basic_jsonISt3mapSt6vectorNSt7__cxx1112basic_stringIcSt11char_traitsIcESaIcEEEblmdSaNS0_14adl_serializerES8_IhSaIhEEvEEEEvRT_NSJ_9boolean_tE
FNL:170,5438,5444
FNA:170,25,_ZN8nlohmann16json_abi_v3_11_36detail20external_constructorILNS1_7value_tE3EE9constructINS0_10basic_jsonISt3mapSt6vectorNSt7__cxx1112basic_stringIcSt11char_traitsIcESaIcEEEblmdSaNS0_14adl_serializerES8_IhSaIhEEvEEEEvRT_RKNSJ_8string_tE
FNL:171,5493,5499
FNA:171,0,_ZN8nlohmann16json_abi_v3_11_36detail20external_constructorILNS1_7value_tE7EE9constructINS0_10basic_jsonISt3mapSt6vectorNSt7__cxx1112basic_stringIcSt11char_traitsIcESaIcEEEblmdSaNS0_14adl_serializerES8_IhSaIhEEvEEEEvRT_NSJ_14number_float_tE
FNL:172,5506,5512
FNA:172,2,_ZN8nlohmann16json_abi_v3_11_36detail20external_constructorILNS1_7value_tE6EE9constructINS0_10basic_jsonISt3mapSt6vectorNSt7__cxx1112basic_stringIcSt11char_traitsIcESaIcEEEblmdSaNS0_14adl_serializerES8_IhSaIhEEvEEEEvRT_NSJ_17number_unsigned_tE
FNL:173,5519,5525
FNA:173,14,_ZN8nlohmann16json_abi_v3_11_36detail20external_constructorILNS1_7value_tE5EE9constructINS0_10basic_jsonISt3mapSt6vectorNSt7__cxx1112basic_stringIcSt11char_traitsIcESaIcEEEblmdSaNS0_14adl_serializerES8_IhSaIhEEvEEEEvRT_NSJ_16number_integer_tE
FNL:174,5554,5564
FNA:174,2,_ZN8nlohmann16json_abi_v3_11_36detail20external_constructorILNS1_7value_tE2EE9constructINS0_10basic_jsonISt3mapSt6vectorNSt7__cxx1112basic_stringIcSt11char_traitsIcESaIcEEEblmdSaNS0_14adl_serializerES8_IhSaIhEEvEES8_ISE_SaISE_EELi0EEEvRT_RKT0_
FNL:175,5642,5645
FNA:175,2,_ZN8nlohmann16json_abi_v3_11_36detail7to_jsonINS0_10basic_jsonISt3mapSt6vectorNSt7__cxx1112basic_stringIcSt11char_traitsIcESaIcEEEblmdSaNS0_14adl_serializerES5_IhSaIhEEvEEbLi0EEEvRT_T0_
FNL:176,5662,5665
FNA:176,25,_ZN8nlohmann16json_abi_v3_11_36detail7to_jsonINS0_10basic_jsonISt3mapSt6vectorNSt7__cxx1112basic_stringIcSt11char_traitsIcESaIcEEEblmdSaNS0_14adl_serializerES5_IhSaIhEEvEESB_Li0EEEvRT_RKT0_
FNL:177,5675,5678
FNA:177,0,_ZN8nlohmann16json_abi_v3_11_36detail7to_jsonINS0_10basic_jsonISt3mapSt6vectorNSt7__cxx1112basic_stringIcSt11char_traitsIcESaIcEEEblmdSaNS0_14adl_serializerES5_IhSaIhEEvEEdLi0EEEvRT_T0_
FNL:178,5682,5685
FNA:178,2,_ZN8nlohmann16json_abi_v3_11_36detail7to_jsonINS0_10basic_jsonISt3mapSt6vectorNSt7__cxx1112basic_stringIcSt11char_traitsIcESaIcEEEblmdSaNS0_14adl_serializerES5_IhSaIhEEvEEmLi0EEEvRT_T0_
FNL:179,5689,5692
FNA:179,14,_ZN8nlohmann16json_abi_v3_11_36detail7to_jsonINS0_10basic_jsonISt3mapSt6vectorNSt7__cxx1112basic_stringIcSt11char_traitsIcESaIcEEEblmdSaNS0_14adl_serializerES5_IhSaIhEEvEEiLi0EEEvRT_T0_
FNA:179,0,_ZN8nlohmann16json_abi_v3_11_36detail7to_jsonINS0_10basic_jsonISt3mapSt6vectorNSt7__cxx1112basic_stringIcSt11char_traitsIcESaIcEEEblmdSaNS0_14adl_serializerES5_IhSaIhEEvEElLi0EEEvRT_T0_
FNL:180,5718,5721
FNA:180,2,_ZN8nlohmann16json_abi_v3_11_36detail7to_jsonINS0_10basic_jsonISt3mapSt6vectorNSt7__cxx1112basic_stringIcSt11char_traitsIcESaIcEEEblmdSaNS0_14adl_serializerES5_IhSaIhEEvEES5_ISB_SaISB_EELi0EEEvRT_RKT0_
FNL:181,5802,5806
FNA:181,2,_ZNK8nlohmann16json_abi_v3_11_36detail10to_json_fnclINS0_10basic_jsonISt3mapSt6vectorNSt7__cxx1112basic_stringIcSt11char_traitsIcESaIcEEEblmdSaNS0_14adl_serializerES6_IhSaIhEEvEERKS6_ISC_SaISC_EEEEDTcmcl7to_jsonfp_cl7forwardIT0_Efp0_EEcvv_EERT_OSL_
FNA:181,8,_ZNK8nlohmann16json_abi_v3_11_36detail10to_json_fnclINS0_10basic_jsonISt3mapSt6vectorNSt7__cxx1112basic_stringIcSt11char_traitsIcESaIcEEEblmdSaNS0_14adl_serializerES6_IhSaIhEEvEERKSC_EEDTcmcl7to_jsonfp_cl7forwardIT0_Efp0_EEcvv_EERT_OSJ_
FNA:181,14,_ZNK8nlohmann16json_abi_v3_11_36detail10to_json_fnclINS0_10basic_jsonISt3mapSt6vectorNSt7__cxx1112basic_stringIcSt11char_traitsIcESaIcEEEblmdSaNS0_14adl_serializerES6_IhSaIhEEvEERKiEEDTcmcl7to_jsonfp_cl7forwardIT0_Efp0_EEcvv_EERT_OSJ_
FNA:181,17,_ZNK8nlohmann16json_abi_v3_11_36detail10to_json_fnclINS0_10basic_jsonISt3mapSt6vectorNSt7__cxx1112basic_stringIcSt11char_traitsIcESaIcEEEblmdSaNS0_14adl_serializerES6_IhSaIhEEvEERSC_EEDTcmcl7to_jsonfp_cl7forwardIT0_Efp0_EEcvv_EERT_OSI_
FNA:181,0,_ZNK8nlohmann16json_abi_v3_11_36detail10to_json_fnclINS0_10basic_jsonISt3mapSt6vectorNSt7__cxx1112basic_stringIcSt11char_traitsIcESaIcEEEblmdSaNS0_14adl_serializerES6_IhSaIhEEvEERbEEDTcmcl7to_jsonfp_cl7forwardIT0_Efp0_EEcvv_EERT_OSI_
FNA:181,0,_ZNK8nlohmann16json_abi_v3_11_36detail10to_json_fnclINS0_10basic_jsonISt3mapSt6vectorNSt7__cxx1112basic_stringIcSt11char_traitsIcESaIcEEEblmdSaNS0_14adl_serializerES6_IhSaIhEEvEERdEEDTcmcl7to_jsonfp_cl7forwardIT0_Efp0_EEcvv_EERT_OSI_
FNA:181,0,_ZNK8nlohmann16json_abi_v3_11_36detail10to_json_fnclINS0_10basic_jsonISt3mapSt6vectorNSt7__cxx1112basic_stringIcSt11char_traitsIcESaIcEEEblmdSaNS0_14adl_serializerES6_IhSaIhEEvEERlEEDTcmcl7to_jsonfp_cl7forwardIT0_Efp0_EEcvv_EERT_OSI_
FNA:181,2,_ZNK8nlohmann16json_abi_v3_11_36detail10to_json_fnclINS0_10basic_jsonISt3mapSt6vectorNSt7__cxx1112basic_stringIcSt11char_traitsIcESaIcEEEblmdSaNS0_14adl_serializerES6_IhSaIhEEvEERmEEDTcmcl7to_jsonfp_cl7forwardIT0_Efp0_EEcvv_EERT_OSI_
FNA:181,2,_ZNK8nlohmann16json_abi_v3_11_36detail10to_json_fnclINS0_10basic_jsonISt3mapSt6vectorNSt7__cxx1112basic_stringIcSt11char_traitsIcESaIcEEEblmdSaNS0_14adl_serializerES6_IhSaIhEEvEEbEEDTcmcl7to_jsonfp_cl7forwardIT0_Efp0_EEcvv_EERT_OSH_
FNL:182,5837,5842
FNA:182,22,_ZN8nlohmann16json_abi_v3_11_314adl_serializerINSt7__cxx1112basic_stringIcSt11char_traitsIcESaIcEEEvE9from_jsonIRKNS0_10basic_jsonISt3mapSt6vectorS7_blmdSaS1_SC_IhSaIhEEvEES7_EEDTcmclL_ZNS0_9from_jsonEEcl7forwardIT_Efp_Efp0_Ecvv_EEOSI_RT0_
FNA:182,2,_ZN8nlohmann16json_abi_v3_11_314adl_serializerISt6vectorINSt7__cxx1112basic_stringIcSt11char_traitsIcESaIcEEESaIS8_EEvE9from_jsonIRKNS0_10basic_jsonISt3mapS2_S8_blmdSaS1_S2_IhSaIhEEvEESA_EEDTcmclL_ZNS0_9from_jsonEEcl7forwardIT_Efp_Efp0_Ecvv_EEOSK_RT0_
FNA:182,6,_ZN8nlohmann16json_abi_v3_11_314adl_serializerIivE9from_jsonIRKNS0_10basic_jsonISt3mapSt6vectorNSt7__cxx1112basic_stringIcSt11char_traitsIcESaIcEEEblmdSaS1_S6_IhSaIhEEvEEiEEDTcmclL_ZNS0_9from_jsonEEcl7forwardIT_Efp_Efp0_Ecvv_EEOSI_RT0_
FNL:183,5857,5862
FNA:183,8,_ZN8nlohmann16json_abi_v3_11_314adl_serializerINSt7__cxx1112basic_stringIcSt11char_traitsIcESaIcEEEvE7to_jsonINS0_10basic_jsonISt3mapSt6vectorS7_blmdSaS1_SC_IhSaIhEEvEERKS7_EEDTcmclL_ZNS0_7to_jsonEEfp_cl7forwardIT0_Efp0_EEcvv_EERT_OSI_
FNA:183,17,_ZN8nlohmann16json_abi_v3_11_314adl_serializerINSt7__cxx1112basic_stringIcSt11char_traitsIcESaIcEEEvE7to_jsonINS0_10basic_jsonISt3mapSt6vectorS7_blmdSaS1_SC_IhSaIhEEvEERS7_EEDTcmclL_ZNS0_7to_jsonEEfp_cl7forwardIT0_Efp0_EEcvv_EERT_OSH_
FNA:183,2,_ZN8nlohmann16json_abi_v3_11_314adl_serializerISt6vectorINSt7__cxx1112basic_stringIcSt11char_traitsIcESaIcEEESaIS8_EEvE7to_jsonINS0_10basic_jsonISt3mapS2_S8_blmdSaS1_S2_IhSaIhEEvEERKSA_EEDTcmclL_ZNS0_7to_jsonEEfp_cl7forwardIT0_Efp0_EEcvv_EERT_OSK_
FNA:183,0,_ZN8nlohmann16json_abi_v3_11_314adl_serializerIbvE7to_jsonINS0_10basic_jsonISt3mapSt6vectorNSt7__cxx1112basic_stringIcSt11char_traitsIcESaIcEEEblmdSaS1_S6_IhSaIhEEvEERbEEDTcmclL_ZNS0_7to_jsonEEfp_cl7forwardIT0_Efp0_EEcvv_EERT_OSH_
FNA:183,2,_ZN8nlohmann16json_abi_v3_11_314adl_serializerIbvE7to_jsonINS0_10basic_jsonISt3mapSt6vectorNSt7__cxx1112basic_stringIcSt11char_traitsIcESaIcEEEblmdSaS1_S6_IhSaIhEEvEEbEEDTcmclL_ZNS0_7to_jsonEEfp_cl7forwardIT0_Efp0_EEcvv_EERT_OSG_
FNA:183,0,_ZN8nlohmann16json_abi_v3_11_314adl_serializerIdvE7to_jsonINS0_10basic_jsonISt3mapSt6vectorNSt7__cxx1112basic_stringIcSt11char_traitsIcESaIcEEEblmdSaS1_S6_IhSaIhEEvEERdEEDTcmclL_ZNS0_7to_jsonEEfp_cl7forwardIT0_Efp0_EEcvv_EERT_OSH_
FNA:183,14,_ZN8nlohmann16json_abi_v3_11_314adl_serializerIivE7to_jsonINS0_10basic_jsonISt3mapSt6vectorNSt7__cxx1112basic_stringIcSt11char_traitsIcESaIcEEEblmdSaS1_S6_IhSaIhEEvEERKiEEDTcmclL_ZNS0_7to_jsonEEfp_cl7forwardIT0_Efp0_EEcvv_EERT_OSI_
FNA:183,0,_ZN8nlohmann16json_abi_v3_11_314adl_serializerIlvE7to_jsonINS0_10basic_jsonISt3mapSt6vectorNSt7__cxx1112basic_stringIcSt11char_traitsIcESaIcEEEblmdSaS1_S6_IhSaIhEEvEERlEEDTcmclL_ZNS0_7to_jsonEEfp_cl7forwardIT0_Efp0_EEcvv_EERT_OSH_
FNA:183,2,_ZN8nlohmann16json_abi_v3_11_314adl_serializerImvE7to_jsonINS0_10basic_jsonISt3mapSt6vectorNSt7__cxx1112basic_stringIcSt11char_traitsIcESaIcEEEblmdSaS1_S6_IhSaIhEEvEERmEEDTcmclL_ZNS0_7to_jsonEEfp_cl7forwardIT0_Efp0_EEcvv_EERT_OSH_
FNL:184,5897,5899
FNA:184,0,_ZN8nlohmann16json_abi_v3_11_327byte_container_with_subtypeISt6vectorIhSaIhEEEC2Ev
FNL:185,5946,5949
FNA:185,0,_ZNK8nlohmann16json_abi_v3_11_327byte_container_with_subtypeISt6vectorIhSaIhEEE7subtypeEv
FNL:186,5953,5956
FNA:186,0,_ZNK8nlohmann16json_abi_v3_11_327byte_container_with_subtypeISt6vectorIhSaIhEEE11has_subtypeEv
FNL:187,6285,6287
FNA:187,2,_ZN8nlohmann16json_abi_v3_11_36detail22iterator_input_adapterIN9__gnu_cxx17__normal_iteratorIPKcNSt7__cxx1112basic_stringIcSt11char_traitsIcESaIcEEEEEEC2ESD_SD_
FNL:188,6289,6299
FNA:188,74,_ZN8nlohmann16json_abi_v3_11_36detail22iterator_input_adapterIN9__gnu_cxx17__normal_iteratorIPKcNSt7__cxx1112basic_stringIcSt11char_traitsIcESaIcEEEEEE13get_characterEv
FNL:189,6489,6492
FNA:189,2,_ZN8nlohmann16json_abi_v3_11_36detail30iterator_input_adapter_factoryIN9__gnu_cxx17__normal_iteratorIPKcNSt7__cxx1112basic_stringIcSt11char_traitsIcESaIcEEEEEvE6createESD_SD_
FNL:190,6521,6525
FNA:190,2,_ZN8nlohmann16json_abi_v3_11_36detail13input_adapterIN9__gnu_cxx17__normal_iteratorIPKcNSt7__cxx1112basic_stringIcSt11char_traitsIcESaIcEEEEEEENS1_30iterator_input_adapter_factoryIT_vE12adapter_typeESF_SF_
FNL:191,6546,6549
FNA:191,2,_ZN8nlohmann16json_abi_v3_11_36detail36container_input_adapter_factory_impl31container_input_adapter_factoryINSt7__cxx1112basic_stringIcSt11char_traitsIcESaIcEEEvE6createERKS9_
FNL:192,6555,6558
FNA:192,2,_ZN8nlohmann16json_abi_v3_11_36detail13input_adapterINSt7__cxx1112basic_stringIcSt11char_traitsIcESaIcEEEEENS1_36container_input_adapter_factory_impl31container_input_adapter_factoryIT_vE12adapter_typeERKSB_
FNL:193,6813,6815
FNA:193,2,_ZN8nlohmann16json_abi_v3_11_36detail19json_sax_dom_parserINS0_10basic_jsonISt3mapSt6vectorNSt7__cxx1112basic_stringIcSt11char_traitsIcESaIcEEEblmdSaNS0_14adl_serializerES5_IhSaIhEEvEEEC2ERSF_b
FNL:194,6822,6822
FNA:194,2,_ZN8nlohmann16json_abi_v3_11_36detail19json_sax_dom_parserINS0_10basic_jsonISt3mapSt6vectorNSt7__cxx1112basic_stringIcSt11char_traitsIcESaIcEEEblmdSaNS0_14adl_serializerES5_IhSaIhEEvEEED2Ev
FNL:195,6824,6828
FNA:195,0,_ZN8nlohmann16json_abi_v3_11_36detail19json_sax_dom_parserINS0_10basic_jsonISt3mapSt6vectorNSt7__cxx1112basic_stringIcSt11char_traitsIcESaIcEEEblmdSaNS0_14adl_serializerES5_IhSaIhEEvEEE4nullEv
FNL:196,6830,6834
FNA:196,0,_ZN8nlohmann16json_abi_v3_11_36detail19json_sax_dom_parserINS0_10basic_jsonISt3mapSt6vectorNSt7__cxx1112basic_stringIcSt11char_traitsIcESaIcEEEblmdSaNS0_14adl_serializerES5_IhSaIhEEvEEE7booleanEb
FNL:197,6836,6840
FNA:197,0,_ZN8nlohmann16json_abi_v3_11_36detail19json_sax_dom_parserINS0_10basic_jsonISt3mapSt6vectorNSt7__cxx1112basic_stringIcSt11char_traitsIcESaIcEEEblmdSaNS0_14adl_serializerES5_IhSaIhEEvEEE14number_integerEl
FNL:198,6842,6846
FNA:198,2,_ZN8nlohmann16json_abi_v3_11_36detail19json_sax_dom_parserINS0_10basic_jsonISt3mapSt6vectorNSt7__cxx1112basic_stringIcSt11char_traitsIcESaIcEEEblmdSaNS0_14adl_serializerES5_IhSaIhEEvEEE15number_unsignedEm
FNL:199,6848,6852
FNA:199,0,_ZN8nlohmann16json_abi_v3_11_36detail19json_sax_dom_parserINS0_10basic_jsonISt3mapSt6vectorNSt7__cxx1112basic_stringIcSt11char_traitsIcESaIcEEEblmdSaNS0_14adl_serializerES5_IhSaIhEEvEEE12number_floatEdRKSB_
FNL:200,6854,6858
FNA:200,3,_ZN8nlohmann16json_abi_v3_11_36detail19json_sax_dom_parserINS0_10basic_jsonISt3mapSt6vectorNSt7__cxx1112basic_stringIcSt11char_traitsIcESaIcEEEblmdSaNS0_14adl_serializerES5_IhSaIhEEvEEE6stringERSB_
FNL:201,6866,6876
FNA:201,2,_ZN8nlohmann16json_abi_v3_11_36detail19json_sax_dom_parserINS0_10basic_jsonISt3mapSt6vectorNSt7__cxx1112basic_stringIcSt11char_traitsIcESaIcEEEblmdSaNS0_14adl_serializerES5_IhSaIhEEvEEE12start_objectEm
FNL:202,6878,6886
FNA:202,4,_ZN8nlohmann16json_abi_v3_11_36detail19json_sax_dom_parserINS0_10basic_jsonISt3mapSt6vectorNSt7__cxx1112basic_stringIcSt11char_traitsIcESaIcEEEblmdSaNS0_14adl_serializerES5_IhSaIhEEvEEE3keyERSB_
FNL:203,6888,6896
FNA:203,2,_ZN8nlohmann16json_abi_v3_11_36detail19json_sax_dom_parserINS0_10basic_jsonISt3mapSt6vectorNSt7__cxx1112basic_stringIcSt11char_traitsIcESaIcEEEblmdSaNS0_14adl_serializerES5_IhSaIhEEvEEE10end_objectEv
FNL:204,6898,6908
FNA:204,2,_ZN8nlohmann16json_abi_v3_11_36detail19json_sax_dom_parserINS0_10basic_jsonISt3mapSt6vectorNSt7__cxx1112basic_stringIcSt11char_traitsIcESaIcEEEblmdSaNS0_14adl_serializerES5_IhSaIhEEvEEE11start_arrayEm
FNL:205,6910,6918
FNA:205,2,_ZN8nlohmann16json_abi_v3_11_36detail19json_sax_dom_parserINS0_10basic_jsonISt3mapSt6vectorNSt7__cxx1112basic_stringIcSt11char_traitsIcESaIcEEEblmdSaNS0_14adl_serializerES5_IhSaIhEEvEEE9end_arrayEv
FNL:206,6921,6931
FNA:206,0,_ZN8nlohmann16json_abi_v3_11_36detail19json_sax_dom_parserINS0_10basic_jsonISt3mapSt6vectorNSt7__cxx1112basic_stringIcSt11char_traitsIcESaIcEEEblmdSaNS0_14adl_serializerES5_IhSaIhEEvEEE11parse_errorINS1_11parse_errorEEEbmRKSB_RKT_
FNA:206,0,_ZN8nlohmann16json_abi_v3_11_36detail19json_sax_dom_parserINS0_10basic_jsonISt3mapSt6vectorNSt7__cxx1112basic_stringIcSt11char_traitsIcESaIcEEEblmdSaNS0_14adl_serializerES5_IhSaIhEEvEEE11parse_errorINS1_12out_of_rangeEEEbmRKSB_RKT_
FNL:207,6933,6936
FNA:207,2,_ZNK8nlohmann16json_abi_v3_11_36detail19json_sax_dom_parserINS0_10basic_jsonISt3mapSt6vectorNSt7__cxx1112basic_stringIcSt11char_traitsIcESaIcEEEblmdSaNS0_14adl_serializerES5_IhSaIhEEvEEE10is_erroredEv
FNL:208,6947,6967
FNA:208,0,_ZN8nlohmann16json_abi_v3_11_36detail19json_sax_dom_parserINS0_10basic_jsonISt3mapSt6vectorNSt7__cxx1112basic_stringIcSt11char_traitsIcESaIcEEEblmdSaNS0_14adl_serializerES5_IhSaIhEEvEEE12handle_valueIDnEEPSF_OT_
FNA:208,4,_ZN8nlohmann16json_abi_v3_11_36detail19json_sax_dom_parserINS0_10basic_jsonISt3mapSt6vectorNSt7__cxx1112basic_stringIcSt11char_traitsIcESaIcEEEblmdSaNS0_14adl_serializerES5_IhSaIhEEvEEE12handle_valueINS1_7value_tEEEPSF_OT_
FNA:208,3,_ZN8nlohmann16json_abi_v3_11_36detail19json_sax_dom_parserINS0_10basic_jsonISt3mapSt6vectorNSt7__cxx1112basic_stringIcSt11char_traitsIcESaIcEEEblmdSaNS0_14adl_serializerES5_IhSaIhEEvEEE12handle_valueIRSB_EEPSF_OT_
FNA:208,0,_ZN8nlohmann16json_abi_v3_11_36detail19json_sax_dom_parserINS0_10basic_jsonISt3mapSt6vectorNSt7__cxx1112basic_stringIcSt11char_traitsIcESaIcEEEblmdSaNS0_14adl_serializerES5_IhSaIhEEvEEE12handle_valueIRbEEPSF_OT_
FNA:208,0,_ZN8nlohmann16json_abi_v3_11_36detail19json_sax_dom_parserINS0_10basic_jsonISt3mapSt6vectorNSt7__cxx1112basic_stringIcSt11char_traitsIcESaIcEEEblmdSaNS0_14adl_serializerES5_IhSaIhEEvEEE12handle_valueIRdEEPSF_OT_
FNA:208,0,_ZN8nlohmann16json_abi_v3_11_36detail19json_sax_dom_parserINS0_10basic_jsonISt3mapSt6vectorNSt7__cxx1112basic_stringIcSt11char_traitsIcESaIcEEEblmdSaNS0_14adl_serializerES5_IhSaIhEEvEEE12handle_valueIRlEEPSF_OT_
FNA:208,2,_ZN8nlohmann16json_abi_v3_11_36detail19json_sax_dom_parserINS0_10basic_jsonISt3mapSt6vectorNSt7__cxx1112basic_stringIcSt11char_traitsIcESaIcEEEblmdSaNS0_14adl_serializerES5_IhSaIhEEvEEE12handle_valueIRmEEPSF_OT_
FNL:209,6993,6999
FNA:209,0,_ZN8nlohmann16json_abi_v3_11_36detail28json_sax_dom_callback_parserINS0_10basic_jsonISt3mapSt6vectorNSt7__cxx1112basic_stringIcSt11char_traitsIcESaIcEEEblmdSaNS0_14adl_serializerES5_IhSaIhEEvEEEC2ERSF_St8functionIFbiNS1_13parse_event_tESH_EEb
FNL:210,7006,7006
FNA:210,0,_ZN8nlohmann16json_abi_v3_11_36detail28json_sax_dom_callback_parserINS0_10basic_jsonISt3mapSt6vectorNSt7__cxx1112basic_stringIcSt11char_traitsIcESaIcEEEblmdSaNS0_14adl_serializerES5_IhSaIhEEvEEED2Ev
FNL:211,7008,7012
FNA:211,0,_ZN8nlohmann16json_abi_v3_11_36detail28json_sax_dom_callback_parserINS0_10basic_jsonISt3mapSt6vectorNSt7__cxx1112basic_stringIcSt11char_traitsIcESaIcEEEblmdSaNS0_14adl_serializerES5_IhSaIhEEvEEE4nullEv
FNL:212,7014,7018
FNA:212,0,_ZN8nlohmann16json_abi_v3_11_36detail28json_sax_dom_callback_parserINS0_10basic_jsonISt3mapSt6vectorNSt7__cxx1112basic_stringIcSt11char_traitsIcESaIcEEEblmdSaNS0_14adl_serializerES5_IhSaIhEEvEEE7booleanEb
FNL:213,7020,7024
FNA:213,0,_ZN8nlohmann16json_abi_v3_11_36detail28json_sax_dom_callback_parserINS0_10basic_jsonISt3mapSt6vectorNSt7__cxx1112basic_stringIcSt11char_traitsIcESaIcEEEblmdSaNS0_14adl_serializerES5_IhSaIhEEvEEE14number_integerEl
FNL:214,7026,7030
FNA:214,0,_ZN8nlohmann16json_abi_v3_11_36detail28json_sax_dom_callback_parserINS0_10basic_jsonISt3mapSt6vectorNSt7__cxx1112basic_stringIcSt11char_traitsIcESaIcEEEblmdSaNS0_14adl_serializerES5_IhSaIhEEvEEE15number_unsignedEm
FNL:215,7032,7036
FNA:215,0,_ZN8nlohmann16json_abi_v3_11_36detail28json_sax_dom_callback_parserINS0_10basic_jsonISt3mapSt6vectorNSt7__cxx1112basic_stringIcSt11char_traitsIcESaIcEEEblmdSaNS0_14adl_serializerES5_IhSaIhEEvEEE12number_floatEdRKSB_
FNL:216,7038,7042
FNA:216,0,_ZN8nlohmann16json_abi_v3_11_36detail28json_sax_dom_callback_parserINS0_10basic_jsonISt3mapSt6vectorNSt7__cxx1112basic_stringIcSt11char_traitsIcESaIcEEEblmdSaNS0_14adl_serializerES5_IhSaIhEEvEEE6stringERSB_
FNL:217,7050,7066
FNA:217,0,_ZN8nlohmann16json_abi_v3_11_36detail28json_sax_dom_callback_parserINS0_10basic_jsonISt3mapSt6vectorNSt7__cxx1112basic_stringIcSt11char_traitsIcESaIcEEEblmdSaNS0_14adl_serializerES5_IhSaIhEEvEEE12start_objectEm
FNL:218,7068,7083
FNA:218,0,_ZN8nlohmann16json_abi_v3_11_36detail28json_sax_dom_callback_parserINS0_10basic_jsonISt3mapSt6vectorNSt7__cxx1112basic_stringIcSt11char_traitsIcESaIcEEEblmdSaNS0_14adl_serializerES5_IhSaIhEEvEEE3keyERSB_
FNL:219,7085,7119
FNA:219,0,_ZN8nlohmann16json_abi_v3_11_36detail28json_sax_dom_callback_parserINS0_10basic_jsonISt3mapSt6vectorNSt7__cxx1112basic_stringIcSt11char_traitsIcESaIcEEEblmdSaNS0_14adl_serializerES5_IhSaIhEEvEEE10end_objectEv
FNL:220,7121,7136
FNA:220,0,_ZN8nlohmann16json_abi_v3_11_36detail28json_sax_dom_callback_parserINS0_10basic_jsonISt3mapSt6vectorNSt7__cxx1112basic_stringIcSt11char_traitsIcESaIcEEEblmdSaNS0_14adl_serializerES5_IhSaIhEEvEEE11start_arrayEm
FNL:221,7138,7168
FNA:221,0,_ZN8nlohmann16json_abi_v3_11_36detail28json_sax_dom_callback_parserINS0_10basic_jsonISt3mapSt6vectorNSt7__cxx1112basic_stringIcSt11char_traitsIcESaIcEEEblmdSaNS0_14adl_serializerES5_IhSaIhEEvEEE9end_arrayEv
FNL:222,7171,7181
FNA:222,0,_ZN8nlohmann16json_abi_v3_11_36detail28json_sax_dom_callback_parserINS0_10basic_jsonISt3mapSt6vectorNSt7__cxx1112basic_stringIcSt11char_traitsIcESaIcEEEblmdSaNS0_14adl_serializerES5_IhSaIhEEvEEE11parse_errorINS1_11parse_errorEEEbmRKSB_RKT_
FNA:222,0,_ZN8nlohmann16json_abi_v3_11_36detail28json_sax_dom_callback_parserINS0_10basic_jsonISt3mapSt6vectorNSt7__cxx1112basic_stringIcSt11char_traitsIcESaIcEEEblmdSaNS0_14adl_serializerES5_IhSaIhEEvEEE11parse_errorINS1_12out_of_rangeEEEbmRKSB_RKT_
FNL:223,7183,7186
FNA:223,0,_ZNK8nlohmann16json_abi_v3_11_36detail28json_sax_dom_callback_parserINS0_10basic_jsonISt3mapSt6vectorNSt7__cxx1112basic_stringIcSt11char_traitsIcESaIcEEEblmdSaNS0_14adl_serializerES5_IhSaIhEEvEEE10is_erroredEv
FNL:224,7205,7266
FNA:224,0,_ZN8nlohmann16json_abi_v3_11_36detail28json_sax_dom_callback_parserINS0_10basic_jsonISt3mapSt6vectorNSt7__cxx1112basic_stringIcSt11char_traitsIcESaIcEEEblmdSaNS0_14adl_serializerES5_IhSaIhEEvEEE12handle_valueIDnEESt4pairIbPSF_EOT_b
FNA:224,0,_ZN8nlohmann16json_abi_v3_11_36detail28json_sax_dom_callback_parserINS0_10basic_jsonISt3mapSt6vectorNSt7__cxx1112basic_stringIcSt11char_traitsIcESaIcEEEblmdSaNS0_14adl_serializerES5_IhSaIhEEvEEE12handle_valueINS1_7value_tEEESt4pairIbPSF_EOT_b
FNA:224,0,_ZN8nlohmann16json_abi_v3_11_36detail28json_sax_dom_callback_parserINS0_10basic_jsonISt3mapSt6vectorNSt7__cxx1112basic_stringIcSt11char_traitsIcESaIcEEEblmdSaNS0_14adl_serializerES5_IhSaIhEEvEEE12handle_valueIRSB_EESt4pairIbPSF_EOT_b
FNA:224,0,_ZN8nlohmann16json_abi_v3_11_36detail28json_sax_dom_callback_parserINS0_10basic_jsonISt3mapSt6vectorNSt7__cxx1112basic_stringIcSt11char_traitsIcESaIcEEEblmdSaNS0_14adl_serializerES5_IhSaIhEEvEEE12handle_valueIRbEESt4pairIbPSF_EOT_b
FNA:224,0,_ZN8nlohmann16json_abi_v3_11_36detail28json_sax_dom_callback_parserINS0_10basic_jsonISt3mapSt6vectorNSt7__cxx1112basic_stringIcSt11char_traitsIcESaIcEEEblmdSaNS0_14adl_serializerES5_IhSaIhEEvEEE12handle_valueIRdEESt4pairIbPSF_EOT_b
FNA:224,0,_ZN8nlohmann16json_abi_v3_11_36detail28json_sax_dom_callback_parserINS0_10basic_jsonISt3mapSt6vectorNSt7__cxx1112basic_stringIcSt11char_traitsIcESaIcEEEblmdSaNS0_14adl_serializerES5_IhSaIhEEvEEE12handle_valueIRlEESt4pairIbPSF_EOT_b
FNA:224,0,_ZN8nlohmann16json_abi_v3_11_36detail28json_sax_dom_callback_parserINS0_10basic_jsonISt3mapSt6vectorNSt7__cxx1112basic_stringIcSt11char_traitsIcESaIcEEEblmdSaNS0_14adl_serializerES5_IhSaIhEEvEEE12handle_valueIRmEESt4pairIbPSF_EOT_b
FNL:225,7434,7475
FNA:225,0,_ZN8nlohmann16json_abi_v3_11_36detail10lexer_baseINS0_10basic_jsonISt3mapSt6vectorNSt7__cxx1112basic_stringIcSt11char_traitsIcESaIcEEEblmdSaNS0_14adl_serializerES5_IhSaIhEEvEEE15token_type_nameENSG_10token_typeE
FNL:226,7495,7499
FNA:226,2,_ZN8nlohmann16json_abi_v3_11_36detail5lexerINS0_10basic_jsonISt3mapSt6vectorNSt7__cxx1112basic_stringIcSt11char_traitsIcESaIcEEEblmdSaNS0_14adl_serializerES5_IhSaIhEEvEENS1_22iterator_input_adapterIN9__gnu_cxx17__normal_iteratorIPKcSB_EEEEEC2EOSM_b
FNL:227,7506,7506
FNA:227,2,_ZN8nlohmann16json_abi_v3_11_36detail5lexerINS0_10basic_jsonISt3mapSt6vectorNSt7__cxx1112basic_stringIcSt11char_traitsIcESaIcEEEblmdSaNS0_14adl_serializerES5_IhSaIhEEvEENS1_22iterator_input_adapterIN9__gnu_cxx17__normal_iteratorIPKcSB_EEEEED2Ev
FNL:228,7515,7520
FNA:228,2,_ZN8nlohmann16json_abi_v3_11_36detail5lexerINS0_10basic_jsonISt3mapSt6vectorNSt7__cxx1112basic_stringIcSt11char_traitsIcESaIcEEEblmdSaNS0_14adl_serializerES5_IhSaIhEEvEENS1_22iterator_input_adapterIN9__gnu_cxx17__normal_iteratorIPKcSB_EEEEE17get_decimal_pointEv
FNL:229,7541,7572
FNA:229,0,_ZN8nlohmann16json_abi_v3_11_36detail5lexerINS0_10basic_jsonISt3mapSt6vectorNSt7__cxx1112basic_stringIcSt11char_traitsIcESaIcEEEblmdSaNS0_14adl_serializerES5_IhSaIhEEvEENS1_22iterator_input_adapterIN9__gnu_cxx17__normal_iteratorIPKcSB_EEEEE13get_codepointEv
FNL:230,7589,7609
FNA:230,0,_ZN8nlohmann16json_abi_v3_11_36detail5lexerINS0_10basic_jsonISt3mapSt6vectorNSt7__cxx1112basic_stringIcSt11char_traitsIcESaIcEEEblmdSaNS0_14adl_serializerES5_IhSaIhEEvEENS1_22iterator_input_adapterIN9__gnu_cxx17__normal_iteratorIPKcSB_EEEEE18next_byte_in_rangeESt16initializer_listIiE
FNL:231,7626,8210
FNA:231,7,_ZN8nlohmann16json_abi_v3_11_36detail5lexerINS0_10basic_jsonISt3mapSt6vectorNSt7__cxx1112basic_stringIcSt11char_traitsIcESaIcEEEblmdSaNS0_14adl_serializerES5_IhSaIhEEvEENS1_22iterator_input_adapterIN9__gnu_cxx17__normal_iteratorIPKcSB_EEEEE11scan_stringEv
FNL:232,8216,8281
FNA:232,0,_ZN8nlohmann16json_abi_v3_11_36detail5lexerINS0_10basic_jsonISt3mapSt6vectorNSt7__cxx1112basic_stringIcSt11char_traitsIcESaIcEEEblmdSaNS0_14adl_serializerES5_IhSaIhEEvEENS1_22iterator_input_adapterIN9__gnu_cxx17__normal_iteratorIPKcSB_EEEEE12scan_commentEv
FNL:233,8290,8293
FNA:233,0,_ZN8nlohmann16json_abi_v3_11_36detail5lexerINS0_10basic_jsonISt3mapSt6vectorNSt7__cxx1112basic_stringIcSt11char_traitsIcESaIcEEEblmdSaNS0_14adl_serializerES5_IhSaIhEEvEENS1_22iterator_input_adapterIN9__gnu_cxx17__normal_iteratorIPKcSB_EEEEE6strtofERdSK_PPc
FNL:234,8341,8664
FNA:234,2,_ZN8nlohmann16json_abi_v3_11_36detail5lexerINS0_10basic_jsonISt3mapSt6vectorNSt7__cxx1112basic_stringIcSt11char_traitsIcESaIcEEEblmdSaNS0_14adl_serializerES5_IhSaIhEEvEENS1_22iterator_input_adapterIN9__gnu_cxx17__normal_iteratorIPKcSB_EEEEE11scan_numberEv
FNL:235,8672,8685
FNA:235,0,_ZN8nlohmann16json_abi_v3_11_36detail5lexerINS0_10basic_jsonISt3mapSt6vectorNSt7__cxx1112basic_stringIcSt11char_traitsIcESaIcEEEblmdSaNS0_14adl_serializerES5_IhSaIhEEvEENS1_22iterator_input_adapterIN9__gnu_cxx17__normal_iteratorIPKcSB_EEEEE12scan_literalESK_mNS1_10lexer_baseISF_E10token_typeE
FNL:236,8692,8697
FNA:236,9,_ZN8nlohmann16json_abi_v3_11_36detail5lexerINS0_10basic_jsonISt3mapSt6vectorNSt7__cxx1112basic_stringIcSt11char_traitsIcESaIcEEEblmdSaNS0_14adl_serializerES5_IhSaIhEEvEENS1_22iterator_input_adapterIN9__gnu_cxx17__normal_iteratorIPKcSB_EEEEE5resetEv
FNL:237,8709,8736
FNA:237,78,_ZN8nlohmann16json_abi_v3_11_36detail5lexerINS0_10basic_jsonISt3mapSt6vectorNSt7__cxx1112basic_stringIcSt11char_traitsIcESaIcEEEblmdSaNS0_14adl_serializerES5_IhSaIhEEvEENS1_22iterator_input_adapterIN9__gnu_cxx17__normal_iteratorIPKcSB_EEEEE3getEv
FNL:238,8746,8770
FNA:238,4,_ZN8nlohmann16json_abi_v3_11_36detail5lexerINS0_10basic_jsonISt3mapSt6vectorNSt7__cxx1112basic_stringIcSt11char_traitsIcESaIcEEEblmdSaNS0_14adl_serializerES5_IhSaIhEEvEENS1_22iterator_input_adapterIN9__gnu_cxx17__normal_iteratorIPKcSB_EEEEE5ungetEv
FNL:239,8773,8776
FNA:239,42,_ZN8nlohmann16json_abi_v3_11_36detail5lexerINS0_10basic_jsonISt3mapSt6vectorNSt7__cxx1112basic_stringIcSt11char_traitsIcESaIcEEEblmdSaNS0_14adl_serializerES5_IhSaIhEEvEENS1_22iterator_input_adapterIN9__gnu_cxx17__normal_iteratorIPKcSB_EEEEE3addEi
FNL:240,8784,8787
FNA:240,0,_ZNK8nlohmann16json_abi_v3_11_36detail5lexerINS0_10basic_jsonISt3mapSt6vectorNSt7__cxx1112basic_stringIcSt11char_traitsIcESaIcEEEblmdSaNS0_14adl_serializerES5_IhSaIhEEvEENS1_22iterator_input_adapterIN9__gnu_cxx17__normal_iteratorIPKcSB_EEEEE18get_number_integerEv
FNL:241,8790,8793
FNA:241,2,_ZNK8nlohmann16json_abi_v3_11_36detail5lexerINS0_10basic_jsonISt3mapSt6vectorNSt7__cxx1112basic_stringIcSt11char_traitsIcESaIcEEEblmdSaNS0_14adl_serializerES5_IhSaIhEEvEENS1_22iterator_input_adapterIN9__gnu_cxx17__normal_iteratorIPKcSB_EEEEE19get_number_unsignedEv
FNL:242,8796,8799
FNA:242,0,_ZNK8nlohmann16json_abi_v3_11_36detail5lexerINS0_10basic_jsonISt3mapSt6vectorNSt7__cxx1112basic_stringIcSt11char_traitsIcESaIcEEEblmdSaNS0_14adl_serializerES5_IhSaIhEEvEENS1_22iterator_input_adapterIN9__gnu_cxx17__normal_iteratorIPKcSB_EEEEE16get_number_floatEv
FNL:243,8802,8805
FNA:243,7,_ZN8nlohmann16json_abi_v3_11_36detail5lexerINS0_10basic_jsonISt3mapSt6vectorNSt7__cxx1112basic_stringIcSt11char_traitsIcESaIcEEEblmdSaNS0_14adl_serializerES5_IhSaIhEEvEENS1_22iterator_input_adapterIN9__gnu_cxx17__normal_iteratorIPKcSB_EEEEE10get_stringEv
FNL:244,8812,8815
FNA:244,0,_ZNK8nlohmann16json_abi_v3_11_36detail5lexerINS0_10basic_jsonISt3mapSt6vectorNSt7__cxx1112basic_stringIcSt11char_traitsIcESaIcEEEblmdSaNS0_14adl_serializerES5_IhSaIhEEvEENS1_22iterator_input_adapterIN9__gnu_cxx17__normal_iteratorIPKcSB_EEEEE12get_positionEv
FNL:245,8820,8841
FNA:245,0,_ZNK8nlohmann16json_abi_v3_11_36detail5lexerINS0_10basic_jsonISt3mapSt6vectorNSt7__cxx1112basic_stringIcSt11char_traitsIcESaIcEEEblmdSaNS0_14adl_serializerES5_IhSaIhEEvEENS1_22iterator_input_adapterIN9__gnu_cxx17__normal_iteratorIPKcSB_EEEEE16get_token_stringEv
FNL:246,8845,8848
FNA:246,0,_ZNK8nlohmann16json_abi_v3_11_36detail5lexerINS0_10basic_jsonISt3mapSt6vectorNSt7__cxx1112basic_stringIcSt11char_traitsIcESaIcEEEblmdSaNS0_14adl_serializerES5_IhSaIhEEvEENS1_22iterator_input_adapterIN9__gnu_cxx17__normal_iteratorIPKcSB_EEEEE17get_error_messageEv
FNL:247,8858,8870
FNA:247,2,_ZN8nlohmann16json_abi_v3_11_36detail5lexerINS0_10basic_jsonISt3mapSt6vectorNSt7__cxx1112basic_stringIcSt11char_traitsIcESaIcEEEblmdSaNS0_14adl_serializerES5_IhSaIhEEvEENS1_22iterator_input_adapterIN9__gnu_cxx17__normal_iteratorIPKcSB_EEEEE8skip_bomEv
FNL:248,8872,8879
FNA:248,27,_ZN8nlohmann16json_abi_v3_11_36detail5lexerINS0_10basic_jsonISt3mapSt6vectorNSt7__cxx1112basic_stringIcSt11char_traitsIcESaIcEEEblmdSaNS0_14adl_serializerES5_IhSaIhEEvEENS1_22iterator_input_adapterIN9__gnu_cxx17__normal_iteratorIPKcSB_EEEEE15skip_whitespaceEv
FNL:249,8881,8967
FNA:249,27,_ZN8nlohmann16json_abi_v3_11_36detail5lexerINS0_10basic_jsonISt3mapSt6vectorNSt7__cxx1112basic_stringIcSt11char_traitsIcESaIcEEEblmdSaNS0_14adl_serializerES5_IhSaIhEEvEENS1_22iterator_input_adapterIN9__gnu_cxx17__normal_iteratorIPKcSB_EEEEE4scanEv
FNF:250
FNH:136
DA:2971,0
DA:2974,0
DA:2975,0
DA:2976,0
DA:2977,0
DA:2978,0
DA:2980,0
DA:3005,0
DA:3007,0
DA:3008,0
DA:3009,0
DA:3045,0
DA:3047,0
DA:4234,0
DA:4236,0
DA:4246,0
DA:4248,0
DA:4252,0
DA:4255,0
DA:4259,0
DA:4261,0
DA:4265,0
DA:4266,0
DA:4312,0
DA:4314,0
DA:4315,0
DA:4316,0
DA:4321,0
DA:4323,0
DA:4324,0
DA:4325,0
DA:4349,0
DA:4351,0
DA:4352,0
DA:4353,0
DA:4354,0
DA:4355,0
DA:4375,0
DA:4377,0
DA:4385,0
DA:4387,0
DA:4389,0
DA:4392,0
DA:4394,0
DA:4398,0
DA:4458,0
DA:4482,0
DA:4484,0
DA:4485,0
DA:4486,0
DA:4487,0
DA:4510,0
DA:4511,0
DA:4513,0
DA:4515,0
DA:4516,0
DA:4526,0
DA:4528,0
DA:4529,0
DA:4530,0
DA:4534,0
DA:4535,0
DA:4544,0
DA:4546,0
DA:4547,0
DA:4548,0
DA:4552,0
DA:4561,0
DA:4563,0
DA:4564,0
DA:4565,0
DA:4569,0
DA:4578,0
DA:4580,0
DA:4581,0
DA:4582,0
DA:4586,0
DA:4721,22
DA:4723,22
DA:4725,0
DA:4727,22
DA:4728,22
DA:4841,2
DA:4849,2
DA:4850,2
DA:4851,2
DA:4852,2
DA:4856,2
DA:4858,2
DA:4859,2
DA:4890,2
DA:4895,2
DA:4897,0
DA:4900,2
DA:4901,2
DA:4967,6
DA:4969,6
DA:4971,0
DA:4973,0
DA:4974,0
DA:4976,6
DA:4978,6
DA:4979,6
DA:4981,0
DA:4983,0
DA:4984,0
DA:4986,0
DA:4988,0
DA:4989,0
DA:4992,0
DA:4999,0
DA:5001,6
DA:5101,30
DA:5105,30
DA:5425,2
DA:5427,2
DA:5428,2
DA:5429,2
DA:5430,2
DA:5431,2
DA:5438,25
DA:5440,25
DA:5441,25
DA:5442,25
DA:5443,25
DA:5444,25
DA:5493,0
DA:5495,0
DA:5496,0
DA:5497,0
DA:5498,0
DA:5499,0
DA:5506,2
DA:5508,2
DA:5509,2
DA:5510,2
DA:5511,2
DA:5512,2
DA:5519,14
DA:5521,14
DA:5522,14
DA:5523,14
DA:5524,14
DA:5525,14
DA:5554,2
DA:5559,2
DA:5560,2
DA:5561,4
DA:5562,2
DA:5563,2
DA:5564,2
DA:5642,2
DA:5644,2
DA:5645,2
DA:5662,25
DA:5664,25
DA:5665,25
DA:5675,0
DA:5677,0
DA:5678,0
DA:5682,2
DA:5684,2
DA:5685,2
DA:5689,14
DA:5691,14
DA:5692,14
DA:5718,2
DA:5720,2
DA:5721,2
DA:5802,45
DA:5805,45
DA:5837,30
DA:5841,60
DA:5842,30
DA:5857,45
DA:5861,90
DA:5862,45
DA:5897,0
DA:5898,0
DA:5899,0
DA:5946,0
DA:5948,0
DA:5953,0
DA:5955,0
DA:6285,2
DA:6286,2
DA:6287,2
DA:6289,74
DA:6291,148
DA:6293,144
DA:6294,72
DA:6295,72
DA:6298,2
DA:6489,2
DA:6491,4
DA:6521,2
DA:6524,2
DA:6546,2
DA:6548,2
DA:6555,2
DA:6557,2
DA:6813,2
DA:6814,2
DA:6815,2
DA:6822,2
DA:6824,0
DA:6826,0
DA:6827,0
DA:6830,0
DA:6832,0
DA:6833,0
DA:6836,0
DA:6838,0
DA:6839,0
DA:6842,2
DA:6844,2
DA:6845,2
DA:6848,0
DA:6850,0
DA:6851,0
DA:6854,3
DA:6856,3
DA:6857,3
DA:6866,2
DA:6868,2
DA:6870,2
DA:6872,0
DA:6875,2
DA:6878,4
DA:6880,4
DA:6881,4
DA:6884,4
DA:6885,4
DA:6888,2
DA:6890,2
DA:6891,2
DA:6893,2
DA:6894,2
DA:6895,2
DA:6898,2
DA:6900,2
DA:6902,2
DA:6904,0
DA:6907,2
DA:6910,2
DA:6912,2
DA:6913,2
DA:6915,2
DA:6916,2
DA:6917,2
DA:6921,0
DA:6924,0
DA:6926,0
DA:6928,0
DA:6930,0
DA:6933,2
DA:6935,2
DA:6947,9
DA:6949,9
DA:6951,2
DA:6952,2
DA:6955,7
DA:6957,7
DA:6959,6
DA:6960,3
DA:6963,4
DA:6964,4
DA:6965,4
DA:6966,4
DA:6993,0
DA:6996,0
DA:6998,0
DA:6999,0
DA:7006,0
DA:7008,0
DA:7010,0
DA:7011,0
DA:7014,0
DA:7016,0
DA:7017,0
DA:7020,0
DA:7022,0
DA:7023,0
DA:7026,0
DA:7028,0
DA:7029,0
DA:7032,0
DA:7034,0
DA:7035,0
DA:7038,0
DA:7040,0
DA:7041,0
DA:7050,0
DA:7053,0
DA:7054,0
DA:7056,0
DA:7057,0
DA:7060,0
DA:7062,0
DA:7065,0
DA:7068,0
DA:7070,0
DA:7073,0
DA:7074,0
DA:7077,0
DA:7079,0
DA:7082,0
DA:7083,0
DA:7085,0
DA:7087,0
DA:7089,0
DA:7092,0
DA:7096,0
DA:7100,0
DA:7101,0
DA:7102,0
DA:7103,0
DA:7105,0
DA:7108,0
DA:7110,0
DA:7112,0
DA:7113,0
DA:7118,0
DA:7121,0
DA:7123,0
DA:7124,0
DA:7126,0
DA:7127,0
DA:7130,0
DA:7132,0
DA:7135,0
DA:7138,0
DA:7140,0
DA:7142,0
DA:7144,0
DA:7145,0
DA:7147,0
DA:7152,0
DA:7156,0
DA:7157,0
DA:7158,0
DA:7159,0
DA:7162,0
DA:7164,0
DA:7167,0
DA:7171,0
DA:7174,0
DA:7176,0
DA:7178,0
DA:7180,0
DA:7183,0
DA:7185,0
DA:7205,0
DA:7207,0
DA:7211,0
DA:7213,0
DA:7217,0
DA:7220,0
DA:7223,0
DA:7225,0
DA:7228,0
DA:7230,0
DA:7231,0
DA:7236,0
DA:7238,0
DA:7242,0
DA:7245,0
DA:7247,0
DA:7248,0
DA:7252,0
DA:7254,0
DA:7255,0
DA:7256,0
DA:7258,0
DA:7260,0
DA:7263,0
DA:7264,0
DA:7265,0
DA:7266,0
DA:7434,0
DA:7436,0
DA:7438,0
DA:7439,0
DA:7440,0
DA:7441,0
DA:7442,0
DA:7443,0
DA:7444,0
DA:7445,0
DA:7446,0
DA:7447,0
DA:7448,0
DA:7451,0
DA:7452,0
DA:7453,0
DA:7454,0
DA:7455,0
DA:7456,0
DA:7457,0
DA:7458,0
DA:7459,0
DA:7460,0
DA:7461,0
DA:7462,0
DA:7463,0
DA:7464,0
DA:7465,0
DA:7466,0
DA:7467,0
DA:7468,0
DA:7469,0
DA:7495,2
DA:7496,2
DA:7497,2
DA:7498,2
DA:7499,2
DA:7506,2
DA:7515,2
DA:7517,2
DA:7518,2
DA:7519,2
DA:7541,0
DA:7544,0
DA:7545,0
DA:7547,0
DA:7548,0
DA:7550,0
DA:7552,0
DA:7554,0
DA:7556,0
DA:7558,0
DA:7560,0
DA:7562,0
DA:7566,0
DA:7570,0
DA:7571,0
DA:7589,0
DA:7591,0
DA:7592,0
DA:7594,0
DA:7596,0
DA:7597,0
DA:7599,0
DA:7603,0
DA:7604,0
DA:7608,0
DA:7626,7
DA:7629,7
DA:7632,7
DA:7634,40
DA:7637,47
DA:7640,0
DA:7642,0
DA:7643,0
DA:7647,7
DA:7649,7
DA:7653,0
DA:7655,0
DA:7658,0
DA:7659,0
DA:7660,0
DA:7662,0
DA:7663,0
DA:7664,0
DA:7666,0
DA:7667,0
DA:7668,0
DA:7670,0
DA:7671,0
DA:7672,0
DA:7674,0
DA:7675,0
DA:7676,0
DA:7678,0
DA:7679,0
DA:7680,0
DA:7682,0
DA:7683,0
DA:7684,0
DA:7686,0
DA:7687,0
DA:7688,0
DA:7691,0
DA:7693,0
DA:7694,0
DA:7696,0
DA:7698,0
DA:7699,0
DA:7703,0
DA:7706,0
DA:7708,0
DA:7710,0
DA:7712,0
DA:7713,0
DA:7717,0
DA:7720,0
DA:7722,0
DA:7724,0
DA:7728,0
DA:7732,0
DA:7733,0
DA:7738,0
DA:7739,0
DA:7741,0
DA:7744,0
DA:7746,0
DA:7747,0
DA:7752,0
DA:7755,0
DA:7758,0
DA:7760,0
DA:7763,0
DA:7764,0
DA:7766,0
DA:7769,0
DA:7770,0
DA:7771,0
DA:7776,0
DA:7777,0
DA:7778,0
DA:7779,0
DA:7782,0
DA:7786,0
DA:7787,0
DA:7788,0
DA:7791,0
DA:7795,0
DA:7797,0
DA:7798,0
DA:7801,0
DA:7803,0
DA:7804,0
DA:7807,0
DA:7809,0
DA:7810,0
DA:7813,0
DA:7815,0
DA:7816,0
DA:7819,0
DA:7821,0
DA:7822,0
DA:7825,0
DA:7827,0
DA:7828,0
DA:7831,0
DA:7833,0
DA:7834,0
DA:7837,0
DA:7839,0
DA:7840,0
DA:7843,0
DA:7845,0
DA:7846,0
DA:7849,0
DA:7851,0
DA:7852,0
DA:7855,0
DA:7857,0
DA:7858,0
DA:7861,0
DA:7863,0
DA:7864,0
DA:7867,0
DA:7869,0
DA:7870,0
DA:7873,0
DA:7875,0
DA:7876,0
DA:7879,0
DA:7881,0
DA:7882,0
DA:7885,0
DA:7887,0
DA:7888,0
DA:7891,0
DA:7893,0
DA:7894,0
DA:7897,0
DA:7899,0
DA:7900,0
DA:7903,0
DA:7905,0
DA:7906,0
DA:7909,0
DA:7911,0
DA:7912,0
DA:7915,0
DA:7917,0
DA:7918,0
DA:7921,0
DA:7923,0
DA:7924,0
DA:7927,0
DA:7929,0
DA:7930,0
DA:7933,0
DA:7935,0
DA:7936,0
DA:7939,0
DA:7941,0
DA:7942,0
DA:7945,0
DA:7947,0
DA:7948,0
DA:7951,0
DA:7953,0
DA:7954,0
DA:7957,0
DA:7959,0
DA:7960,0
DA:7963,0
DA:7965,0
DA:7966,0
DA:7969,0
DA:7971,0
DA:7972,0
DA:7975,0
DA:7977,0
DA:7978,0
DA:7981,0
DA:7983,0
DA:7984,0
DA:7988,40
DA:8083,40
DA:8084,40
DA:8088,0
DA:8119,0
DA:8121,0
DA:8123,0
DA:8127,0
DA:8129,0
DA:8131,0
DA:8133,0
DA:8138,0
DA:8153,0
DA:8155,0
DA:8157,0
DA:8161,0
DA:8163,0
DA:8165,0
DA:8167,0
DA:8171,0
DA:8173,0
DA:8175,0
DA:8177,0
DA:8181,0
DA:8185,0
DA:8187,0
DA:8189,0
DA:8193,0
DA:8195,0
DA:8197,0
DA:8199,0
DA:8203,0
DA:8205,0
DA:8206,0
DA:8216,0
DA:8218,0
DA:8221,0
DA:8225,0
DA:8227,0
DA:8231,0
DA:8233,0
DA:8234,0
DA:8240,0
DA:8244,0
DA:8246,0
DA:8249,0
DA:8250,0
DA:8253,0
DA:8255,0
DA:8257,0
DA:8258,0
DA:8260,0
DA:8262,0
DA:8263,0
DA:8268,0
DA:8269,0
DA:8275,0
DA:8277,0
DA:8278,0
DA:8290,0
DA:8292,0
DA:8293,0
DA:8341,2
DA:8344,2
DA:8348,2
DA:8351,2
DA:8353,0
DA:8355,0
DA:8356,0
DA:8359,1
DA:8361,1
DA:8362,1
DA:8365,1
DA:8375,1
DA:8376,1
DA:8384,0
DA:8386,0
DA:8387,0
DA:8389,0
DA:8391,0
DA:8392,0
DA:8395,0
DA:8405,0
DA:8406,0
DA:8409,0
DA:8411,0
DA:8412,0
DA:8416,1
DA:8418,1
DA:8420,0
DA:8422,0
DA:8423,0
DA:8426,0
DA:8429,0
DA:8430,0
DA:8433,1
DA:8434,1
DA:8437,1
DA:8439,1
DA:8441,0
DA:8452,0
DA:8453,0
DA:8456,0
DA:8458,0
DA:8459,0
DA:8462,0
DA:8465,0
DA:8466,0
DA:8469,1
DA:8470,1
DA:8473,0
DA:8475,0
DA:8476,0
DA:8478,0
DA:8489,0
DA:8490,0
DA:8493,0
DA:8495,0
DA:8496,0
DA:8500,0
DA:8502,0
DA:8504,0
DA:8515,0
DA:8516,0
DA:8519,0
DA:8522,0
DA:8523,0
DA:8526,0
DA:8527,0
DA:8530,0
DA:8532,0
DA:8533,0
DA:8535,0
DA:8538,0
DA:8539,0
DA:8542,0
DA:8553,0
DA:8554,0
DA:8557,0
DA:8559,0
DA:8561,0
DA:8565,0
DA:8567,0
DA:8569,0
DA:8580,0
DA:8581,0
DA:8584,0
DA:8586,0
DA:8587,0
DA:8591,0
DA:8593,0
DA:8595,0
DA:8606,0
DA:8607,0
DA:8610,0
DA:8611,0
DA:8614,2
DA:8617,2
DA:8619,2
DA:8620,2
DA:8623,2
DA:8625,2
DA:8628,2
DA:8630,2
DA:8632,2
DA:8633,2
DA:8635,2
DA:8639,0
DA:8641,0
DA:8644,0
DA:8646,0
DA:8648,0
DA:8649,0
DA:8651,0
DA:8658,0
DA:8661,0
DA:8663,0
DA:8672,0
DA:8675,0
DA:8676,0
DA:8678,0
DA:8680,0
DA:8681,0
DA:8684,0
DA:8692,9
DA:8694,9
DA:8695,9
DA:8696,9
DA:8697,9
DA:8709,78
DA:8711,78
DA:8712,78
DA:8714,78
DA:8717,4
DA:8721,74
DA:8724,78
DA:8726,76
DA:8729,78
DA:8731,0
DA:8732,0
DA:8735,78
DA:8746,4
DA:8748,4
DA:8750,4
DA:8753,4
DA:8755,0
DA:8757,0
DA:8762,4
DA:8765,4
DA:8767,4
DA:8768,4
DA:8770,4
DA:8773,42
DA:8775,42
DA:8776,42
DA:8784,0
DA:8786,0
DA:8790,2
DA:8792,2
DA:8796,0
DA:8798,0
DA:8802,7
DA:8804,7
DA:8812,0
DA:8814,0
DA:8820,0
DA:8823,0
DA:8824,0
DA:8826,0
DA:8829,0
DA:8830,0
DA:8831,0
DA:8836,0
DA:8840,0
DA:8841,0
DA:8845,0
DA:8847,0
DA:8858,2
DA:8860,2
DA:8863,0
DA:8868,2
DA:8869,2
DA:8872,27
DA:8876,27
DA:8878,27
DA:8879,27
DA:8881,27
DA:8884,27
DA:8886,0
DA:8887,0
DA:8891,27
DA:8894,27
DA:8896,0
DA:8898,0
DA:8902,0
DA:8905,27
DA:8908,2
DA:8909,2
DA:8910,2
DA:8911,2
DA:8912,2
DA:8913,2
DA:8914,2
DA:8915,2
DA:8916,4
DA:8917,4
DA:8918,4
DA:8919,4
DA:8922,0
DA:8924,0
DA:8925,0
DA:8927,0
DA:8929,0
DA:8930,0
DA:8932,0
DA:8934,0
DA:8935,0
DA:8939,7
DA:8940,7
DA:8943,2
DA:8954,2
DA:8958,2
DA:8960,2
DA:8963,0
DA:8964,0
DA:8965,0
DA:12239,2
DA:12243,2
DA:12244,2
DA:12245,2
DA:12248,2
DA:12249,2
DA:12261,2
DA:12263,2
DA:12265,0
DA:12266,0
DA:12269,0
DA:12271,0
DA:12272,0
DA:12273,0
DA:12274,0
DA:12278,0
DA:12280,0
DA:12281,0
DA:12286,0
DA:12288,0
DA:12290,0
DA:12293,2
DA:12294,2
DA:12297,2
DA:12299,0
DA:12300,0
DA:12301,0
DA:12305,2
DA:12307,0
DA:12308,0
DA:12310,2
DA:12312,2
DA:12348,2
DA:12352,2
DA:12354,2
DA:12356,10
DA:12358,12
DA:12361,9
DA:12363,2
DA:12365,2
DA:12367,0
DA:12371,2
DA:12373,0
DA:12375,0
DA:12377,0
DA:12381,2
DA:12383,0
DA:12384,0
DA:12385,0
DA:12387,2
DA:12389,0
DA:12393,2
DA:12395,0
DA:12396,0
DA:12397,0
DA:12401,2
DA:12404,2
DA:12405,2
DA:12408,2
DA:12410,2
DA:12412,0
DA:12416,2
DA:12418,1
DA:12420,0
DA:12422,1
DA:12426,1
DA:12429,1
DA:12432,0
DA:12434,0
DA:12436,0
DA:12438,0
DA:12439,0
DA:12440,0
DA:12443,0
DA:12445,0
DA:12448,0
DA:12451,0
DA:12453,0
DA:12455,0
DA:12457,0
DA:12460,0
DA:12462,0
DA:12464,0
DA:12466,0
DA:12469,0
DA:12471,0
DA:12473,0
DA:12475,0
DA:12478,0
DA:12480,0
DA:12482,0
DA:12484,0
DA:12487,3
DA:12489,3
DA:12491,0
DA:12493,3
DA:12496,2
DA:12498,2
DA:12500,0
DA:12502,2
DA:12505,0
DA:12508,0
DA:12509,0
DA:12510,0
DA:12512,0
DA:12514,0
DA:12516,0
DA:12517,0
DA:12518,0
DA:12519,0
DA:12522,0
DA:12523,0
DA:12524,0
DA:12526,0
DA:12534,0
DA:12535,0
DA:12536,0
DA:12538,3
DA:12542,3
DA:12546,9
DA:12549,2
DA:12552,7
DA:12555,3
DA:12558,2
DA:12559,2
DA:12563,1
DA:12565,1
DA:12567,0
DA:12574,1
DA:12575,1
DA:12576,1
DA:12577,1
DA:12580,0
DA:12581,0
DA:12582,0
DA:12588,4
DA:12591,2
DA:12593,0
DA:12594,0
DA:12595,0
DA:12598,2
DA:12600,0
DA:12604,2
DA:12606,0
DA:12607,0
DA:12608,0
DA:12612,2
DA:12613,2
DA:12617,2
DA:12619,2
DA:12621,0
DA:12628,2
DA:12629,2
DA:12630,2
DA:12631,2
DA:12634,0
DA:12635,0
DA:12636,0
DA:12638,2
DA:12641,27
DA:12643,27
DA:12646,0
DA:12648,0
DA:12650,0
DA:12652,0
DA:12655,0
DA:12657,0
DA:12659,0
DA:12660,0
DA:12664,0
DA:12667,0
DA:12669,0
DA:12672,0
DA:12673,0
DA:12750,0
DA:12752,0
DA:12753,0
DA:12756,0
DA:12758,0
DA:12759,0
DA:12762,0
DA:12764,0
DA:12773,0
DA:12775,0
DA:12795,0
DA:12797,0
DA:12798,0
DA:12808,0
DA:12810,0
DA:12811,0
DA:12968,90
DA:12970,90
DA:12972,90
DA:12974,0
DA:12976,0
DA:12977,0
DA:12980,90
DA:12982,90
DA:12983,90
DA:12986,0
DA:12996,0
DA:12997,0
DA:13000,90
DA:13043,60
DA:13044,60
DA:13045,60
DA:13065,48
DA:13067,48
DA:13069,48
DA:13071,0
DA:13073,0
DA:13074,0
DA:13077,48
DA:13079,48
DA:13080,48
DA:13083,0
DA:13086,0
DA:13087,0
DA:13090,0
DA:13099,0
DA:13100,0
DA:13103,48
DA:13109,42
DA:13111,42
DA:13113,42
DA:13115,0
DA:13117,0
DA:13118,0
DA:13121,42
DA:13123,42
DA:13124,42
DA:13127,0
DA:13137,0
DA:13138,0
DA:13141,42
DA:13148,11
DA:13150,11
DA:13152,11
DA:13154,0
DA:13156,0
DA:13157,0
DA:13160,11
DA:13162,22
DA:13163,22
DA:13166,0
DA:13167,0
DA:13169,0
DA:13178,0
DA:13180,0
DA:13183,0
DA:13192,6
DA:13194,6
DA:13196,6
DA:13198,0
DA:13200,0
DA:13201,0
DA:13204,6
DA:13206,12
DA:13207,12
DA:13210,0
DA:13220,0
DA:13222,0
DA:13225,0
DA:13245,11
DA:13247,11
DA:13249,11
DA:13251,0
DA:13253,0
DA:13254,0
DA:13257,11
DA:13259,11
DA:13260,11
DA:13263,0
DA:13273,0
DA:13274,0
DA:13278,11
DA:13296,12
DA:13298,12
DA:13300,12
DA:13302,0
DA:13304,0
DA:13305,0
DA:13308,12
DA:13310,12
DA:13311,12
DA:13314,0
DA:13324,0
DA:13325,0
DA:13329,12
DA:13337,59
DA:13340,59
DA:13342,0
DA:13345,59
DA:13347,59
DA:13349,0
DA:13350,0
DA:13352,59
DA:13353,118
DA:13355,0
DA:13364,0
DA:13373,49
DA:13375,49
DA:13678,14
DA:13679,14
DA:13691,6
DA:13693,6
DA:14850,0
DA:14852,0
DA:14854,0
DA:14856,0
DA:14859,0
DA:14861,0
DA:14864,0
DA:14866,0
DA:14948,2
DA:14950,2
DA:15016,2
DA:15017,2
DA:15018,2
DA:15020,21
DA:15022,21
DA:15023,21
DA:15026,13
DA:15028,13
DA:15029,13
DA:15048,2
DA:15049,2
DA:15051,2
DA:15053,2
DA:16863,0
DA:16865,0
DA:16955,0
DA:16960,0
DA:16961,0
DA:16971,0
DA:16977,0
DA:16979,0
DA:16980,0
DA:16982,0
DA:16989,0
DA:17016,0
DA:17017,0
DA:17018,0
DA:17019,0
DA:17021,0
DA:17022,0
DA:17023,0
DA:17024,0
DA:17026,0
DA:17027,0
DA:17028,0
DA:17029,0
DA:17030,0
DA:17032,0
DA:17043,0
DA:17045,0
DA:17047,0
DA:17054,0
DA:17056,0
DA:17058,0
DA:17060,0
DA:17061,0
DA:17064,0
DA:17071,0
DA:17073,0
DA:17075,0
DA:17076,0
DA:17078,0
DA:17096,0
DA:17098,0
DA:17099,0
DA:17111,0
DA:17112,0
DA:17113,0
DA:17114,0
DA:17118,0
DA:17119,0
DA:17120,0
DA:17122,0
DA:17123,0
DA:17124,0
DA:17148,0
DA:17149,0
DA:17150,0
DA:17151,0
DA:17152,0
DA:17155,0
DA:17158,0
DA:17160,0
DA:17235,0
DA:17287,0
DA:17288,0
DA:17379,0
DA:17380,0
DA:17381,0
DA:17382,0
DA:17384,0
DA:17385,0
DA:17386,0
DA:17388,0
DA:17389,0
DA:17390,0
DA:17392,0
DA:17399,0
DA:17408,0
DA:17410,0
DA:17411,0
DA:17413,0
DA:17415,0
DA:17416,0
DA:17418,0
DA:17420,0
DA:17421,0
DA:17423,0
DA:17425,0
DA:17426,0
DA:17428,0
DA:17430,0
DA:17431,0
DA:17433,0
DA:17435,0
DA:17436,0
DA:17438,0
DA:17440,0
DA:17441,0
DA:17443,0
DA:17445,0
DA:17446,0
DA:17449,0
DA:17450,0
DA:17453,0
DA:17456,0
DA:17457,0
DA:17458,0
DA:17459,0
DA:17480,0
DA:17481,0
DA:17482,0
DA:17484,0
DA:17485,0
DA:17486,0
DA:17488,0
DA:17494,0
DA:17512,0
DA:17513,0
DA:17515,0
DA:17516,0
DA:17525,0
DA:17527,0
DA:17528,0
DA:17534,0
DA:17536,0
DA:17537,0
DA:17557,0
DA:17558,0
DA:17564,0
DA:17565,0
DA:17570,0
DA:17571,0
DA:17575,0
DA:17576,0
DA:17590,0
DA:17591,0
DA:17595,0
DA:17606,0
DA:17607,0
DA:17609,0
DA:17612,0
DA:17657,0
DA:17659,0
DA:17668,0
DA:17669,0
DA:17670,0
DA:17671,0
DA:17677,0
DA:17678,0
DA:17682,0
DA:17683,0
DA:17693,0
DA:17694,0
DA:17695,0
DA:17697,0
DA:17699,0
DA:17703,0
DA:17711,0
DA:17712,0
DA:17735,0
DA:17738,0
DA:17739,0
DA:17750,0
DA:17752,0
DA:17755,0
DA:17756,0
DA:17757,0
DA:17780,0
DA:17781,0
DA:17783,0
DA:17785,0
DA:17786,0
DA:17795,0
DA:17800,0
DA:17801,0
DA:17822,0
DA:17825,0
DA:17826,0
DA:17835,0
DA:17837,0
DA:17838,0
DA:17840,0
DA:17842,0
DA:17843,0
DA:17847,0
DA:17850,0
DA:17851,0
DA:17855,0
DA:17856,0
DA:17858,0
DA:17860,0
DA:17861,0
DA:17862,0
DA:17866,0
DA:17867,0
DA:17868,0
DA:17869,0
DA:17870,0
DA:17873,0
DA:17887,0
DA:17890,0
DA:17891,0
DA:17893,0
DA:17894,0
DA:17900,0
DA:17905,0
DA:17907,0
DA:17908,0
DA:17909,0
DA:17912,0
DA:17917,0
DA:17919,0
DA:17920,0
DA:17921,0
DA:17924,0
DA:17929,0
DA:17930,0
DA:17931,0
DA:17932,0
DA:17933,0
DA:17936,0
DA:17941,0
DA:17948,0
DA:17949,0
DA:17950,0
DA:17953,0
DA:17954,0
DA:17972,0
DA:17975,0
DA:17978,0
DA:17980,0
DA:17981,0
DA:17988,0
DA:17990,0
DA:17992,0
DA:17993,0
DA:17994,0
DA:18000,0
DA:18006,0
DA:18007,0
DA:18008,0
DA:18010,0
DA:18013,0
DA:18015,0
DA:18017,0
DA:18018,0
DA:18019,0
DA:18021,0
DA:18075,2
DA:18077,4
DA:18078,4
DA:18079,2
DA:18080,2
DA:18081,2
DA:18082,2
DA:18083,4
DA:18084,2
DA:18091,2
DA:18115,9
DA:18121,9
DA:18123,2
DA:18125,2
DA:18127,0
DA:18128,0
DA:18131,2
DA:18133,0
DA:18136,0
DA:18137,0
DA:18139,0
DA:18143,0
DA:18144,0
DA:18146,0
DA:18147,0
DA:18148,0
DA:18149,0
DA:18150,0
DA:18151,0
DA:18155,0
DA:18156,0
DA:18157,0
DA:18158,0
DA:18159,0
DA:18160,0
DA:18161,0
DA:18163,0
DA:18164,0
DA:18165,0
DA:18169,2
DA:18172,2
DA:18173,4
DA:18175,2
DA:18176,2
DA:18177,2
DA:18178,2
DA:18179,2
DA:18183,2
DA:18184,4
DA:18185,2
DA:18186,2
DA:18187,2
DA:18188,2
DA:18190,2
DA:18193,2
DA:18196,2
DA:18198,2
DA:18200,1
DA:18201,1
DA:18204,1
DA:18206,0
DA:18209,0
DA:18210,0
DA:18212,0
DA:18216,0
DA:18217,0
DA:18219,0
DA:18220,0
DA:18221,0
DA:18225,0
DA:18226,0
DA:18227,0
DA:18229,0
DA:18230,0
DA:18231,0
DA:18235,1
DA:18238,1
DA:18239,9
DA:18241,4
DA:18242,2
DA:18246,1
DA:18247,1
DA:18249,1
DA:18252,1
DA:18255,3
DA:18257,3
DA:18258,3
DA:18259,3
DA:18260,3
DA:18263,0
DA:18265,0
DA:18267,0
DA:18270,0
DA:18271,0
DA:18273,0
DA:18276,0
DA:18278,0
DA:18280,0
DA:18282,0
DA:18283,0
DA:18285,0
DA:18286,0
DA:18288,0
DA:18291,0
DA:18292,0
DA:18294,0
DA:18295,0
DA:18297,0
DA:18301,0
DA:18303,0
DA:18304,0
DA:18305,0
DA:18309,0
DA:18311,0
DA:18313,0
DA:18314,0
DA:18316,0
DA:18317,0
DA:18319,0
DA:18322,0
DA:18323,0
DA:18325,0
DA:18326,0
DA:18330,0
DA:18333,0
DA:18336,0
DA:18338,0
DA:18340,0
DA:18344,0
DA:18346,0
DA:18349,2
DA:18351,2
DA:18352,2
DA:18355,0
DA:18357,0
DA:18358,0
DA:18361,0
DA:18363,0
DA:18364,0
DA:18367,0
DA:18369,0
DA:18370,0
DA:18373,0
DA:18375,0
DA:18376,0
DA:18399,7
DA:18401,7
DA:18402,7
DA:18403,7
DA:18406,7
DA:18407,7
DA:18409,47
DA:18411,40
DA:18413,40
DA:18415,40
DA:18417,40
DA:18419,0
DA:18421,0
DA:18422,0
DA:18423,0
DA:18426,0
DA:18428,0
DA:18429,0
DA:18430,0
DA:18433,0
DA:18435,0
DA:18436,0
DA:18437,0
DA:18440,0
DA:18442,0
DA:18443,0
DA:18444,0
DA:18447,0
DA:18449,0
DA:18450,0
DA:18451,0
DA:18454,0
DA:18456,0
DA:18457,0
DA:18458,0
DA:18461,0
DA:18463,0
DA:18464,0
DA:18465,0
DA:18468,40
DA:18472,40
DA:18474,0
DA:18477,0
DA:18479,0
DA:18484,0
DA:18485,0
DA:18486,0
DA:18487,0
DA:18494,40
DA:18496,40
DA:18503,80
DA:18505,0
DA:18506,0
DA:18510,40
DA:18511,40
DA:18512,40
DA:18515,0
DA:18517,0
DA:18519,0
DA:18521,0
DA:18524,0
DA:18531,0
DA:18533,0
DA:18538,0
DA:18540,0
DA:18543,0
DA:18545,0
DA:18546,0
DA:18547,0
DA:18548,0
DA:18549,0
DA:18550,0
DA:18554,0
DA:18555,0
DA:18556,0
DA:18562,0
DA:18564,0
DA:18565,0
DA:18568,0
DA:18571,0
DA:18574,0
DA:18575,0
DA:18581,0
DA:18584,0
DA:18586,0
DA:18589,0
DA:18591,0
DA:18592,0
DA:18598,7
DA:18601,7
DA:18603,14
DA:18609,0
DA:18611,0
DA:18613,0
DA:18616,0
DA:18619,0
DA:18620,0
DA:18623,0
DA:18626,0
DA:18628,0
DA:18630,0
DA:18634,0
DA:18636,0
DA:18643,7
DA:18654,1
DA:18656,1
DA:18659,1
DA:18661,1
DA:18663,0
DA:18665,0
DA:18667,0
DA:18669,0
DA:18671,0
DA:18673,0
DA:18675,0
DA:18676,0
DA:18685,0
DA:18687,0
DA:18688,0
DA:18689,0
DA:18690,0
DA:18691,0
DA:18692,0
DA:18696,1
DA:18698,1
DA:18702,0
DA:18704,0
DA:18722,2
DA:18741,2
DA:18743,1
DA:18744,1
DA:18748,1
DA:18752,1
DA:18754,1
DA:18756,0
DA:18757,0
DA:18760,0
DA:18764,1
DA:18765,1
DA:18769,2
DA:18773,1
DA:18777,1
DA:18779,0
DA:18780,0
DA:18781,0
DA:18782,0
DA:18785,1
DA:18787,0
DA:18788,0
DA:18789,0
DA:18793,1
DA:18796,2
DA:18807,0
DA:18810,0
DA:18812,0
DA:18813,0
DA:18825,0
DA:18828,0
DA:18830,0
DA:18831,0
DA:18833,0
DA:18834,0
DA:18908,40
DA:18930,80
DA:18931,40
DA:18933,80
DA:18934,40
DA:18935,40
DA:18937,40
DA:18938,40
DA:18939,40
DA:18940,40
DA:18963,0
DA:18965,0
DA:18966,0
DA:19434,2
DA:19441,2
DA:19442,8
DA:19680,203
DA:19685,203
DA:19687,0
DA:19689,203
DA:19690,247
DA:19691,203
DA:19692,406
DA:19693,203
DA:19747,2
DA:19749,14
DA:19751,2
DA:19753,0
DA:19755,63
DA:19757,63
DA:19759,2
DA:19761,2
DA:19762,2
DA:19765,2
DA:19767,2
DA:19768,2
DA:19771,0
DA:19773,0
DA:19774,0
DA:19777,0
DA:19779,0
DA:19780,0
DA:19783,0
DA:19785,0
DA:19786,0
DA:19789,0
DA:19791,0
DA:19792,0
DA:19795,0
DA:19797,0
DA:19798,0
DA:19801,0
DA:19803,0
DA:19804,0
DA:19807,59
DA:19809,59
DA:19810,59
DA:19813,0
DA:19816,0
DA:19817,0
DA:19821,0
DA:19824,63
DA:19827,55
DA:19833,9
DA:19839,74
DA:19851,0
DA:19856,742
DA:19858,742
DA:19859,742
DA:19860,742
DA:19861,742
DA:19862,0
DA:19866,0
DA:19868,742
DA:19871,148
DA:19874,148
DA:19876,120
DA:19877,120
DA:19881,28
DA:19882,68
DA:19884,80
DA:19888,468
DA:19891,320
DA:19892,160
DA:19896,160
DA:19898,78
DA:19900,78
DA:19902,82
DA:19904,27
DA:19906,36
DA:19909,9
DA:19915,148
DA:19917,742
DA:19919,28
DA:19922,28
DA:19923,28
DA:19924,28
DA:19927,120
DA:19930,120
DA:19931,120
DA:19932,120
DA:19935,55
DA:19938,55
DA:19939,55
DA:19940,55
DA:19943,0
DA:19946,0
DA:19947,0
DA:19948,0
DA:19951,539
DA:19959,539
DA:19984,2148
DA:19986,2148
DA:19987,2148
DA:19988,2148
DA:19989,2148
DA:20003,2148
DA:20005,682
DA:20040,682
DA:20055,129
DA:20090,129
DA:20117,63
DA:20118,63
DA:20120,63
DA:20121,63
DA:20125,59
DA:20126,59
DA:20128,59
DA:20129,59
DA:20137,45
DA:20140,45
DA:20141,45
DA:20142,45
DA:20143,45
DA:20144,45
DA:20204,42
DA:20207,42
DA:20210,42
DA:20211,0
DA:20216,0
DA:20220,42
DA:20223,42
DA:20225,42
DA:20229,42
DA:20231,0
DA:20235,42
DA:20238,0
DA:20239,0
DA:20241,0
DA:20243,0
DA:20244,0
DA:20245,0
DA:20246,0
DA:20252,42
DA:20253,42
DA:20256,42
DA:20257,42
DA:20258,42
DA:20307,42
DA:20309,42
DA:20443,0
DA:20447,113
DA:20448,113
DA:20450,113
DA:20452,113
DA:20454,113
DA:20456,9
DA:20458,9
DA:20459,9
DA:20462,74
DA:20464,74
DA:20465,74
DA:20468,30
DA:20470,30
DA:20471,30
DA:20474,0
DA:20476,0
DA:20477,0
DA:20480,0
DA:20482,0
DA:20483,0
DA:20486,0
DA:20488,0
DA:20489,0
DA:20492,0
DA:20494,0
DA:20495,0
DA:20498,0
DA:20500,0
DA:20501,0
DA:20504,0
DA:20507,0
DA:20510,113
DA:20511,113
DA:20512,113
DA:20516,434
DA:20517,434
DA:20518,434
DA:20521,434
DA:20524,434
DA:20525,434
DA:20527,434
DA:20528,434
DA:20529,434
DA:20533,42
DA:20542,42
DA:20545,42
DA:20546,42
DA:20549,42
DA:20550,42
DA:20551,42
DA:20556,697
DA:20558,697
DA:20559,697
DA:20574,2
DA:20579,2
DA:20580,2
DA:20582,2
DA:20584,0
DA:20588,2
DA:20591,2
DA:20592,2
DA:20610,0
DA:20612,0
DA:20617,208
DA:20619,208
DA:20624,0
DA:20626,0
DA:20638,6
DA:20640,6
DA:20645,0
DA:20647,0
DA:20652,0
DA:20654,0
DA:20659,202
DA:20661,202
DA:20666,257
DA:20668,257
DA:20673,44
DA:20675,44
DA:20680,0
DA:20682,0
DA:20687,0
DA:20689,0
DA:20694,6
DA:20696,6
DA:20748,22
DA:20750,22
DA:20760,0
DA:20762,0
DA:20772,6
DA:20774,6
DA:20784,0
DA:20786,0
DA:20796,0
DA:20798,0
DA:20858,28
DA:20861,28
DA:20908,30
DA:20911,30
DA:20912,30
DA:20913,30
DA:20914,0
DA:21046,30
DA:21055,30
DA:21198,14
DA:21201,14
DA:21362,32
DA:21365,32
DA:21367,0
DA:21368,0
DA:21369,0
DA:21373,32
DA:21376,32
DA:21383,0
DA:21397,0
DA:21400,32
DA:21403,0
DA:21408,0
DA:21411,0
DA:21413,0
DA:21416,0
DA:21421,82
DA:21424,82
DA:21426,17
DA:21427,17
DA:21428,17
DA:21432,82
DA:21434,164
DA:21435,164
DA:21438,0
DA:21443,24
DA:21446,24
DA:21448,24
DA:21449,24
DA:21450,48
DA:21453,0
DA:21459,82
DA:21461,164
DA:21465,24
DA:21467,48
DA:21731,0
DA:21734,0
DA:21736,0
DA:21739,0
DA:21741,0
DA:21743,0
DA:21750,0
DA:21752,0
DA:21755,0
DA:21758,0
DA:21759,0
DA:21760,0
DA:21762,0
DA:21765,0
DA:21766,0
DA:21767,0
DA:21770,0
DA:21771,0
DA:21772,0
DA:21775,0
DA:21777,0
DA:21778,0
DA:21781,0
DA:21783,0
DA:21784,0
DA:21787,0
DA:21790,0
DA:21793,0
DA:22070,46
DA:22072,46
DA:22073,46
DA:22074,46
DA:22079,2
DA:22081,2
DA:22086,2
DA:22088,2
DA:22089,2
DA:22090,2
DA:22095,40
DA:22097,40
DA:22098,40
DA:22099,40
DA:22104,2
DA:22106,2
DA:22111,2
DA:22113,2
DA:22114,2
DA:22115,2
DA:22120,4
DA:22122,4
DA:22134,10
DA:22136,10
DA:22247,36
DA:22249,36
DA:22251,0
DA:22254,0
DA:22257,36
DA:22260,36
DA:22263,0
DA:22266,0
DA:22269,0
DA:22279,0
DA:22286,0
DA:22288,0
DA:22290,0
DA:22293,0
DA:22296,0
DA:22299,0
DA:22302,0
DA:22313,0
DA:22390,12
DA:22393,12
DA:22395,0
DA:22399,12
DA:22401,0
DA:22402,0
DA:22403,0
DA:22407,12
DA:22408,24
DA:22409,12
DA:22411,12
DA:22423,35
DA:22426,35
DA:22428,0
DA:22432,35
DA:22434,0
DA:22435,0
DA:22436,0
DA:22440,35
DA:22441,35
DA:22442,35
DA:22443,35
DA:23317,2
DA:23322,2
DA:23323,4
DA:23324,2
DA:23325,0
DA:23460,0
DA:23462,0
DA:23464,0
DA:23465,0
DA:23466,0
DA:23467,0
DA:23468,0
DA:23469,0
DA:23470,0
DA:23471,0
DA:23472,0
DA:23473,0
DA:23474,0
DA:23475,0
DA:23476,0
DA:23477,0
DA:23478,0
DA:23482,0
DA:23499,63
DA:23500,63
DA:23502,63
DA:23510,200
DA:23516,697
DA:23518,697
DA:23519,697
LF:2213
LH:760
end_of_record
TN:
SF:/home/osnsab/Документы/Sem3/laba3/laba3/UnitC++Test/src/ArrayTest.cpp
FNL:0,106,120
FNA:0,1,_ZN38ArrayTest_EmptyArraySerialization_Test8TestBodyEv
FNA:0,1,_ZN38ArrayTest_EmptyArraySerialization_TestC2Ev
FNA:0,1,_ZN38ArrayTest_EmptyArraySerialization_TestD0Ev
FNA:0,1,_ZN38ArrayTest_EmptyArraySerialization_TestD2Ev
FNL:1,11,23
FNA:1,1,_ZN21ArrayTest_Insert_Test8TestBodyEv
FNA:1,1,_ZN21ArrayTest_Insert_TestC2Ev
FNA:1,1,_ZN21ArrayTest_Insert_TestD0Ev
FNA:1,1,_ZN21ArrayTest_Insert_TestD2Ev
FNL:2,122,126
FNA:2,1,_ZN20ArrayTest_Print_Test8TestBodyEv
FNA:2,1,_ZN20ArrayTest_Print_TestC2Ev
FNA:2,1,_ZN20ArrayTest_Print_TestD0Ev
FNA:2,1,_ZN20ArrayTest_Print_TestD2Ev
FNL:3,25,33
FNA:3,1,_ZN27ArrayTest_InsertErrors_Test8TestBodyEv
FNA:3,1,_ZN27ArrayTest_InsertErrors_TestC2Ev
FNA:3,1,_ZN27ArrayTest_InsertErrors_TestD0Ev
FNA:3,1,_ZN27ArrayTest_InsertErrors_TestD2Ev
FNL:4,35,46
FNA:4,1,_ZN21ArrayTest_Remove_Test8TestBodyEv
FNA:4,1,_ZN21ArrayTest_Remove_TestC2Ev
FNA:4,1,_ZN21ArrayTest_Remove_TestD0Ev
FNA:4,1,_ZN21ArrayTest_Remove_TestD2Ev
FNL:5,48,56
FNA:5,1,_ZN21ArrayTest_SetGet_Test8TestBodyEv
FNA:5,1,_ZN21ArrayTest_SetGet_TestC2Ev
FNA:5,1,_ZN21ArrayTest_SetGet_TestD0Ev
FNA:5,1,_ZN21ArrayTest_SetGet_TestD2Ev
FNL:6,5,9
FNA:6,1,_ZN41ArrayTest_ConstructorAndInitialState_Test8TestBodyEv
FNA:6,1,_ZN41ArrayTest_ConstructorAndInitialState_TestC2Ev
FNA:6,1,_ZN41ArrayTest_ConstructorAndInitialState_TestD0Ev
FNA:6,1,_ZN41ArrayTest_ConstructorAndInitialState_TestD2Ev
FNL:7,58,70
FNA:7,1,_ZN28ArrayTest_Serialization_Test8TestBodyEv
FNA:7,1,_ZN28ArrayTest_Serialization_TestC2Ev
FNA:7,1,_ZN28ArrayTest_Serialization_TestD0Ev
FNA:7,1,_ZN28ArrayTest_Serialization_TestD2Ev
FNL:8,72,87
FNA:8,1,_ZN34ArrayTest_BinarySerialization_Test8TestBodyEv
FNA:8,1,_ZN34ArrayTest_BinarySerialization_TestC2Ev
FNA:8,1,_ZN34ArrayTest_BinarySerialization_TestD0Ev
FNA:8,1,_ZN34ArrayTest_BinarySerialization_TestD2Ev
FNL:9,89,104
FNA:9,1,_ZN32ArrayTest_TextSerialization_Test8TestBodyEv
FNA:9,1,_ZN32ArrayTest_TextSerialization_TestC2Ev
FNA:9,1,_ZN32ArrayTest_TextSerialization_TestD0Ev
FNA:9,1,_ZN32ArrayTest_TextSerialization_TestD2Ev
FNF:10
FNH:10
DA:5,4
DA:6,1
DA:7,1
DA:8,1
DA:9,1
DA:11,4
DA:12,1
DA:13,1
DA:14,1
DA:15,1
DA:16,1
DA:18,2
DA:19,1
DA:20,1
DA:21,1
DA:22,1
DA:23,1
DA:25,4
DA:26,1
DA:27,3
DA:29,2
DA:30,2
DA:31,1
DA:32,3
DA:33,1
DA:35,4
DA:36,1
DA:37,2
DA:38,2
DA:39,1
DA:41,1
DA:42,1
DA:43,1
DA:45,1
DA:46,1
DA:48,4
DA:49,1
DA:50,2
DA:51,1
DA:52,1
DA:54,1
DA:55,3
DA:56,1
DA:58,4
DA:59,1
DA:60,2
DA:61,1
DA:63,1
DA:64,1
DA:65,1
DA:67,1
DA:68,1
DA:69,1
DA:70,1
DA:72,4
DA:73,1
DA:74,2
DA:75,1
DA:77,1
DA:78,1
DA:80,1
DA:81,1
DA:82,1
DA:84,1
DA:85,1
DA:86,1
DA:87,1
DA:89,4
DA:90,1
DA:91,2
DA:92,1
DA:94,1
DA:95,1
DA:97,1
DA:98,1
DA:99,1
DA:101,1
DA:102,1
DA:103,1
DA:104,1
DA:106,4
DA:107,1
DA:109,1
DA:110,1
DA:111,1
DA:112,1
DA:114,2
DA:115,1
DA:116,2
DA:117,2
DA:118,1
DA:119,1
DA:120,1
DA:122,4
DA:123,1
DA:124,1
DA:125,1
DA:126,1
LF:98
LH:98
end_of_record
TN:
SF:/home/osnsab/Документы/Sem3/laba3/laba3/UnitC++Test/src/ChainHashTableTest.cpp
FNL:0,109,130
FNA:0,1,_ZN47ChainHashTableTest_EmptyTableSerialization_Test8TestBodyEv
FNA:0,1,_ZN47ChainHashTableTest_EmptyTableSerialization_TestC2Ev
FNA:0,1,_ZN47ChainHashTableTest_EmptyTableSerialization_TestD0Ev
FNA:0,1,_ZN47ChainHashTableTest_EmptyTableSerialization_TestD2Ev
FNL:1,11,22
FNA:1,1,_ZN37ChainHashTableTest_InsertAndFind_Test8TestBodyEv
FNA:1,1,_ZN37ChainHashTableTest_InsertAndFind_TestC2Ev
FNA:1,1,_ZN37ChainHashTableTest_InsertAndFind_TestD0Ev
FNA:1,1,_ZN37ChainHashTableTest_InsertAndFind_TestD2Ev
FNL:2,132,144
FNA:2,1,_ZN41ChainHashTableTest_CollisionHandling_Test8TestBodyEv
FNA:2,1,_ZN41ChainHashTableTest_CollisionHandling_TestC2Ev
FNA:2,1,_ZN41ChainHashTableTest_CollisionHandling_TestD0Ev
FNA:2,1,_ZN41ChainHashTableTest_CollisionHandling_TestD2Ev
FNL:3,24,31
FNA:3,1,_ZN35ChainHashTableTest_UpdateValue_Test8TestBodyEv
FNA:3,1,_ZN35ChainHashTableTest_UpdateValue_TestC2Ev
FNA:3,1,_ZN35ChainHashTableTest_UpdateValue_TestD0Ev
FNA:3,1,_ZN35ChainHashTableTest_UpdateValue_TestD2Ev
FNL:4,33,45
FNA:4,1,_ZN30ChainHashTableTest_Remove_Test8TestBodyEv
FNA:4,1,_ZN30ChainHashTableTest_Remove_TestC2Ev
FNA:4,1,_ZN30ChainHashTableTest_Remove_TestD0Ev
FNA:4,1,_ZN30ChainHashTableTest_Remove_TestD2Ev
FNL:5,47,53
FNA:5,1,_ZN30ChainHashTableTest_HasKey_Test8TestBodyEv
FNA:5,1,_ZN30ChainHashTableTest_HasKey_TestC2Ev
FNA:5,1,_ZN30ChainHashTableTest_HasKey_TestD0Ev
FNA:5,1,_ZN30ChainHashTableTest_HasKey_TestD2Ev
FNL:6,5,9
FNA:6,1,_ZN50ChainHashTableTest_ConstructorAndInitialState_Test8TestBodyEv
FNA:6,1,_ZN50ChainHashTableTest_ConstructorAndInitialState_TestC2Ev
FNA:6,1,_ZN50ChainHashTableTest_ConstructorAndInitialState_TestD0Ev
FNA:6,1,_ZN50ChainHashTableTest_ConstructorAndInitialState_TestD2Ev
FNL:7,55,69
FNA:7,1,_ZN41ChainHashTableTest_JsonSerialization_Test8TestBodyEv
FNA:7,1,_ZN41ChainHashTableTest_JsonSerialization_TestC2Ev
FNA:7,1,_ZN41ChainHashTableTest_JsonSerialization_TestD0Ev
FNA:7,1,_ZN41ChainHashTableTest_JsonSerialization_TestD2Ev
FNL:8,71,88
FNA:8,1,_ZN43ChainHashTableTest_BinarySerialization_Test8TestBodyEv
FNA:8,1,_ZN43ChainHashTableTest_BinarySerialization_TestC2Ev
FNA:8,1,_ZN43ChainHashTableTest_BinarySerialization_TestD0Ev
FNA:8,1,_ZN43ChainHashTableTest_BinarySerialization_TestD2Ev
FNL:9,90,107
FNA:9,1,_ZN41ChainHashTableTest_TextSerialization_Test8TestBodyEv
FNA:9,1,_ZN41ChainHashTableTest_TextSerialization_TestC2Ev
FNA:9,1,_ZN41ChainHashTableTest_TextSerialization_TestD0Ev
FNA:9,1,_ZN41ChainHashTableTest_TextSerialization_TestD2Ev
FNF:10
FNH:10
DA:5,4
DA:6,1
DA:7,1
DA:8,1
DA:9,1
DA:11,4
DA:12,1
DA:13,4
DA:14,3
DA:16,1
DA:17,1
DA:19,2
DA:20,2
DA:21,2
DA:22,1
DA:24,4
DA:25,1
DA:26,4
DA:27,3
DA:29,1
DA:30,2
DA:31,1
DA:33,4
DA:34,1
DA:35,4
DA:36,4
DA:37,4
DA:39,1
DA:40,1
DA:41,2
DA:43,1
DA:44,1
DA:45,1
DA:47,4
DA:48,1
DA:49,4
DA:51,2
DA:52,2
DA:53,1
DA:55,4
DA:56,1
DA:57,4
DA:58,4
DA:59,3
DA:61,1
DA:62,1
DA:63,1
DA:65,1
DA:66,2
DA:67,2
DA:68,2
DA:69,1
DA:71,4
DA:72,1
DA:73,4
DA:74,4
DA:75,3
DA:77,1
DA:78,1
DA:80,1
DA:81,1
DA:82,1
DA:84,1
DA:85,2
DA:86,2
DA:87,2
DA:88,1
DA:90,4
DA:91,1
DA:92,4
DA:93,4
DA:94,3
DA:96,1
DA:97,1
DA:99,1
DA:100,1
DA:101,1
DA:103,1
DA:104,2
DA:105,2
DA:106,2
DA:107,1
DA:109,4
DA:110,1
DA:112,1
DA:113,1
DA:114,1
DA:115,1
DA:117,2
DA:118,1
DA:119,2
DA:120,2
DA:121,1
DA:122,1
DA:124,2
DA:125,1
DA:126,2
DA:127,2
DA:128,1
DA:129,1
DA:130,1
DA:132,4
DA:133,1
DA:135,21
DA:136,20
DA:139,1
DA:141,21
DA:142,20
DA:144,1
LF:109
LH:109
end_of_record
TN:
SF:/home/osnsab/Документы/Sem3/laba3/laba3/UnitC++Test/src/DoublyListTest.cpp
FNL:0,11,21
FNA:0,1,_ZN33DoublyListTest_PushFrontBack_Test8TestBodyEv
FNA:0,1,_ZN33DoublyListTest_PushFrontBack_TestC2Ev
FNA:0,1,_ZN33DoublyListTest_PushFrontBack_TestD0Ev
FNA:0,1,_ZN33DoublyListTest_PushFrontBack_TestD2Ev
FNL:1,110,125
FNA:1,1,_ZN39DoublyListTest_BinarySerialization_Test8TestBodyEv
FNA:1,1,_ZN39DoublyListTest_BinarySerialization_TestC2Ev
FNA:1,1,_ZN39DoublyListTest_BinarySerialization_TestD0Ev
FNA:1,1,_ZN39DoublyListTest_BinarySerialization_TestD2Ev
FNL:2,127,142
FNA:2,1,_ZN37DoublyListTest_TextSerialization_Test8TestBodyEv
FNA:2,1,_ZN37DoublyListTest_TextSerialization_TestC2Ev
FNA:2,1,_ZN37DoublyListTest_TextSerialization_TestD0Ev
FNA:2,1,_ZN37DoublyListTest_TextSerialization_TestD2Ev
FNL:3,144,158
FNA:3,1,_ZN42DoublyListTest_EmptyListSerialization_Test8TestBodyEv
FNA:3,1,_ZN42DoublyListTest_EmptyListSerialization_TestC2Ev
FNA:3,1,_ZN42DoublyListTest_EmptyListSerialization_TestD0Ev
FNA:3,1,_ZN42DoublyListTest_EmptyListSerialization_TestD2Ev
FNL:4,160,165
FNA:4,1,_ZN25DoublyListTest_Print_Test8TestBodyEv
FNA:4,1,_ZN25DoublyListTest_Print_TestC2Ev
FNA:4,1,_ZN25DoublyListTest_Print_TestD0Ev
FNA:4,1,_ZN25DoublyListTest_Print_TestD2Ev
FNL:5,23,43
FNA:5,1,_ZN32DoublyListTest_PopFrontBack_Test8TestBodyEv
FNA:5,1,_ZN32DoublyListTest_PopFrontBack_TestC2Ev
FNA:5,1,_ZN32DoublyListTest_PopFrontBack_TestD0Ev
FNA:5,1,_ZN32DoublyListTest_PopFrontBack_TestD2Ev
FNL:6,45,63
FNA:6,1,_ZN26DoublyListTest_Insert_Test8TestBodyEv
FNA:6,1,_ZN26DoublyListTest_Insert_TestC2Ev
FNA:6,1,_ZN26DoublyListTest_Insert_TestD0Ev
FNA:6,1,_ZN26DoublyListTest_Insert_TestD2Ev
FNL:7,5,9
FNA:7,1,_ZN46DoublyListTest_ConstructorAndInitialState_Test8TestBodyEv
FNA:7,1,_ZN46DoublyListTest_ConstructorAndInitialState_TestC2Ev
FNA:7,1,_ZN46DoublyListTest_ConstructorAndInitialState_TestD0Ev
FNA:7,1,_ZN46DoublyListTest_ConstructorAndInitialState_TestD2Ev
FNL:8,65,84
FNA:8,1,_ZN26DoublyListTest_Remove_Test8TestBodyEv
FNA:8,1,_ZN26DoublyListTest_Remove_TestC2Ev
FNA:8,1,_ZN26DoublyListTest_Remove_TestD0Ev
FNA:8,1,_ZN26DoublyListTest_Remove_TestD2Ev
FNL:9,86,92
FNA:9,1,_ZN23DoublyListTest_Get_Test8TestBodyEv
FNA:9,1,_ZN23DoublyListTest_Get_TestC2Ev
FNA:9,1,_ZN23DoublyListTest_Get_TestD0Ev
FNA:9,1,_ZN23DoublyListTest_Get_TestD2Ev
FNL:10,94,108
FNA:10,1,_ZN33DoublyListTest_Serialization_Test8TestBodyEv
FNA:10,1,_ZN33DoublyListTest_Serialization_TestC2Ev
FNA:10,1,_ZN33DoublyListTest_Serialization_TestD0Ev
FNA:10,1,_ZN33DoublyListTest_Serialization_TestD2Ev
FNF:11
FNH:11
DA:5,4
DA:6,1
DA:7,1
DA:8,1
DA:9,1
DA:11,4
DA:12,1
DA:13,2
DA:14,2
DA:15,1
DA:17,1
DA:18,1
DA:19,1
DA:20,1
DA:21,1
DA:23,4
DA:24,1
DA:25,2
DA:26,2
DA:27,1
DA:29,1
DA:30,1
DA:31,1
DA:33,1
DA:34,1
DA:35,1
DA:37,1
DA:38,1
DA:40,1
DA:41,0
DA:42,0
DA:43,1
DA:45,4
DA:46,1
DA:47,2
DA:48,2
DA:49,1
DA:51,1
DA:52,1
DA:53,1
DA:54,1
DA:56,1
DA:57,1
DA:59,1
DA:60,1
DA:62,3
DA:63,1
DA:65,4
DA:66,1
DA:67,2
DA:68,2
DA:69,1
DA:71,1
DA:72,1
DA:73,1
DA:74,1
DA:76,1
DA:77,1
DA:79,1
DA:80,1
DA:81,1
DA:83,1
DA:84,1
DA:86,4
DA:87,1
DA:88,1
DA:89,1
DA:91,1
DA:92,1
DA:94,4
DA:95,1
DA:96,2
DA:97,2
DA:98,1
DA:100,1
DA:101,1
DA:102,1
DA:104,1
DA:105,1
DA:106,1
DA:107,1
DA:108,1
DA:110,4
DA:111,1
DA:112,2
DA:113,1
DA:115,1
DA:116,1
DA:118,1
DA:119,1
DA:120,1
DA:122,1
DA:123,1
DA:124,1
DA:125,1
DA:127,4
DA:128,1
DA:129,2
DA:130,1
DA:132,1
DA:133,1
DA:135,1
DA:136,1
DA:137,1
DA:139,1
DA:140,1
DA:141,1
DA:142,1
DA:144,4
DA:145,1
DA:147,1
DA:148,1
DA:149,1
DA:150,1
DA:152,2
DA:153,1
DA:154,2
DA:155,2
DA:156,1
DA:157,1
DA:158,1
DA:160,4
DA:161,1
DA:162,2
DA:163,1
DA:164,1
DA:165,1
LF:127
LH:125
end_of_record
TN:
SF:/home/osnsab/Документы/Sem3/laba3/laba3/UnitC++Test/src/ForwardListTest.cpp
FNL:0,100,112
FNA:0,1,_ZN43ForwardListTest_EmptyListSerialization_Test8TestBodyEv
FNA:0,1,_ZN43ForwardListTest_EmptyListSerialization_TestC2Ev
FNA:0,1,_ZN43ForwardListTest_EmptyListSerialization_TestD0Ev
FNA:0,1,_ZN43ForwardListTest_EmptyListSerialization_TestD2Ev
FNL:1,17,28
FNA:1,1,_ZN29ForwardListTest_PopFront_Test8TestBodyEv
FNA:1,1,_ZN29ForwardListTest_PopFront_TestC2Ev
FNA:1,1,_ZN29ForwardListTest_PopFront_TestD0Ev
FNA:1,1,_ZN29ForwardListTest_PopFront_TestD2Ev
FNL:2,30,40
FNA:2,1,_ZN27ForwardListTest_Insert_Test8TestBodyEv
FNA:2,1,_ZN27ForwardListTest_Insert_TestC2Ev
FNA:2,1,_ZN27ForwardListTest_Insert_TestD0Ev
FNA:2,1,_ZN27ForwardListTest_Insert_TestD2Ev
FNL:3,4,7
FNA:3,1,_ZN47ForwardListTest_ConstructorAndInitialState_Test8TestBodyEv
FNA:3,1,_ZN47ForwardListTest_ConstructorAndInitialState_TestC2Ev
FNA:3,1,_ZN47ForwardListTest_ConstructorAndInitialState_TestD0Ev
FNA:3,1,_ZN47ForwardListTest_ConstructorAndInitialState_TestD2Ev
FNL:4,42,52
FNA:4,1,_ZN27ForwardListTest_Remove_Test8TestBodyEv
FNA:4,1,_ZN27ForwardListTest_Remove_TestC2Ev
FNA:4,1,_ZN27ForwardListTest_Remove_TestD0Ev
FNA:4,1,_ZN27ForwardListTest_Remove_TestD2Ev
FNL:5,54,68
FNA:5,1,_ZN34ForwardListTest_Serialization_Test8TestBodyEv
FNA:5,1,_ZN34ForwardListTest_Serialization_TestC2Ev
FNA:5,1,_ZN34ForwardListTest_Serialization_TestD0Ev
FNA:5,1,_ZN34ForwardListTest_Serialization_TestD2Ev
FNL:6,70,82
FNA:6,1,_ZN40ForwardListTest_BinarySerialization_Test8TestBodyEv
FNA:6,1,_ZN40ForwardListTest_BinarySerialization_TestC2Ev
FNA:6,1,_ZN40ForwardListTest_BinarySerialization_TestD0Ev
FNA:6,1,_ZN40ForwardListTest_BinarySerialization_TestD2Ev
FNL:7,84,98
FNA:7,1,_ZN38ForwardListTest_TextSerialization_Test8TestBodyEv
FNA:7,1,_ZN38ForwardListTest_TextSerialization_TestC2Ev
FNA:7,1,_ZN38ForwardListTest_TextSerialization_TestD0Ev
FNA:7,1,_ZN38ForwardListTest_TextSerialization_TestD2Ev
FNL:8,9,15
FNA:8,1,_ZN30ForwardListTest_PushFront_Test8TestBodyEv
FNA:8,1,_ZN30ForwardListTest_PushFront_TestC2Ev
FNA:8,1,_ZN30ForwardListTest_PushFront_TestD0Ev
FNA:8,1,_ZN30ForwardListTest_PushFront_TestD2Ev
FNF:9
FNH:9
DA:4,4
DA:5,1
DA:6,1
DA:7,1
DA:9,4
DA:10,1
DA:11,1
DA:12,1
DA:13,1
DA:14,1
DA:15,1
DA:17,4
DA:18,1
DA:19,1
DA:20,1
DA:21,1
DA:23,1
DA:24,1
DA:26,1
DA:27,0
DA:28,1
DA:30,4
DA:31,1
DA:32,2
DA:33,2
DA:34,1
DA:36,1
DA:37,1
DA:38,1
DA:39,1
DA:40,1
DA:42,4
DA:43,1
DA:44,2
DA:45,2
DA:46,1
DA:48,1
DA:49,1
DA:50,1
DA:51,1
DA:52,1
DA:54,4
DA:55,1
DA:56,2
DA:57,2
DA:58,1
DA:60,1
DA:61,1
DA:62,1
DA:64,1
DA:65,1
DA:66,1
DA:67,1
DA:68,1
DA:70,4
DA:71,1
DA:72,2
DA:73,2
DA:75,1
DA:76,1
DA:77,1
DA:79,1
DA:80,1
DA:81,1
DA:82,1
DA:84,4
DA:85,1
DA:86,2
DA:87,2
DA:88,3
DA:90,1
DA:91,1
DA:92,1
DA:94,1
DA:95,1
DA:96,1
DA:97,1
DA:98,1
DA:100,4
DA:101,1
DA:103,1
DA:104,1
DA:105,1
DA:106,1
DA:108,1
DA:109,2
DA:110,1
DA:111,1
DA:112,1
LF:89
LH:88
end_of_record
TN:
SF:/home/osnsab/Документы/Sem3/laba3/laba3/UnitC++Test/src/QueueTest.cpp
FNL:0,102,107
FNA:0,1,_ZN20QueueTest_Print_Test8TestBodyEv
FNA:0,1,_ZN20QueueTest_Print_TestC2Ev
FNA:0,1,_ZN20QueueTest_Print_TestD0Ev
FNA:0,1,_ZN20QueueTest_Print_TestD2Ev
FNL:1,109,124
FNA:1,1,_ZN32QueueTest_ComplexOperations_Test8TestBodyEv
FNA:1,1,_ZN32QueueTest_ComplexOperations_TestC2Ev
FNA:1,1,_ZN32QueueTest_ComplexOperations_TestD0Ev
FNA:1,1,_ZN32QueueTest_ComplexOperations_TestD2Ev
FNL:2,12,22
FNA:2,1,_ZN22QueueTest_Enqueue_Test8TestBodyEv
FNA:2,1,_ZN22QueueTest_Enqueue_TestC2Ev
FNA:2,1,_ZN22QueueTest_Enqueue_TestD0Ev
FNA:2,1,_ZN22QueueTest_Enqueue_TestD2Ev
FNL:3,24,38
FNA:3,1,_ZN22QueueTest_Dequeue_Test8TestBodyEv
FNA:3,1,_ZN22QueueTest_Dequeue_TestC2Ev
FNA:3,1,_ZN22QueueTest_Dequeue_TestD0Ev
FNA:3,1,_ZN22QueueTest_Dequeue_TestD2Ev
FNL:4,40,52
FNA:4,1,_ZN28QueueTest_Serialization_Test8TestBodyEv
FNA:4,1,_ZN28QueueTest_Serialization_TestC2Ev
FNA:4,1,_ZN28QueueTest_Serialization_TestD0Ev
FNA:4,1,_ZN28QueueTest_Serialization_TestD2Ev
FNL:5,5,10
FNA:5,1,_ZN41QueueTest_ConstructorAndInitialState_Test8TestBodyEv
FNA:5,1,_ZN41QueueTest_ConstructorAndInitialState_TestC2Ev
FNA:5,1,_ZN41QueueTest_ConstructorAndInitialState_TestD0Ev
FNA:5,1,_ZN41QueueTest_ConstructorAndInitialState_TestD2Ev
FNL:6,54,68
FNA:6,1,_ZN34QueueTest_BinarySerialization_Test8TestBodyEv
FNA:6,1,_ZN34QueueTest_BinarySerialization_TestC2Ev
FNA:6,1,_ZN34QueueTest_BinarySerialization_TestD0Ev
FNA:6,1,_ZN34QueueTest_BinarySerialization_TestD2Ev
FNL:7,70,84
FNA:7,1,_ZN32QueueTest_TextSerialization_Test8TestBodyEv
FNA:7,1,_ZN32QueueTest_TextSerialization_TestC2Ev
FNA:7,1,_ZN32QueueTest_TextSerialization_TestD0Ev
FNA:7,1,_ZN32QueueTest_TextSerialization_TestD2Ev
FNL:8,86,100
FNA:8,1,_ZN38QueueTest_EmptyQueueSerialization_Test8TestBodyEv
FNA:8,1,_ZN38QueueTest_EmptyQueueSerialization_TestC2Ev
FNA:8,1,_ZN38QueueTest_EmptyQueueSerialization_TestD0Ev
FNA:8,1,_ZN38QueueTest_EmptyQueueSerialization_TestD2Ev
FNF:9
FNH:9
DA:5,4
DA:6,1
DA:7,1
DA:8,1
DA:9,1
DA:10,1
DA:12,4
DA:13,1
DA:14,1
DA:15,1
DA:16,1
DA:17,1
DA:19,1
DA:20,1
DA:21,1
DA:22,1
DA:24,4
DA:25,1
DA:26,2
DA:27,1
DA:29,1
DA:30,1
DA:31,1
DA:33,1
DA:34,1
DA:36,1
DA:37,0
DA:38,1
DA:40,4
DA:41,1
DA:42,2
DA:43,2
DA:44,1
DA:46,1
DA:47,1
DA:48,1
DA:50,1
DA:51,1
DA:52,1
DA:54,4
DA:55,1
DA:56,2
DA:57,1
DA:59,1
DA:60,1
DA:62,1
DA:63,1
DA:64,1
DA:66,1
DA:67,1
DA:68,1
DA:70,4
DA:71,1
DA:72,2
DA:73,1
DA:75,1
DA:76,1
DA:78,1
DA:79,1
DA:80,1
DA:82,1
DA:83,1
DA:84,1
DA:86,4
DA:87,1
DA:89,1
DA:90,1
DA:91,1
DA:92,1
DA:94,2
DA:95,1
DA:96,2
DA:97,2
DA:98,1
DA:99,1
DA:100,1
DA:102,4
DA:103,1
DA:104,2
DA:105,1
DA:106,1
DA:107,1
DA:109,4
DA:110,1
DA:112,6
DA:113,5
DA:116,1
DA:118,4
DA:119,3
DA:122,1
DA:123,1
DA:124,1
LF:92
LH:91
end_of_record
TN:
SF:/home/osnsab/Документы/Sem3/laba3/laba3/UnitC++Test/src/RedBlackTreeTest.cpp
FNL:0,10,25
FNA:0,1,_ZN28RedBlackTreeTest_Insert_Test8TestBodyEv
FNA:0,1,_ZN28RedBlackTreeTest_Insert_TestC2Ev
FNA:0,1,_ZN28RedBlackTreeTest_Insert_TestD0Ev
FNA:0,1,_ZN28RedBlackTreeTest_Insert_TestD2Ev
FNL:1,112,133
FNA:1,1,_ZN39RedBlackTreeTest_TextSerialization_Test8TestBodyEv
FNA:1,1,_ZN39RedBlackTreeTest_TextSerialization_TestC2Ev
FNA:1,1,_ZN39RedBlackTreeTest_TextSerialization_TestD0Ev
FNA:1,1,_ZN39RedBlackTreeTest_TextSerialization_TestD2Ev
FNL:2,135,156
FNA:2,1,_ZN44RedBlackTreeTest_EmptyTreeSerialization_Test8TestBodyEv
FNA:2,1,_ZN44RedBlackTreeTest_EmptyTreeSerialization_TestC2Ev
FNA:2,1,_ZN44RedBlackTreeTest_EmptyTreeSerialization_TestD0Ev
FNA:2,1,_ZN44RedBlackTreeTest_EmptyTreeSerialization_TestD2Ev
FNL:3,158,174
FNA:3,1,_ZN31RedBlackTreeTest_EdgeCases_Test8TestBodyEv
FNA:3,1,_ZN31RedBlackTreeTest_EdgeCases_TestC2Ev
FNA:3,1,_ZN31RedBlackTreeTest_EdgeCases_TestD0Ev
FNA:3,1,_ZN31RedBlackTreeTest_EdgeCases_TestD2Ev
FNL:4,176,194
FNA:4,1,_ZN40RedBlackTreeTest_ExtensiveRotations_Test8TestBodyEv
FNA:4,1,_ZN40RedBlackTreeTest_ExtensiveRotations_TestC2Ev
FNA:4,1,_ZN40RedBlackTreeTest_ExtensiveRotations_TestD0Ev
FNA:4,1,_ZN40RedBlackTreeTest_ExtensiveRotations_TestD2Ev
FNL:5,27,56
FNA:5,1,_ZN38RedBlackTreeTest_RotationCoverage_Test8TestBodyEv
FNA:5,1,_ZN38RedBlackTreeTest_RotationCoverage_TestC2Ev
FNA:5,1,_ZN38RedBlackTreeTest_RotationCoverage_TestD0Ev
FNA:5,1,_ZN38RedBlackTreeTest_RotationCoverage_TestD2Ev
FNL:6,5,8
FNA:6,1,_ZN48RedBlackTreeTest_ConstructorAndInitialState_Test8TestBodyEv
FNA:6,1,_ZN48RedBlackTreeTest_ConstructorAndInitialState_TestC2Ev
FNA:6,1,_ZN48RedBlackTreeTest_ConstructorAndInitialState_TestD0Ev
FNA:6,1,_ZN48RedBlackTreeTest_ConstructorAndInitialState_TestD2Ev
FNL:7,58,67
FNA:7,1,_ZN39RedBlackTreeTest_ComplexInsertions_Test8TestBodyEv
FNA:7,1,_ZN39RedBlackTreeTest_ComplexInsertions_TestC2Ev
FNA:7,1,_ZN39RedBlackTreeTest_ComplexInsertions_TestD0Ev
FNA:7,1,_ZN39RedBlackTreeTest_ComplexInsertions_TestD2Ev
FNL:8,69,87
FNA:8,1,_ZN42RedBlackTreeTest_SerializeDeserialize_Test8TestBodyEv
FNA:8,1,_ZN42RedBlackTreeTest_SerializeDeserialize_TestC2Ev
FNA:8,1,_ZN42RedBlackTreeTest_SerializeDeserialize_TestD0Ev
FNA:8,1,_ZN42RedBlackTreeTest_SerializeDeserialize_TestD2Ev
FNL:9,89,110
FNA:9,1,_ZN41RedBlackTreeTest_BinarySerialization_Test8TestBodyEv
FNA:9,1,_ZN41RedBlackTreeTest_BinarySerialization_TestC2Ev
FNA:9,1,_ZN41RedBlackTreeTest_BinarySerialization_TestD0Ev
FNA:9,1,_ZN41RedBlackTreeTest_BinarySerialization_TestD2Ev
FNF:10
FNH:10
DA:5,4
DA:6,1
DA:7,1
DA:8,1
DA:10,4
DA:11,1
DA:12,2
DA:13,2
DA:14,2
DA:15,2
DA:16,1
DA:18,1
DA:19,2
DA:20,2
DA:21,2
DA:22,2
DA:23,2
DA:24,2
DA:25,1
DA:27,4
DA:28,1
DA:30,2
DA:31,2
DA:32,2
DA:33,2
DA:34,2
DA:35,2
DA:36,2
DA:37,2
DA:38,2
DA:39,2
DA:40,2
DA:41,2
DA:42,2
DA:43,2
DA:44,2
DA:45,2
DA:46,2
DA:47,2
DA:48,2
DA:49,2
DA:50,2
DA:51,2
DA:52,2
DA:53,2
DA:54,2
DA:55,1
DA:56,1
DA:58,4
DA:59,1
DA:61,31
DA:62,30
DA:64,31
DA:65,30
DA:67,1
DA:69,4
DA:70,1
DA:71,2
DA:72,2
DA:73,2
DA:74,2
DA:75,1
DA:77,1
DA:78,1
DA:79,1
DA:81,3
DA:82,2
DA:83,2
DA:84,2
DA:85,2
DA:86,2
DA:87,1
DA:89,4
DA:90,1
DA:91,2
DA:92,2
DA:93,2
DA:94,2
DA:95,1
DA:97,1
DA:98,1
DA:100,1
DA:101,1
DA:102,1
DA:104,3
DA:105,2
DA:106,2
DA:107,2
DA:108,2
DA:109,2
DA:110,1
DA:112,4
DA:113,1
DA:114,2
DA:115,2
DA:116,2
DA:117,2
DA:118,1
DA:120,1
DA:121,1
DA:123,1
DA:124,1
DA:125,1
DA:127,3
DA:128,2
DA:129,2
DA:130,2
DA:131,2
DA:132,2
DA:133,1
DA:135,4
DA:136,1
DA:138,1
DA:139,1
DA:140,1
DA:141,1
DA:143,2
DA:144,1
DA:145,2
DA:146,2
DA:147,1
DA:148,1
DA:150,2
DA:151,1
DA:152,2
DA:153,2
DA:154,1
DA:155,1
DA:156,1
DA:158,4
DA:159,1
DA:162,2
DA:163,2
DA:166,2
DA:167,2
DA:170,2
DA:171,2
DA:173,1
DA:174,1
DA:176,4
DA:177,1
DA:185,2
DA:187,33
DA:188,31
DA:191,33
DA:192,31
DA:194,1
LF:147
LH:147
end_of_record
TN:
SF:/home/osnsab/Документы/Sem3/laba3/laba3/UnitC++Test/src/StackTest.cpp
FNL:0,122,127
FNA:0,1,_ZN20StackTest_Print_Test8TestBodyEv
FNA:0,1,_ZN20StackTest_Print_TestC2Ev
FNA:0,1,_ZN20StackTest_Print_TestD0Ev
FNA:0,1,_ZN20StackTest_Print_TestD2Ev
FNL:1,13,24
FNA:1,1,_ZN19StackTest_Push_Test8TestBodyEv
FNA:1,1,_ZN19StackTest_Push_TestC2Ev
FNA:1,1,_ZN19StackTest_Push_TestD0Ev
FNA:1,1,_ZN19StackTest_Push_TestD2Ev
FNL:2,26,37
FNA:2,1,_ZN18StackTest_Pop_Test8TestBodyEv
FNA:2,1,_ZN18StackTest_Pop_TestC2Ev
FNA:2,1,_ZN18StackTest_Pop_TestD0Ev
FNA:2,1,_ZN18StackTest_Pop_TestD2Ev
FNL:3,39,47
FNA:3,1,_ZN23StackTest_Contains_Test8TestBodyEv
FNA:3,1,_ZN23StackTest_Contains_TestC2Ev
FNA:3,1,_ZN23StackTest_Contains_TestD0Ev
FNA:3,1,_ZN23StackTest_Contains_TestD2Ev
FNL:4,49,61
FNA:4,1,_ZN35StackTest_SerializeDeserialize_Test8TestBodyEv
FNA:4,1,_ZN35StackTest_SerializeDeserialize_TestC2Ev
FNA:4,1,_ZN35StackTest_SerializeDeserialize_TestD0Ev
FNA:4,1,_ZN35StackTest_SerializeDeserialize_TestD2Ev
FNL:5,6,11
FNA:5,1,_ZN41StackTest_ConstructorAndInitialState_Test8TestBodyEv
FNA:5,1,_ZN41StackTest_ConstructorAndInitialState_TestC2Ev
FNA:5,1,_ZN41StackTest_ConstructorAndInitialState_TestD0Ev
FNA:5,1,_ZN41StackTest_ConstructorAndInitialState_TestD2Ev
FNL:6,63,80
FNA:6,1,_ZN34StackTest_BinarySerialization_Test8TestBodyEv
FNA:6,1,_ZN34StackTest_BinarySerialization_TestC2Ev
FNA:6,1,_ZN34StackTest_BinarySerialization_TestD0Ev
FNA:6,1,_ZN34StackTest_BinarySerialization_TestD2Ev
FNL:7,82,97
FNA:7,1,_ZN32StackTest_TextSerialization_Test8TestBodyEv
FNA:7,1,_ZN32StackTest_TextSerialization_TestC2Ev
FNA:7,1,_ZN32StackTest_TextSerialization_TestD0Ev
FNA:7,1,_ZN32StackTest_TextSerialization_TestD2Ev
FNL:8,99,120
FNA:8,1,_ZN38StackTest_EmptyStackSerialization_Test8TestBodyEv
FNA:8,1,_ZN38StackTest_EmptyStackSerialization_TestC2Ev
FNA:8,1,_ZN38StackTest_EmptyStackSerialization_TestD0Ev
FNA:8,1,_ZN38StackTest_EmptyStackSerialization_TestD2Ev
FNF:9
FNH:9
DA:6,4
DA:7,1
DA:8,1
DA:9,1
DA:10,1
DA:11,1
DA:13,4
DA:14,1
DA:15,1
DA:16,1
DA:17,1
DA:18,1
DA:19,1
DA:20,1
DA:21,1
DA:22,1
DA:23,1
DA:24,1
DA:26,4
DA:27,1
DA:28,2
DA:29,1
DA:30,1
DA:31,1
DA:32,1
DA:33,1
DA:34,1
DA:35,1
DA:36,0
DA:37,1
DA:39,4
DA:40,1
DA:41,3
DA:42,2
DA:43,2
DA:44,2
DA:45,2
DA:46,2
DA:47,1
DA:49,4
DA:50,1
DA:51,2
DA:52,2
DA:53,1
DA:55,1
DA:56,1
DA:57,1
DA:59,1
DA:60,1
DA:61,1
DA:63,4
DA:64,1
DA:65,2
DA:66,2
DA:67,1
DA:69,1
DA:70,1
DA:72,1
DA:73,1
DA:74,1
DA:76,1
DA:77,1
DA:78,1
DA:79,1
DA:80,1
DA:82,4
DA:83,1
DA:84,2
DA:85,2
DA:86,1
DA:88,1
DA:89,1
DA:91,1
DA:92,1
DA:93,1
DA:95,1
DA:96,1
DA:97,1
DA:99,4
DA:100,1
DA:102,1
DA:103,1
DA:104,1
DA:105,1
DA:107,2
DA:108,1
DA:109,2
DA:110,2
DA:111,1
DA:112,1
DA:114,2
DA:115,1
DA:116,2
DA:117,2
DA:118,1
DA:119,1
DA:120,1
DA:122,4
DA:123,1
DA:124,2
DA:125,1
DA:126,1
DA:127,1
LF:103
LH:102
end_of_record
TN:
SF:/usr/include/c++/15/array
FNL:0,134,135
FNA:0,1,_ZNSt5arrayIcLm64EE5beginEv
FNL:1,208,212
FNA:1,40,_ZNSt5arrayIcLm512EEixEm
FNL:2,216,222
FNA:2,0,_ZNKSt5arrayIN8nlohmann16json_abi_v3_11_36detail9dtoa_impl12cached_powerELm79EEixEm
FNA:2,0,_ZNKSt5arrayIS_IcLm2EELm100EEixEm
FNA:2,0,_ZNKSt5arrayIcLm2EEixEm
FNA:2,80,_ZNKSt5arrayIhLm400EEixEm
FNF:3
FNH:3
DA:134,1
DA:135,1
DA:195,121
DA:208,40
DA:210,40
DA:211,40
DA:216,80
DA:219,80
DA:221,80
DA:285,9
LF:10
LH:10
end_of_record
TN:
SF:/usr/include/c++/15/bits/alloc_traits.h
FNF:0
FNH:0
DA:614,902
DA:649,535
DA:674,866
DA:680,754
DA:700,590
DA:712,11412
DA:726,704
DA:805,2
DA:819,2
DA:850,0
DA:871,6
DA:1045,367
DA:1046,367
LF:13
LH:12
end_of_record
TN:
SF:/usr/include/c++/15/bits/allocated_ptr.h
FNL:0,100,103
FNA:0,45,_ZSt18__allocate_guardedISaISt10_List_nodeI8HashNodeEEESt15__allocated_ptrIT_ERS5_
FNA:0,2,_ZSt18__allocate_guardedISaISt23_Sp_counted_ptr_inplaceIN8nlohmann16json_abi_v3_11_36detail21output_string_adapterIcNSt7__cxx1112basic_stringIcSt11char_traitsIcESaIcEEEEESaIvELN9__gnu_cxx12_Lock_policyE2EEEESt15__allocated_ptrIT_ERSI_
FNL:1,114,116
FNA:1,45,_ZNSt15__allocated_objISaISt10_List_nodeI8HashNodeEEEC2EOSt15__allocated_ptrIS3_E
FNL:2,119,123
FNA:2,45,_ZNSt15__allocated_objISaISt10_List_nodeI8HashNodeEEED2Ev
FNL:3,128,128
FNA:3,45,_ZNKSt15__allocated_objISaISt10_List_nodeI8HashNodeEEEptEv
FNL:4,134,137
FNA:4,45,_ZSt22__allocate_guarded_objISaISt10_List_nodeI8HashNodeEEESt15__allocated_objIT_ERS5_
FNL:5,53,55
FNA:5,45,_ZNSt15__allocated_ptrISaISt10_List_nodeI8HashNodeEEEC2ERS3_PS2_
FNA:5,4,_ZNSt15__allocated_ptrISaISt23_Sp_counted_ptr_inplaceIN8nlohmann16json_abi_v3_11_36detail21output_string_adapterIcNSt7__cxx1112basic_stringIcSt11char_traitsIcESaIcEEEEESaIvELN9__gnu_cxx12_Lock_policyE2EEEEC2ERSG_PSF_
FNL:6,66,68
FNA:6,45,_ZNSt15__allocated_ptrISaISt10_List_nodeI8HashNodeEEEC2EOS4_
FNL:7,71,75
FNA:7,90,_ZNSt15__allocated_ptrISaISt10_List_nodeI8HashNodeEEED2Ev
FNA:7,4,_ZNSt15__allocated_ptrISaISt23_Sp_counted_ptr_inplaceIN8nlohmann16json_abi_v3_11_36detail21output_string_adapterIcNSt7__cxx1112basic_stringIcSt11char_traitsIcESaIcEEEEESaIvELN9__gnu_cxx12_Lock_policyE2EEEED2Ev
FNL:8,79,83
FNA:8,2,_ZNSt15__allocated_ptrISaISt23_Sp_counted_ptr_inplaceIN8nlohmann16json_abi_v3_11_36detail21output_string_adapterIcNSt7__cxx1112basic_stringIcSt11char_traitsIcESaIcEEEEESaIvELN9__gnu_cxx12_Lock_policyE2EEEEaSEDn
FNL:9,85,85
FNA:9,45,_ZNKSt15__allocated_ptrISaISt10_List_nodeI8HashNodeEEEcvbEv
FNL:10,88,88
FNA:10,90,_ZNKSt15__allocated_ptrISaISt10_List_nodeI8HashNodeEEE3getEv
FNA:10,2,_ZNKSt15__allocated_ptrISaISt23_Sp_counted_ptr_inplaceIN8nlohmann16json_abi_v3_11_36detail21output_string_adapterIcNSt7__cxx1112basic_stringIcSt11char_traitsIcESaIcEEEEESaIvELN9__gnu_cxx12_Lock_policyE2EEEE3getEv
FNL:11,90,90
FNA:11,45,_ZNSt15__allocated_ptrISaISt10_List_nodeI8HashNodeEEE7releaseEv
FNF:12
FNH:12
DA:53,98
DA:54,49
DA:55,49
DA:66,45
DA:67,45
DA:68,45
DA:71,94
DA:73,94
DA:74,2
DA:75,94
DA:79,2
DA:81,2
DA:82,2
DA:85,45
DA:88,184
DA:90,45
DA:100,47
DA:102,47
DA:114,45
DA:115,90
DA:116,45
DA:119,45
DA:121,45
DA:122,0
DA:123,45
DA:128,45
DA:134,45
DA:136,45
LF:28
LH:27
end_of_record
TN:
SF:/usr/include/c++/15/bits/allocator.h
FNF:0
FNH:0
DA:168,1627
DA:173,2511
DA:183,4
DA:189,1854
DA:228,0
LF:5
LH:4
end_of_record
TN:
SF:/usr/include/c++/15/bits/basic_string.h
FNL:0,1056,1057
FNA:0,77,_ZNKSt7__cxx1112basic_stringIcSt11char_traitsIcESaIcEE5beginEv
FNL:1,1074,1075
FNA:1,77,_ZNKSt7__cxx1112basic_stringIcSt11char_traitsIcESaIcEE3endEv
FNL:2,1163,1169
FNA:2,7813,_ZNKSt7__cxx1112basic_stringIcSt11char_traitsIcESaIcEE4sizeEv
FNL:3,1175,1176
FNA:3,2210,_ZNKSt7__cxx1112basic_stringIcSt11char_traitsIcESaIcEE6lengthEv
FNL:4,1181,1187
FNA:4,10983,_ZNKSt7__cxx1112basic_stringIcSt11char_traitsIcESaIcEE8max_sizeEv
FNL:5,1277,1284
FNA:5,2186,_ZNKSt7__cxx1112basic_stringIcSt11char_traitsIcESaIcEE8capacityEv
FNL:6,1322,1323
FNA:6,11,_ZNSt7__cxx1112basic_stringIcSt11char_traitsIcESaIcEE5clearEv
FNL:7,1331,1332
FNA:7,6,_ZNKSt7__cxx1112basic_stringIcSt11char_traitsIcESaIcEE5emptyEv
FNL:8,1347,1351
FNA:8,80,_ZNKSt7__cxx1112basic_stringIcSt11char_traitsIcESaIcEEixEm
FNL:9,1365,1373
FNA:9,18,_ZNSt7__cxx1112basic_stringIcSt11char_traitsIcESaIcEEixEm
FNL:10,140,153
FNA:10,448,_ZNSt7__cxx1112basic_stringIcSt11char_traitsIcESaIcEE11_S_allocateERS3_m
FNL:11,1462,1466
FNA:11,0,_ZNKSt7__cxx1112basic_stringIcSt11char_traitsIcESaIcEE4backEv
FNL:12,1477,1478
FNA:12,28,_ZNSt7__cxx1112basic_stringIcSt11char_traitsIcESaIcEEpLERKS4_
FNL:13,1487,1488
FNA:13,0,_ZNSt7__cxx1112basic_stringIcSt11char_traitsIcESaIcEEpLEPKc
FNL:14,1497,1501
FNA:14,0,_ZNSt7__cxx1112basic_stringIcSt11char_traitsIcESaIcEEpLEc
FNL:15,1535,1536
FNA:15,28,_ZNSt7__cxx1112basic_stringIcSt11char_traitsIcESaIcEE6appendERKS4_
FNL:16,1566,1571
FNA:16,97,_ZNSt7__cxx1112basic_stringIcSt11char_traitsIcESaIcEE6appendEPKcm
FNL:17,1580,1586
FNA:17,0,_ZNSt7__cxx1112basic_stringIcSt11char_traitsIcESaIcEE6appendEPKc
FNL:18,1598,1599
FNA:18,0,_ZNSt7__cxx1112basic_stringIcSt11char_traitsIcESaIcEE6appendEmc
FNL:19,1724,1731
FNA:19,63,_ZNSt7__cxx1112basic_stringIcSt11char_traitsIcESaIcEE9push_backEc
FNL:20,1740,1773
FNA:20,24,_ZNSt7__cxx1112basic_stringIcSt11char_traitsIcESaIcEE6assignERKS4_
FNL:21,1844,1849
FNA:21,1,_ZNSt7__cxx1112basic_stringIcSt11char_traitsIcESaIcEE6assignEPKc
FNL:22,204,205
FNA:22,569,_ZNSt7__cxx1112basic_stringIcSt11char_traitsIcESaIcEE12_Alloc_hiderC2EPcRKS3_
FNL:23,208,209
FNA:23,1029,_ZNSt7__cxx1112basic_stringIcSt11char_traitsIcESaIcEE12_Alloc_hiderC2EPcOS3_
FNL:24,2216,2221
FNA:24,85,_ZNSt7__cxx1112basic_stringIcSt11char_traitsIcESaIcEE6insertEmPKc
FNL:25,228,229
FNA:25,652,_ZNSt7__cxx1112basic_stringIcSt11char_traitsIcESaIcEE7_M_dataEPc
FNL:26,2323,2331
FNA:26,0,_ZNSt7__cxx1112basic_stringIcSt11char_traitsIcESaIcEE5eraseEmm
FNL:27,233,234
FNA:27,3589,_ZNSt7__cxx1112basic_stringIcSt11char_traitsIcESaIcEE9_M_lengthEm
FNL:28,238,239
FNA:28,14064,_ZNKSt7__cxx1112basic_stringIcSt11char_traitsIcESaIcEE7_M_dataEv
FNL:29,2409,2410
FNA:29,0,_ZNSt7__cxx1112basic_stringIcSt11char_traitsIcESaIcEE7replaceEmmRKS4_
FNL:30,243,250
FNA:30,1821,_ZNSt7__cxx1112basic_stringIcSt11char_traitsIcESaIcEE13_M_local_dataEv
FNL:31,2458,2464
FNA:31,85,_ZNSt7__cxx1112basic_stringIcSt11char_traitsIcESaIcEE7replaceEmmPKcm
FNL:32,2509,2511
FNA:32,0,_ZNSt7__cxx1112basic_stringIcSt11char_traitsIcESaIcEE7replaceEmmmc
FNL:33,254,261
FNA:33,4180,_ZNKSt7__cxx1112basic_stringIcSt11char_traitsIcESaIcEE13_M_local_dataEv
FNL:34,265,266
FNA:34,429,_ZNSt7__cxx1112basic_stringIcSt11char_traitsIcESaIcEE11_M_capacityEm
FNL:35,270,274
FNA:35,2773,_ZNSt7__cxx1112basic_stringIcSt11char_traitsIcESaIcEE13_M_set_lengthEm
FNL:36,278,287
FNA:36,4180,_ZNKSt7__cxx1112basic_stringIcSt11char_traitsIcESaIcEE11_M_is_localEv
FNL:37,2873,2874
FNA:37,47,_ZNKSt7__cxx1112basic_stringIcSt11char_traitsIcESaIcEE5c_strEv
FNL:38,2886,2887
FNA:38,1776,_ZNKSt7__cxx1112basic_stringIcSt11char_traitsIcESaIcEE4dataEv
FNL:39,2898,2899
FNA:39,4,_ZNSt7__cxx1112basic_stringIcSt11char_traitsIcESaIcEE4dataEv
FNL:40,2907,2908
FNA:40,28,_ZNKSt7__cxx1112basic_stringIcSt11char_traitsIcESaIcEE13get_allocatorEv
FNL:41,2939,2941
FNA:41,0,_ZNKSt7__cxx1112basic_stringIcSt11char_traitsIcESaIcEE4findERKS4_m
FNL:42,296,300
FNA:42,1767,_ZNSt7__cxx1112basic_stringIcSt11char_traitsIcESaIcEE10_M_disposeEv
FNL:43,2973,2977
FNA:43,0,_ZNKSt7__cxx1112basic_stringIcSt11char_traitsIcESaIcEE4findEPKcm
FNL:44,304,305
FNA:44,66,_ZNSt7__cxx1112basic_stringIcSt11char_traitsIcESaIcEE10_M_destroyEm
FNL:45,3461,3471
FNA:45,998,_ZNKSt7__cxx1112basic_stringIcSt11char_traitsIcESaIcEE7compareERKS4_
FNL:46,359,360
FNA:46,741,_ZNSt7__cxx1112basic_stringIcSt11char_traitsIcESaIcEE16_M_get_allocatorEv
FNL:47,364,365
FNA:47,11604,_ZNKSt7__cxx1112basic_stringIcSt11char_traitsIcESaIcEE16_M_get_allocatorEv
FNL:48,3661,3672
FNA:48,0,_ZNKSt7__cxx1112basic_stringIcSt11char_traitsIcESaIcEE7compareEmmPKc
FNL:49,3815,3828
FNA:49,28,_ZSt12__str_concatINSt7__cxx1112basic_stringIcSt11char_traitsIcESaIcEEEET_PKNS6_10value_typeENS6_9size_typeES9_SA_RKNS6_14allocator_typeE
FNL:50,3894,3902
FNA:50,28,_ZStplIcSt11char_traitsIcESaIcEENSt7__cxx1112basic_stringIT_T0_T1_EERKS8_PKS5_
FNL:51,3961,3963
FNA:51,85,_ZStplIcSt11char_traitsIcESaIcEENSt7__cxx1112basic_stringIT_T0_T1_EEPKS5_OS8_
FNL:52,4045,4051
FNA:52,467,_ZSteqIcSt11char_traitsIcESaIcEEbRKNSt7__cxx1112basic_stringIT_T0_T1_EESA_
FNL:53,4062,4067
FNA:53,202,_ZSteqIcSt11char_traitsIcESaIcEEbRKNSt7__cxx1112basic_stringIT_T0_T1_EEPKS5_
FNL:54,409,416
FNA:54,85,_ZNKSt7__cxx1112basic_stringIcSt11char_traitsIcESaIcEE8_M_checkEmPKc
FNL:55,4123,4126
FNA:55,0,_ZStneIcSt11char_traitsIcESaIcEEbRKNSt7__cxx1112basic_stringIT_T0_T1_EESA_
FNL:56,4150,4152
FNA:56,125,_ZStneIcSt11char_traitsIcESaIcEEbRKNSt7__cxx1112basic_stringIT_T0_T1_EEPKS5_
FNL:57,4164,4167
FNA:57,998,_ZStltIcSt11char_traitsIcESaIcEEbRKNSt7__cxx1112basic_stringIT_T0_T1_EESA_
FNL:58,420,424
FNA:58,413,_ZNKSt7__cxx1112basic_stringIcSt11char_traitsIcESaIcEE15_M_check_lengthEmmPKc
FNL:59,430,434
FNA:59,85,_ZNKSt7__cxx1112basic_stringIcSt11char_traitsIcESaIcEE8_M_limitEmm
FNL:60,438,442
FNA:60,262,_ZNKSt7__cxx1112basic_stringIcSt11char_traitsIcESaIcEE11_M_disjunctEPKc
FNL:61,448,454
FNA:61,2459,_ZNSt7__cxx1112basic_stringIcSt11char_traitsIcESaIcEE7_S_copyEPcPKcm
FNL:62,4530,4545
FNA:62,145,_ZNSt7__cxx119to_stringEi
FNL:63,4539,4543
FNA:63,145,_ZZNSt7__cxx119to_stringEiENKUlPcmE_clES0_m
FNL:64,458,464
FNA:64,85,_ZNSt7__cxx1112basic_stringIcSt11char_traitsIcESaIcEE7_S_moveEPcPKcm
FNL:65,4584,4596
FNA:65,0,_ZNSt7__cxx119to_stringEm
FNL:66,4591,4594
FNA:66,0,_ZZNSt7__cxx119to_stringEmENKUlPcmE_clES0_m
FNL:67,468,474
FNA:67,20,_ZNSt7__cxx1112basic_stringIcSt11char_traitsIcESaIcEE9_S_assignEPcmc
FNL:68,483,506
FNA:68,521,_ZNSt7__cxx1112basic_stringIcSt11char_traitsIcESaIcEE13_S_copy_charsIPKcEEvPcT_S9_
FNL:69,551,561
FNA:69,166,_ZNSt7__cxx1112basic_stringIcSt11char_traitsIcESaIcEE10_S_compareEmm
FNL:70,585,594
FNA:70,213,_ZNSt7__cxx1112basic_stringIcSt11char_traitsIcESaIcEEC2Ev
FNL:71,601,606
FNA:71,28,_ZNSt7__cxx1112basic_stringIcSt11char_traitsIcESaIcEEC2ERKS3_
FNL:72,613,618
FNA:72,593,_ZNSt7__cxx1112basic_stringIcSt11char_traitsIcESaIcEEC2ERKS4_
FNL:73,706,715
FNA:73,521,_ZNSt7__cxx1112basic_stringIcSt11char_traitsIcESaIcEEC2IS3_EEPKcRKS3_
FNL:74,729,731
FNA:74,20,_ZNSt7__cxx1112basic_stringIcSt11char_traitsIcESaIcEEC2IS3_EEmcRKS3_
FNL:75,742,763
FNA:75,223,_ZNSt7__cxx1112basic_stringIcSt11char_traitsIcESaIcEEC2EOS4_
FNL:76,895,896
FNA:76,1491,_ZNSt7__cxx1112basic_stringIcSt11char_traitsIcESaIcEED2Ev
FNL:77,904,907
FNA:77,24,_ZNSt7__cxx1112basic_stringIcSt11char_traitsIcESaIcEEaSERKS4_
FNL:78,915,916
FNA:78,1,_ZNSt7__cxx1112basic_stringIcSt11char_traitsIcESaIcEEaSEPKc
FNL:79,945,1005
FNA:79,2,_ZNSt7__cxx1112basic_stringIcSt11char_traitsIcESaIcEEaSEOS4_
FNF:80
FNH:66
DA:140,448
DA:142,448
DA:152,448
DA:204,569
DA:205,569
DA:208,1029
DA:209,1029
DA:228,652
DA:229,652
DA:233,3589
DA:234,3589
DA:238,14064
DA:239,14064
DA:243,1821
DA:246,1821
DA:254,4180
DA:257,4180
DA:265,429
DA:266,429
DA:270,2773
DA:272,2773
DA:273,2773
DA:274,2773
DA:278,4180
DA:280,4180
DA:282,3850
DA:283,0
DA:284,3850
DA:286,330
DA:296,1767
DA:298,1767
DA:299,66
DA:300,1767
DA:304,66
DA:305,66
DA:359,741
DA:360,741
DA:364,11604
DA:365,11604
DA:378,1218
DA:388,223
DA:409,85
DA:411,85
DA:412,0
DA:415,85
DA:420,413
DA:422,413
DA:423,0
DA:424,413
DA:430,85
DA:432,85
DA:433,85
DA:438,262
DA:440,262
DA:441,262
DA:448,2459
DA:450,2459
DA:451,585
DA:453,1874
DA:454,2459
DA:458,85
DA:460,85
DA:461,45
DA:463,40
DA:464,85
DA:468,20
DA:470,20
DA:471,0
DA:473,20
DA:474,20
DA:483,521
DA:489,1042
DA:506,521
DA:551,166
DA:553,166
DA:555,166
DA:556,0
DA:557,166
DA:558,0
DA:560,166
DA:585,213
DA:590,639
DA:593,213
DA:594,213
DA:601,28
DA:602,28
DA:605,28
DA:606,28
DA:613,593
DA:614,593
DA:615,593
DA:617,593
DA:618,593
DA:706,521
DA:707,521
DA:710,521
DA:711,0
DA:713,521
DA:714,521
DA:715,521
DA:729,20
DA:730,20
DA:731,20
DA:742,223
DA:743,446
DA:745,223
DA:748,154
DA:749,154
DA:753,69
DA:754,69
DA:760,223
DA:761,223
DA:762,223
DA:763,223
DA:895,1491
DA:896,1491
DA:904,24
DA:906,24
DA:915,1
DA:916,1
DA:945,2
DA:948,2
DA:950,2
DA:951,2
DA:954,0
DA:955,0
DA:956,0
DA:959,2
DA:961,2
DA:966,2
DA:968,2
DA:969,2
DA:970,2
DA:973,0
DA:976,0
DA:978,0
DA:983,0
DA:984,0
DA:990,0
DA:991,0
DA:992,0
DA:993,0
DA:995,0
DA:996,0
DA:999,0
DA:1002,0
DA:1003,2
DA:1004,2
DA:1056,77
DA:1057,77
DA:1074,77
DA:1075,77
DA:1163,7813
DA:1165,7813
DA:1166,7813
DA:1167,0
DA:1168,7813
DA:1175,2210
DA:1176,2210
DA:1181,10983
DA:1183,10983
DA:1185,10983
DA:1186,10983
DA:1277,2186
DA:1279,2186
DA:1281,2186
DA:1282,0
DA:1283,2186
DA:1322,11
DA:1323,11
DA:1331,6
DA:1332,6
DA:1347,80
DA:1349,80
DA:1350,80
DA:1365,18
DA:1369,18
DA:1372,18
DA:1462,0
DA:1464,0
DA:1465,0
DA:1477,28
DA:1478,28
DA:1487,0
DA:1488,0
DA:1497,0
DA:1499,0
DA:1500,0
DA:1535,28
DA:1536,28
DA:1566,97
DA:1569,97
DA:1570,97
DA:1580,0
DA:1583,0
DA:1584,0
DA:1585,0
DA:1598,0
DA:1599,0
DA:1724,63
DA:1726,63
DA:1727,63
DA:1728,2
DA:1729,63
DA:1730,63
DA:1731,63
DA:1740,24
DA:1743,24
DA:1745,0
DA:1746,0
DA:1750,0
DA:1752,0
DA:1753,0
DA:1754,0
DA:1758,0
DA:1759,0
DA:1761,0
DA:1762,0
DA:1763,0
DA:1764,0
DA:1765,0
DA:1768,0
DA:1771,24
DA:1772,24
DA:1844,1
DA:1847,1
DA:1848,1
DA:2216,85
DA:2219,85
DA:2220,85
DA:2323,0
DA:2325,0
DA:2326,0
DA:2327,0
DA:2328,0
DA:2329,0
DA:2330,0
DA:2409,0
DA:2410,0
DA:2458,85
DA:2462,85
DA:2463,85
DA:2509,0
DA:2510,0
DA:2511,0
DA:2873,47
DA:2874,47
DA:2886,1776
DA:2887,1776
DA:2898,4
DA:2899,4
DA:2907,28
DA:2908,56
DA:2939,0
DA:2941,0
DA:2973,0
DA:2976,0
DA:3461,998
DA:3463,998
DA:3464,998
DA:3465,998
DA:3467,998
DA:3468,998
DA:3469,166
DA:3470,998
DA:3661,0
DA:3664,0
DA:3665,0
DA:3666,0
DA:3667,0
DA:3668,0
DA:3669,0
DA:3670,0
DA:3671,0
DA:3815,28
DA:3823,28
DA:3824,28
DA:3825,28
DA:3826,28
DA:3827,28
DA:3828,0
DA:3894,28
DA:3901,56
DA:3961,85
DA:3963,170
DA:4045,467
DA:4049,467
DA:4050,467
DA:4062,202
DA:4065,202
DA:4066,202
DA:4123,0
DA:4126,0
DA:4150,125
DA:4152,125
DA:4164,998
DA:4167,998
DA:4530,145
DA:4535,145
DA:4536,145
DA:4537,145
DA:4538,145
DA:4539,145
DA:4540,145
DA:4541,145
DA:4542,145
DA:4544,145
DA:4584,0
DA:4589,0
DA:4590,0
DA:4591,0
DA:4592,0
DA:4593,0
DA:4595,0
DA:4596,0
LF:315
LH:226
end_of_record
TN:
SF:/usr/include/c++/15/bits/basic_string.tcc
FNL:0,143,165
FNA:0,448,_ZNSt7__cxx1112basic_stringIcSt11char_traitsIcESaIcEE9_M_createERmm
FNL:1,227,258
FNA:1,521,_ZNSt7__cxx1112basic_stringIcSt11char_traitsIcESaIcEE12_M_constructIPKcEEvT_S8_St20forward_iterator_tag
FNL:2,245,245
FNA:2,521,_ZZNSt7__cxx1112basic_stringIcSt11char_traitsIcESaIcEE12_M_constructIPKcEEvT_S8_St20forward_iterator_tagEN6_GuardC2EPS4_
FNL:3,248,248
FNA:3,521,_ZZNSt7__cxx1112basic_stringIcSt11char_traitsIcESaIcEE12_M_constructIPKcEEvT_S8_St20forward_iterator_tagEN6_GuardD2Ev
FNL:4,263,278
FNA:4,20,_ZNSt7__cxx1112basic_stringIcSt11char_traitsIcESaIcEE12_M_constructEmc
FNL:5,286,303
FNA:5,593,_ZNSt7__cxx1112basic_stringIcSt11char_traitsIcESaIcEE12_M_constructILb1EEEvPKcm
FNL:6,308,330
FNA:6,841,_ZNSt7__cxx1112basic_stringIcSt11char_traitsIcESaIcEE9_M_assignERKS4_
FNL:7,335,351
FNA:7,457,_ZNSt7__cxx1112basic_stringIcSt11char_traitsIcESaIcEE7reserveEm
FNL:8,356,376
FNA:8,119,_ZNSt7__cxx1112basic_stringIcSt11char_traitsIcESaIcEE9_M_mutateEmmPKcm
FNL:9,381,390
FNA:9,0,_ZNSt7__cxx1112basic_stringIcSt11char_traitsIcESaIcEE8_M_eraseEmm
FNL:10,431,439
FNA:10,0,_ZNSt7__cxx1112basic_stringIcSt11char_traitsIcESaIcEE6resizeEmc
FNL:11,444,459
FNA:11,390,_ZNSt7__cxx1112basic_stringIcSt11char_traitsIcESaIcEE9_M_appendEPKcm
FNL:12,481,506
FNA:12,0,_ZNSt7__cxx1112basic_stringIcSt11char_traitsIcESaIcEE14_M_replace_auxEmmmc
FNL:13,510,537
FNA:13,0,_ZNSt7__cxx1112basic_stringIcSt11char_traitsIcESaIcEE15_M_replace_coldEPcmPKcmm
FNL:14,542,583
FNA:14,316,_ZNSt7__cxx1112basic_stringIcSt11char_traitsIcESaIcEE10_M_replaceEmmPKcm
FNL:15,614,644
FNA:15,145,_ZNSt7__cxx1112basic_stringIcSt11char_traitsIcESaIcEE22__resize_and_overwriteIZNS_9to_stringEiEUlPcmE_EEvmT_
FNA:15,0,_ZNSt7__cxx1112basic_stringIcSt11char_traitsIcESaIcEE22__resize_and_overwriteIZNS_9to_stringEmEUlPcmE_EEvmT_
FNL:16,628,628
FNA:16,145,_ZZNSt7__cxx1112basic_stringIcSt11char_traitsIcESaIcEE22__resize_and_overwriteIZNS_9to_stringEiEUlPcmE_EEvmT_EN11_TerminatorD2Ev
FNA:16,0,_ZZNSt7__cxx1112basic_stringIcSt11char_traitsIcESaIcEE22__resize_and_overwriteIZNS_9to_stringEmEUlPcmE_EEvmT_EN11_TerminatorD2Ev
FNL:17,657,689
FNA:17,0,_ZNKSt7__cxx1112basic_stringIcSt11char_traitsIcESaIcEE4findEPKcmm
FNF:18
FNH:13
DA:143,448
DA:148,448
DA:149,0
DA:154,448
DA:156,123
DA:158,123
DA:159,0
DA:164,448
DA:227,521
DA:231,521
DA:233,521
DA:235,94
DA:236,94
DA:245,521
DA:248,521
DA:251,521
DA:253,521
DA:255,521
DA:257,521
DA:258,521
DA:263,20
DA:266,20
DA:268,3
DA:269,3
DA:274,20
DA:275,20
DA:277,20
DA:278,20
DA:286,593
DA:289,593
DA:291,1
DA:292,1
DA:298,593
DA:300,593
DA:303,593
DA:308,841
DA:311,841
DA:313,841
DA:314,841
DA:316,841
DA:318,1
DA:319,1
DA:320,1
DA:321,1
DA:322,1
DA:325,841
DA:326,431
DA:328,841
DA:330,841
DA:335,457
DA:338,457
DA:343,457
DA:344,315
DA:346,142
DA:347,142
DA:348,142
DA:349,142
DA:350,142
DA:356,119
DA:360,119
DA:362,119
DA:363,119
DA:365,119
DA:366,64
DA:367,119
DA:368,117
DA:369,119
DA:370,0
DA:371,0
DA:373,119
DA:374,119
DA:375,119
DA:376,119
DA:381,0
DA:384,0
DA:386,0
DA:387,0
DA:389,0
DA:390,0
DA:431,0
DA:434,0
DA:435,0
DA:436,0
DA:437,0
DA:438,0
DA:439,0
DA:444,390
DA:447,390
DA:449,390
DA:451,327
DA:452,327
DA:455,63
DA:457,390
DA:458,390
DA:481,0
DA:485,0
DA:487,0
DA:488,0
DA:490,0
DA:492,0
DA:494,0
DA:495,0
DA:496,0
DA:499,0
DA:501,0
DA:502,0
DA:504,0
DA:505,0
DA:510,0
DA:515,0
DA:516,0
DA:517,0
DA:518,0
DA:519,0
DA:521,0
DA:522,0
DA:523,0
DA:527,0
DA:528,0
DA:532,0
DA:533,0
DA:534,0
DA:537,0
DA:542,316
DA:546,316
DA:548,316
DA:549,316
DA:551,316
DA:553,262
DA:555,262
DA:568,262
DA:570,262
DA:571,85
DA:572,262
DA:573,262
DA:576,0
DA:579,54
DA:581,316
DA:582,316
DA:614,145
DA:621,145
DA:622,145
DA:628,145
DA:632,145
DA:633,145
DA:641,145
DA:642,145
DA:643,0
DA:644,145
DA:657,0
DA:662,0
DA:664,0
DA:665,0
DA:666,0
DA:667,0
DA:669,0
DA:670,0
DA:671,0
DA:672,0
DA:673,0
DA:675,0
DA:678,0
DA:679,0
DA:680,0
DA:684,0
DA:685,0
DA:686,0
DA:688,0
LF:168
LH:101
end_of_record
TN:
SF:/usr/include/c++/15/bits/char_traits.h
FNL:0,138,139
FNA:0,0,_ZN9__gnu_cxx11char_traitsIcE2eqERKcS3_
FNL:1,201,208
FNA:1,0,_ZN9__gnu_cxx11char_traitsIcE6lengthEPKc
FNL:2,212,219
FNA:2,0,_ZN9__gnu_cxx11char_traitsIcE4findEPKcmRS2_
FNL:3,345,353
FNA:3,3466,_ZNSt11char_traitsIcE6assignERcRKc
FNL:4,360,365
FNA:4,0,_ZNSt11char_traitsIcE2ltERKcS2_
FNL:5,368,384
FNA:5,1427,_ZNSt11char_traitsIcE7compareEPKcS2_m
FNL:6,387,394
FNA:6,837,_ZNSt11char_traitsIcE6lengthEPKc
FNL:7,397,406
FNA:7,0,_ZNSt11char_traitsIcE4findEPKcmRS1_
FNL:8,409,418
FNA:8,40,_ZNSt11char_traitsIcE4moveEPcPKcm
FNL:9,421,430
FNA:9,2028,_ZNSt11char_traitsIcE4copyEPcPKcm
FNL:10,433,442
FNA:10,20,_ZNSt11char_traitsIcE6assignEPcmc
FNL:11,445,446
FNA:11,89,_ZNSt11char_traitsIcE12to_char_typeERKi
FNL:12,451,452
FNA:12,72,_ZNSt11char_traitsIcE11to_int_typeERKc
FNL:13,460,461
FNA:13,86,_ZNSt11char_traitsIcE3eofEv
FNF:14
FNH:9
DA:138,0
DA:139,0
DA:201,0
DA:204,0
DA:205,0
DA:206,0
DA:207,0
DA:212,0
DA:215,0
DA:216,0
DA:217,0
DA:218,0
DA:345,3466
DA:352,3466
DA:353,3466
DA:360,0
DA:363,0
DA:364,0
DA:368,1427
DA:370,1427
DA:371,4
DA:373,1423
DA:375,0
DA:376,0
DA:377,0
DA:378,0
DA:379,0
DA:380,0
DA:383,1423
DA:387,837
DA:390,837
DA:391,0
DA:393,837
DA:397,0
DA:399,0
DA:400,0
DA:402,0
DA:403,0
DA:405,0
DA:409,40
DA:411,40
DA:412,0
DA:417,40
DA:421,2028
DA:423,2028
DA:424,19
DA:429,2009
DA:433,20
DA:435,20
DA:436,0
DA:441,20
DA:445,89
DA:446,89
DA:451,72
DA:452,72
DA:460,86
DA:461,86
LF:57
LH:27
end_of_record
TN:
SF:/usr/include/c++/15/bits/charconv.h
FNL:0,57,76
FNA:0,145,_ZNSt8__detail14__to_chars_lenIjEEjT_i
FNA:0,0,_ZNSt8__detail14__to_chars_lenImEEjT_i
FNL:1,83,112
FNA:1,145,_ZNSt8__detail18__to_chars_10_implIjEEvPcjT_
FNA:1,0,_ZNSt8__detail18__to_chars_10_implImEEvPcjT_
FNF:2
FNH:2
DA:57,145
DA:63,145
DA:64,145
DA:65,145
DA:66,145
DA:69,145
DA:70,82
DA:71,0
DA:72,0
DA:73,0
DA:74,0
DA:83,145
DA:89,145
DA:95,145
DA:96,145
DA:98,0
DA:99,0
DA:100,0
DA:101,0
DA:102,0
DA:104,145
DA:106,82
DA:107,82
DA:108,82
DA:111,63
DA:112,145
LF:26
LH:17
end_of_record
TN:
SF:/usr/include/c++/15/bits/cpp_type_traits.h
FNL:0,698,699
FNA:0,396,_ZSt12__miter_baseIN9__gnu_cxx17__normal_iteratorIPN8nlohmann16json_abi_v3_11_310basic_jsonISt3mapSt6vectorNSt7__cxx1112basic_stringIcSt11char_traitsIcESaIcEEEblmdSaNS3_14adl_serializerES6_IhSaIhEEvEES6_ISG_SaISG_EEEEET_SL_
FNA:0,2,_ZSt12__miter_baseIN9__gnu_cxx17__normal_iteratorIPNSt7__cxx1112basic_stringIcSt11char_traitsIcESaIcEEESt6vectorIS7_SaIS7_EEEEET_SD_
FNA:0,2,_ZSt12__miter_baseIPNSt7__cxx1112basic_stringIcSt11char_traitsIcESaIcEEEET_S7_
FNA:0,4,_ZSt12__miter_baseIPmET_S1_
FNA:0,4,_ZSt12__miter_baseISt13_Bit_iteratorET_S1_
FNA:0,4,_ZSt12__miter_baseISt19_Bit_const_iteratorET_S1_
FNF:1
FNH:1
DA:698,412
DA:699,412
LF:2
LH:2
end_of_record
TN:
SF:/usr/include/c++/15/bits/exception.h
FNL:0,64,64
FNA:0,0,_ZNSt9exceptionC2Ev
FNL:1,67,67
FNA:1,0,_ZNSt9exceptionC2ERKS_
FNF:2
FNH:0
DA:64,0
DA:67,0
LF:2
LH:0
end_of_record
TN:
SF:/usr/include/c++/15/bits/ios_base.h
FNL:0,150,151
FNA:0,3,_ZStorSt13_Ios_OpenmodeS_
FNF:1
FNH:1
DA:150,3
DA:151,3
LF:2
LH:2
end_of_record
TN:
SF:/usr/include/c++/15/bits/list.tcc
FNL:0,145,155
FNA:0,1,_ZNSt7__cxx114listI8HashNodeSaIS1_EE5eraseESt20_List_const_iteratorIS1_E
FNL:1,66,78
FNA:1,340,_ZNSt7__cxx1110_List_baseI8HashNodeSaIS1_EE8_M_clearEv
FNF:2
FNH:2
DA:66,340
DA:71,340
DA:72,384
DA:74,44
DA:75,44
DA:76,44
DA:78,340
DA:145,1
DA:152,1
DA:153,1
DA:154,1
LF:11
LH:11
end_of_record
TN:
SF:/usr/include/c++/15/bits/move.h
FNL:0,188,193
FNA:0,45,_ZSt10__exchangeIPSt10_List_nodeI8HashNodeEDnET_RS4_OT0_
FNL:1,227,238
FNA:1,42,_ZSt4swapIN8nlohmann16json_abi_v3_11_310basic_jsonISt3mapSt6vectorNSt7__cxx1112basic_stringIcSt11char_traitsIcESaIcEEEblmdSaNS1_14adl_serializerES4_IhSaIhEEvE10json_valueEENSt9enable_ifIXsrSt6__and_IJSt6__not_ISt15__is_tuple_likeIT_EESt21is_move_constructibleISK_ESt18is_move_assignableISK_EEE5valueEvE4typeERSK_SU_
FNA:1,42,_ZSt4swapIN8nlohmann16json_abi_v3_11_36detail7value_tEENSt9enable_ifIXsrSt6__and_IJSt6__not_ISt15__is_tuple_likeIT_EESt21is_move_constructibleIS8_ESt18is_move_assignableIS8_EEE5valueEvE4typeERS8_SI_
FNF:2
FNH:2
DA:53,8404
DA:73,6618
DA:139,3387
DA:177,6059
DA:188,45
DA:190,45
DA:191,45
DA:192,45
DA:227,84
DA:235,84
DA:236,84
DA:237,84
DA:238,84
LF:13
LH:13
end_of_record
TN:
SF:/usr/include/c++/15/bits/new_allocator.h
FNL:0,104,104
FNA:0,430,_ZNSt15__new_allocatorIN8nlohmann16json_abi_v3_11_310basic_jsonISt3mapSt6vectorNSt7__cxx1112basic_stringIcSt11char_traitsIcESaIcEEEblmdSaNS1_14adl_serializerES4_IhSaIhEEvEEED2Ev
FNA:0,0,_ZNSt15__new_allocatorIN8nlohmann16json_abi_v3_11_327byte_container_with_subtypeISt6vectorIhSaIhEEEEED2Ev
FNA:0,166,_ZNSt15__new_allocatorINSt7__cxx1112basic_stringIcSt11char_traitsIcESaIcEEEED2Ev
FNA:0,16,_ZNSt15__new_allocatorINSt7__cxx114listI8HashNodeSaIS2_EEEED2Ev
FNA:0,2,_ZNSt15__new_allocatorIPN8nlohmann16json_abi_v3_11_310basic_jsonISt3mapSt6vectorNSt7__cxx1112basic_stringIcSt11char_traitsIcESaIcEEEblmdSaNS1_14adl_serializerES4_IhSaIhEEvEEED2Ev
FNA:0,340,_ZNSt15__new_allocatorISt10_List_nodeI8HashNodeEED2Ev
FNA:0,37,_ZNSt15__new_allocatorISt13_Rb_tree_nodeISt4pairIKNSt7__cxx1112basic_stringIcSt11char_traitsIcESaIcEEEN8nlohmann16json_abi_v3_11_310basic_jsonISt3mapSt6vectorS7_blmdSaNSA_14adl_serializerESD_IhSaIhEEvEEEEED2Ev
FNA:0,4,_ZNSt15__new_allocatorISt23_Sp_counted_ptr_inplaceIN8nlohmann16json_abi_v3_11_36detail21output_string_adapterIcNSt7__cxx1112basic_stringIcSt11char_traitsIcESaIcEEEEESaIvELN9__gnu_cxx12_Lock_policyE2EEED2Ev
FNA:0,56,_ZNSt15__new_allocatorISt3mapINSt7__cxx1112basic_stringIcSt11char_traitsIcESaIcEEEN8nlohmann16json_abi_v3_11_310basic_jsonIS0_St6vectorS6_blmdSaNS8_14adl_serializerESA_IhSaIhEEvEESt4lessIvESaISt4pairIKS6_SE_EEEED2Ev
FNA:0,240,_ZNSt15__new_allocatorISt6vectorIN8nlohmann16json_abi_v3_11_310basic_jsonISt3mapS0_NSt7__cxx1112basic_stringIcSt11char_traitsIcESaIcEEEblmdSaNS2_14adl_serializerES0_IhSaIhEEvEESaISE_EEED2Ev
FNA:0,2896,_ZNSt15__new_allocatorIcED2Ev
FNA:0,0,_ZNSt15__new_allocatorIhED2Ev
FNA:0,2,_ZNSt15__new_allocatorImED2Ev
FNL:1,126,152
FNA:1,84,_ZNSt15__new_allocatorIN8nlohmann16json_abi_v3_11_310basic_jsonISt3mapSt6vectorNSt7__cxx1112basic_stringIcSt11char_traitsIcESaIcEEEblmdSaNS1_14adl_serializerES4_IhSaIhEEvEEE8allocateEmPKv
FNA:1,0,_ZNSt15__new_allocatorIN8nlohmann16json_abi_v3_11_327byte_container_with_subtypeISt6vectorIhSaIhEEEEE8allocateEmPKv
FNA:1,85,_ZNSt15__new_allocatorINSt7__cxx1112basic_stringIcSt11char_traitsIcESaIcEEEE8allocateEmPKv
FNA:1,16,_ZNSt15__new_allocatorINSt7__cxx114listI8HashNodeSaIS2_EEEE8allocateEmPKv
FNA:1,4,_ZNSt15__new_allocatorIPN8nlohmann16json_abi_v3_11_310basic_jsonISt3mapSt6vectorNSt7__cxx1112basic_stringIcSt11char_traitsIcESaIcEEEblmdSaNS1_14adl_serializerES4_IhSaIhEEvEEE8allocateEmPKv
FNA:1,45,_ZNSt15__new_allocatorISt10_List_nodeI8HashNodeEE8allocateEmPKv
FNA:1,58,_ZNSt15__new_allocatorISt13_Rb_tree_nodeISt4pairIKNSt7__cxx1112basic_stringIcSt11char_traitsIcESaIcEEEN8nlohmann16json_abi_v3_11_310basic_jsonISt3mapSt6vectorS7_blmdSaNSA_14adl_serializerESD_IhSaIhEEvEEEEE8allocateEmPKv
FNA:1,2,_ZNSt15__new_allocatorISt23_Sp_counted_ptr_inplaceIN8nlohmann16json_abi_v3_11_36detail21output_string_adapterIcNSt7__cxx1112basic_stringIcSt11char_traitsIcESaIcEEEEESaIvELN9__gnu_cxx12_Lock_policyE2EEE8allocateEmPKv
FNA:1,28,_ZNSt15__new_allocatorISt3mapINSt7__cxx1112basic_stringIcSt11char_traitsIcESaIcEEEN8nlohmann16json_abi_v3_11_310basic_jsonIS0_St6vectorS6_blmdSaNS8_14adl_serializerESA_IhSaIhEEvEESt4lessIvESaISt4pairIKS6_SE_EEEE8allocateEmPKv
FNA:1,120,_ZNSt15__new_allocatorISt6vectorIN8nlohmann16json_abi_v3_11_310basic_jsonISt3mapS0_NSt7__cxx1112basic_stringIcSt11char_traitsIcESaIcEEEblmdSaNS2_14adl_serializerES0_IhSaIhEEvEESaISE_EEE8allocateEmPKv
FNA:1,458,_ZNSt15__new_allocatorIcE8allocateEmPKv
FNA:1,0,_ZNSt15__new_allocatorIhE8allocateEmPKv
FNA:1,2,_ZNSt15__new_allocatorImE8allocateEmPKv
FNL:2,156,173
FNA:2,84,_ZNSt15__new_allocatorIN8nlohmann16json_abi_v3_11_310basic_jsonISt3mapSt6vectorNSt7__cxx1112basic_stringIcSt11char_traitsIcESaIcEEEblmdSaNS1_14adl_serializerES4_IhSaIhEEvEEE10deallocateEPSE_m
FNA:2,0,_ZNSt15__new_allocatorIN8nlohmann16json_abi_v3_11_327byte_container_with_subtypeISt6vectorIhSaIhEEEEE10deallocateEPS6_m
FNA:2,100,_ZNSt15__new_allocatorINSt7__cxx1112basic_stringIcSt11char_traitsIcESaIcEEEE10deallocateEPS5_m
FNA:2,16,_ZNSt15__new_allocatorINSt7__cxx114listI8HashNodeSaIS2_EEEE10deallocateEPS4_m
FNA:2,4,_ZNSt15__new_allocatorIPN8nlohmann16json_abi_v3_11_310basic_jsonISt3mapSt6vectorNSt7__cxx1112basic_stringIcSt11char_traitsIcESaIcEEEblmdSaNS1_14adl_serializerES4_IhSaIhEEvEEE10deallocateEPSF_m
FNA:2,45,_ZNSt15__new_allocatorISt10_List_nodeI8HashNodeEE10deallocateEPS2_m
FNA:2,58,_ZNSt15__new_allocatorISt13_Rb_tree_nodeISt4pairIKNSt7__cxx1112basic_stringIcSt11char_traitsIcESaIcEEEN8nlohmann16json_abi_v3_11_310basic_jsonISt3mapSt6vectorS7_blmdSaNSA_14adl_serializerESD_IhSaIhEEvEEEEE10deallocateEPSJ_m
FNA:2,2,_ZNSt15__new_allocatorISt23_Sp_counted_ptr_inplaceIN8nlohmann16json_abi_v3_11_36detail21output_string_adapterIcNSt7__cxx1112basic_stringIcSt11char_traitsIcESaIcEEEEESaIvELN9__gnu_cxx12_Lock_policyE2EEE10deallocateEPSF_m
FNA:2,28,_ZNSt15__new_allocatorISt3mapINSt7__cxx1112basic_stringIcSt11char_traitsIcESaIcEEEN8nlohmann16json_abi_v3_11_310basic_jsonIS0_St6vectorS6_blmdSaNS8_14adl_serializerESA_IhSaIhEEvEESt4lessIvESaISt4pairIKS6_SE_EEEE10deallocateEPSL_m
FNA:2,120,_ZNSt15__new_allocatorISt6vectorIN8nlohmann16json_abi_v3_11_310basic_jsonISt3mapS0_NSt7__cxx1112basic_stringIcSt11char_traitsIcESaIcEEEblmdSaNS2_14adl_serializerES0_IhSaIhEEvEESaISE_EEE10deallocateEPSG_m
FNA:2,76,_ZNSt15__new_allocatorIcE10deallocateEPcm
FNA:2,0,_ZNSt15__new_allocatorIhE10deallocateEPhm
FNA:2,2,_ZNSt15__new_allocatorImE10deallocateEPmm
FNF:3
FNH:3
DA:88,1586
DA:92,2511
DA:104,4189
DA:126,902
DA:134,902
DA:138,0
DA:139,0
DA:140,0
DA:151,902
DA:156,535
DA:172,535
DA:183,11412
DA:191,1620
DA:198,590
DA:233,12314
LF:15
LH:12
end_of_record
TN:
SF:/usr/include/c++/15/bits/predefined_ops.h
FNL:0,310,312
FNA:0,42,_ZN9__gnu_cxx5__ops10_Iter_predIZN8nlohmann16json_abi_v3_11_310basic_jsonISt3mapSt6vectorNSt7__cxx1112basic_stringIcSt11char_traitsIcESaIcEEEblmdSaNS3_14adl_serializerES6_IhSaIhEEvEC4ESt16initializer_listINS3_6detail8json_refISG_EEEbNSI_7value_tEEUlRKSK_E_EC2ESP_
FNL:1,324,325
FNA:1,42,_ZN9__gnu_cxx5__ops11__pred_iterIZN8nlohmann16json_abi_v3_11_310basic_jsonISt3mapSt6vectorNSt7__cxx1112basic_stringIcSt11char_traitsIcESaIcEEEblmdSaNS3_14adl_serializerES6_IhSaIhEEvEC4ESt16initializer_listINS3_6detail8json_refISG_EEEbNSI_7value_tEEUlRKSK_E_EENS0_10_Iter_predIT_EESR_
FNL:2,387,389
FNA:2,42,_ZN9__gnu_cxx5__ops12_Iter_negateIZN8nlohmann16json_abi_v3_11_310basic_jsonISt3mapSt6vectorNSt7__cxx1112basic_stringIcSt11char_traitsIcESaIcEEEblmdSaNS3_14adl_serializerES6_IhSaIhEEvEC4ESt16initializer_listINS3_6detail8json_refISG_EEEbNSI_7value_tEEUlRKSK_E_EC2ESP_
FNL:3,394,395
FNA:3,0,_ZN9__gnu_cxx5__ops12_Iter_negateIZN8nlohmann16json_abi_v3_11_310basic_jsonISt3mapSt6vectorNSt7__cxx1112basic_stringIcSt11char_traitsIcESaIcEEEblmdSaNS3_14adl_serializerES6_IhSaIhEEvEC4ESt16initializer_listINS3_6detail8json_refISG_EEEbNSI_7value_tEEUlRKSK_E_EclIPSN_EEbT_
FNL:4,401,402
FNA:4,42,_ZN9__gnu_cxx5__ops8__negateIZN8nlohmann16json_abi_v3_11_310basic_jsonISt3mapSt6vectorNSt7__cxx1112basic_stringIcSt11char_traitsIcESaIcEEEblmdSaNS3_14adl_serializerES6_IhSaIhEEvEC4ESt16initializer_listINS3_6detail8json_refISG_EEEbNSI_7value_tEEUlRKSK_E_EENS0_12_Iter_negateIT_EENS0_10_Iter_predISR_EE
FNF:5
FNH:4
DA:310,42
DA:311,42
DA:312,42
DA:324,42
DA:325,42
DA:387,42
DA:388,42
DA:389,42
DA:394,0
DA:395,0
DA:401,42
DA:402,42
LF:12
LH:10
end_of_record
TN:
SF:/usr/include/c++/15/bits/ptr_traits.h
FNL:0,134,135
FNA:0,4180,_ZNSt19__ptr_traits_ptr_toIPKcS0_Lb0EE10pointer_toERS0_
FNA:0,1821,_ZNSt19__ptr_traits_ptr_toIPccLb0EE10pointer_toERc
FNF:1
FNH:1
DA:134,6001
DA:135,6001
DA:211,161
LF:3
LH:3
end_of_record
TN:
SF:/usr/include/c++/15/bits/range_access.h
FNF:0
FNH:0
DA:68,4
DA:80,2
DA:92,4
LF:3
LH:3
end_of_record
TN:
SF:/usr/include/c++/15/bits/shared_ptr.h
FNL:0,1003,1009
FNA:0,2,_ZSt11make_sharedIN8nlohmann16json_abi_v3_11_36detail21output_string_adapterIcNSt7__cxx1112basic_stringIcSt11char_traitsIcESaIcEEEEEJRS9_EESt10shared_ptrINSt9enable_ifIXntsrSt8is_arrayIT_E5valueESF_E4typeEEDpOT0_
FNL:1,203,203
FNA:1,2,_ZNSt10shared_ptrIN8nlohmann16json_abi_v3_11_36detail23output_adapter_protocolIcEEEC2ERKS5_
FNL:2,358,359
FNA:2,2,_ZNSt10shared_ptrIN8nlohmann16json_abi_v3_11_36detail23output_adapter_protocolIcEEEC2EOS5_
FNL:3,367,368
FNA:3,2,_ZNSt10shared_ptrIN8nlohmann16json_abi_v3_11_36detail23output_adapter_protocolIcEEEC2INS2_21output_string_adapterIcNSt7__cxx1112basic_stringIcSt11char_traitsIcESaIcEEEEEvEEOS_IT_E
FNL:4,462,464
FNA:4,2,_ZNSt10shared_ptrIN8nlohmann16json_abi_v3_11_36detail21output_string_adapterIcNSt7__cxx1112basic_stringIcSt11char_traitsIcESaIcEEEEEEC2ISaIvEJRS9_EEESt20_Sp_alloc_shared_tagIT_EDpOT0_
FNF:5
FNH:5
DA:203,2
DA:358,2
DA:359,4
DA:367,2
DA:368,4
DA:462,2
DA:463,4
DA:464,2
DA:1003,2
DA:1008,4
LF:10
LH:10
end_of_record
TN:
SF:/usr/include/c++/15/bits/shared_ptr_base.h
FNL:0,1066,1070
FNA:0,8,_ZNSt14__shared_countILN9__gnu_cxx12_Lock_policyE2EED2Ev
FNL:1,1072,1077
FNA:1,2,_ZNSt14__shared_countILN9__gnu_cxx12_Lock_policyE2EEC2ERKS2_
FNL:2,1095,1100
FNA:2,4,_ZNSt14__shared_countILN9__gnu_cxx12_Lock_policyE2EE7_M_swapERS2_
FNL:3,128,129
FNA:3,2,_ZNSt16_Sp_counted_baseILN9__gnu_cxx12_Lock_policyE2EEC2Ev
FNL:4,132,133
FNA:4,0,_ZNSt16_Sp_counted_baseILN9__gnu_cxx12_Lock_policyE2EED0Ev
FNA:4,2,_ZNSt16_Sp_counted_baseILN9__gnu_cxx12_Lock_policyE2EED2Ev
FNL:5,1361,1365
FNA:5,34,_ZNKSt19__shared_ptr_accessIN8nlohmann16json_abi_v3_11_36detail23output_adapter_protocolIcEELN9__gnu_cxx12_Lock_policyE2ELb0ELb0EEptEv
FNL:6,1369,1370
FNA:6,34,_ZNKSt19__shared_ptr_accessIN8nlohmann16json_abi_v3_11_36detail23output_adapter_protocolIcEELN9__gnu_cxx12_Lock_policyE2ELb0ELb0EE6_M_getEv
FNL:7,142,143
FNA:7,0,_ZNSt16_Sp_counted_baseILN9__gnu_cxx12_Lock_policyE2EE10_M_destroyEv
FNL:8,150,151
FNA:8,2,_ZNSt16_Sp_counted_baseILN9__gnu_cxx12_Lock_policyE2EE15_M_add_ref_copyEv
FNL:9,1529,1529
FNA:9,2,_ZNSt12__shared_ptrIN8nlohmann16json_abi_v3_11_36detail23output_adapter_protocolIcEELN9__gnu_cxx12_Lock_policyE2EEC2ERKS7_
FNL:10,1531,1531
FNA:10,2,_ZNSt12__shared_ptrIN8nlohmann16json_abi_v3_11_36detail21output_string_adapterIcNSt7__cxx1112basic_stringIcSt11char_traitsIcESaIcEEEEELN9__gnu_cxx12_Lock_policyE2EED2Ev
FNA:10,6,_ZNSt12__shared_ptrIN8nlohmann16json_abi_v3_11_36detail23output_adapter_protocolIcEELN9__gnu_cxx12_Lock_policyE2EED2Ev
FNL:11,1538,1543
FNA:11,2,_ZNSt12__shared_ptrIN8nlohmann16json_abi_v3_11_36detail23output_adapter_protocolIcEELN9__gnu_cxx12_Lock_policyE2EEC2EOS7_
FNL:12,1546,1551
FNA:12,2,_ZNSt12__shared_ptrIN8nlohmann16json_abi_v3_11_36detail23output_adapter_protocolIcEELN9__gnu_cxx12_Lock_policyE2EEC2INS2_21output_string_adapterIcNSt7__cxx1112basic_stringIcSt11char_traitsIcESaIcEEEEEvEEOS_IT_LS6_2EE
FNL:13,1672,1673
FNA:13,34,_ZNKSt12__shared_ptrIN8nlohmann16json_abi_v3_11_36detail23output_adapter_protocolIcEELN9__gnu_cxx12_Lock_policyE2EE3getEv
FNL:14,171,192
FNA:14,0,_ZNSt16_Sp_counted_baseILN9__gnu_cxx12_Lock_policyE2EE19_M_release_last_useEv
FNL:15,1718,1720
FNA:15,2,_ZNSt12__shared_ptrIN8nlohmann16json_abi_v3_11_36detail21output_string_adapterIcNSt7__cxx1112basic_stringIcSt11char_traitsIcESaIcEEEEELN9__gnu_cxx12_Lock_policyE2EEC2ISaIvEJRS9_EEESt20_Sp_alloc_shared_tagIT_EDpOT0_
FNL:16,1772,1773
FNA:16,2,_ZNSt12__shared_ptrIN8nlohmann16json_abi_v3_11_36detail21output_string_adapterIcNSt7__cxx1112basic_stringIcSt11char_traitsIcESaIcEEEEELN9__gnu_cxx12_Lock_policyE2EE31_M_enable_shared_from_this_withISA_SA_EENSt9enable_ifIXntsrNSD_15__has_esft_baseIT0_vEE5valueEvE4typeEPT_
FNL:17,197,198
FNA:17,0,_ZNSt16_Sp_counted_baseILN9__gnu_cxx12_Lock_policyE2EE24_M_release_last_use_coldEv
FNL:18,316,362
FNA:18,4,_ZNSt16_Sp_counted_baseILN9__gnu_cxx12_Lock_policyE2EE10_M_releaseEv
FNL:19,469,469
FNA:19,2,_ZNSt14_Sp_ebo_helperILi0ESaIvELb1EEC2ERKS0_
FNL:20,473,473
FNA:20,4,_ZNSt14_Sp_ebo_helperILi0ESaIvELb1EE6_S_getERS1_
FNL:21,566,570
FNA:21,0,_ZNSt19_Sp_make_shared_tag5_S_tiEv
FNL:22,589,589
FNA:22,2,_ZNSt23_Sp_counted_ptr_inplaceIN8nlohmann16json_abi_v3_11_36detail21output_string_adapterIcNSt7__cxx1112basic_stringIcSt11char_traitsIcESaIcEEEEESaIvELN9__gnu_cxx12_Lock_policyE2EE5_ImplC2ESB_
FNL:23,591,591
FNA:23,4,_ZNSt23_Sp_counted_ptr_inplaceIN8nlohmann16json_abi_v3_11_36detail21output_string_adapterIcNSt7__cxx1112basic_stringIcSt11char_traitsIcESaIcEEEEESaIvELN9__gnu_cxx12_Lock_policyE2EE5_Impl8_M_allocEv
FNL:24,601,608
FNA:24,2,_ZNSt23_Sp_counted_ptr_inplaceIN8nlohmann16json_abi_v3_11_36detail21output_string_adapterIcNSt7__cxx1112basic_stringIcSt11char_traitsIcESaIcEEEEESaIvELN9__gnu_cxx12_Lock_policyE2EEC2IJRS9_EEESB_DpOT_
FNL:25,610,610
FNA:25,0,_ZNSt23_Sp_counted_ptr_inplaceIN8nlohmann16json_abi_v3_11_36detail21output_string_adapterIcNSt7__cxx1112basic_stringIcSt11char_traitsIcESaIcEEEEESaIvELN9__gnu_cxx12_Lock_policyE2EED0Ev
FNA:25,2,_ZNSt23_Sp_counted_ptr_inplaceIN8nlohmann16json_abi_v3_11_36detail21output_string_adapterIcNSt7__cxx1112basic_stringIcSt11char_traitsIcESaIcEEEEESaIvELN9__gnu_cxx12_Lock_policyE2EED2Ev
FNL:26,613,616
FNA:26,2,_ZNSt23_Sp_counted_ptr_inplaceIN8nlohmann16json_abi_v3_11_36detail21output_string_adapterIcNSt7__cxx1112basic_stringIcSt11char_traitsIcESaIcEEEEESaIvELN9__gnu_cxx12_Lock_policyE2EE10_M_disposeEv
FNL:27,620,625
FNA:27,2,_ZNSt23_Sp_counted_ptr_inplaceIN8nlohmann16json_abi_v3_11_36detail21output_string_adapterIcNSt7__cxx1112basic_stringIcSt11char_traitsIcESaIcEEEEESaIvELN9__gnu_cxx12_Lock_policyE2EE10_M_destroyEv
FNL:28,633,649
FNA:28,0,_ZNSt23_Sp_counted_ptr_inplaceIN8nlohmann16json_abi_v3_11_36detail21output_string_adapterIcNSt7__cxx1112basic_stringIcSt11char_traitsIcESaIcEEEEESaIvELN9__gnu_cxx12_Lock_policyE2EE14_M_get_deleterERKSt9type_info
FNL:29,652,652
FNA:29,6,_ZNSt23_Sp_counted_ptr_inplaceIN8nlohmann16json_abi_v3_11_36detail21output_string_adapterIcNSt7__cxx1112basic_stringIcSt11char_traitsIcESaIcEEEEESaIvELN9__gnu_cxx12_Lock_policyE2EE6_M_ptrEv
FNL:30,905,906
FNA:30,4,_ZNSt14__shared_countILN9__gnu_cxx12_Lock_policyE2EEC2Ev
FNL:31,961,974
FNA:31,2,_ZNSt14__shared_countILN9__gnu_cxx12_Lock_policyE2EEC2IN8nlohmann16json_abi_v3_11_36detail21output_string_adapterIcNSt7__cxx1112basic_stringIcSt11char_traitsIcESaIcEEEEESaIvEJRSD_EEERPT_St20_Sp_alloc_shared_tagIT0_EDpOT1_
FNF:32
FNH:27
DA:128,2
DA:129,2
DA:132,2
DA:133,2
DA:142,0
DA:143,0
DA:150,2
DA:151,2
DA:171,0
DA:174,0
DA:186,0
DA:187,0
DA:190,0
DA:192,0
DA:197,0
DA:198,0
DA:316,4
DA:320,4
DA:323,4
DA:327,4
DA:330,4
DA:331,4
DA:332,4
DA:333,4
DA:336,4
DA:342,2
DA:345,2
DA:346,2
DA:347,2
DA:349,4
DA:350,0
DA:352,0
DA:353,0
DA:469,2
DA:473,4
DA:566,0
DA:569,0
DA:589,2
DA:591,4
DA:601,2
DA:602,2
DA:606,2
DA:608,2
DA:610,2
DA:613,2
DA:615,2
DA:616,2
DA:620,2
DA:622,2
DA:623,2
DA:624,2
DA:625,2
DA:633,0
DA:639,0
DA:640,0
DA:642,0
DA:647,0
DA:648,0
DA:652,6
DA:905,4
DA:906,4
DA:961,2
DA:966,2
DA:967,2
DA:968,2
DA:969,4
DA:971,2
DA:972,2
DA:973,2
DA:974,4
DA:1066,8
DA:1068,8
DA:1069,4
DA:1070,8
DA:1072,2
DA:1073,2
DA:1075,2
DA:1076,2
DA:1077,2
DA:1095,4
DA:1097,4
DA:1098,4
DA:1099,4
DA:1100,4
DA:1361,34
DA:1364,34
DA:1369,34
DA:1370,34
DA:1529,2
DA:1531,8
DA:1538,2
DA:1539,2
DA:1541,2
DA:1542,2
DA:1543,2
DA:1546,2
DA:1547,2
DA:1549,2
DA:1550,2
DA:1551,2
DA:1672,34
DA:1673,34
DA:1718,2
DA:1719,4
DA:1720,2
DA:1772,2
DA:1773,2
LF:107
LH:86
end_of_record
TN:
SF:/usr/include/c++/15/bits/std_function.h
FNL:0,241,241
FNA:0,8,_ZNSt14_Function_baseC2Ev
FNL:1,243,247
FNA:1,8,_ZNSt14_Function_baseD2Ev
FNL:2,249,249
FNA:2,8,_ZNKSt14_Function_base8_M_emptyEv
FNL:3,377,378
FNA:3,2,_ZNSt8functionIFbiN8nlohmann16json_abi_v3_11_36detail13parse_event_tERNS1_10basic_jsonISt3mapSt6vectorNSt7__cxx1112basic_stringIcSt11char_traitsIcESaIcEEEblmdSaNS1_14adl_serializerES6_IhSaIhEEvEEEEC2EDn
FNL:4,388,397
FNA:4,4,_ZNSt8functionIFbiN8nlohmann16json_abi_v3_11_36detail13parse_event_tERNS1_10basic_jsonISt3mapSt6vectorNSt7__cxx1112basic_stringIcSt11char_traitsIcESaIcEEEblmdSaNS1_14adl_serializerES6_IhSaIhEEvEEEEC2ERKSJ_
FNL:5,406,416
FNA:5,2,_ZNSt8functionIFbiN8nlohmann16json_abi_v3_11_36detail13parse_event_tERNS1_10basic_jsonISt3mapSt6vectorNSt7__cxx1112basic_stringIcSt11char_traitsIcESaIcEEEblmdSaNS1_14adl_serializerES6_IhSaIhEEvEEEEC2EOSJ_
FNL:6,575,576
FNA:6,8,_ZNKSt8functionIFbiN8nlohmann16json_abi_v3_11_36detail13parse_event_tERNS1_10basic_jsonISt3mapSt6vectorNSt7__cxx1112basic_stringIcSt11char_traitsIcESaIcEEEblmdSaNS1_14adl_serializerES6_IhSaIhEEvEEEEcvbEv
FNL:7,589,594
FNA:7,0,_ZNKSt8functionIFbiN8nlohmann16json_abi_v3_11_36detail13parse_event_tERNS1_10basic_jsonISt3mapSt6vectorNSt7__cxx1112basic_stringIcSt11char_traitsIcESaIcEEEblmdSaNS1_14adl_serializerES6_IhSaIhEEvEEEEclEiS3_SH_
FNF:8
FNH:7
DA:241,8
DA:243,8
DA:245,8
DA:246,0
DA:247,8
DA:249,8
DA:377,2
DA:378,2
DA:388,4
DA:389,4
DA:391,4
DA:393,0
DA:394,0
DA:395,0
DA:397,4
DA:406,2
DA:407,2
DA:409,2
DA:411,0
DA:412,0
DA:413,0
DA:414,0
DA:416,2
DA:575,8
DA:576,8
DA:589,0
DA:591,0
DA:592,0
DA:593,0
LF:29
LH:17
end_of_record
TN:
SF:/usr/include/c++/15/bits/stl_algo.h
FNL:0,112,117
FNA:0,42,_ZSt13__find_if_notIPKN8nlohmann16json_abi_v3_11_36detail8json_refINS1_10basic_jsonISt3mapSt6vectorNSt7__cxx1112basic_stringIcSt11char_traitsIcESaIcEEEblmdSaNS1_14adl_serializerES6_IhSaIhEEvEEEEN9__gnu_cxx5__ops10_Iter_predIZNSG_C4ESt16initializer_listISH_EbNS2_7value_tEEUlRSI_E_EEET_ST_ST_T0_
FNL:1,412,413
FNA:1,42,_ZSt6all_ofIPKN8nlohmann16json_abi_v3_11_36detail8json_refINS1_10basic_jsonISt3mapSt6vectorNSt7__cxx1112basic_stringIcSt11char_traitsIcESaIcEEEblmdSaNS1_14adl_serializerES6_IhSaIhEEvEEEEZNSG_C4ESt16initializer_listISH_EbNS2_7value_tEEUlRSI_E_EbT_SP_T0_
FNL:2,4254,4267
FNA:2,2,_ZSt9transformIN8nlohmann16json_abi_v3_11_36detail9iter_implIKNS1_10basic_jsonISt3mapSt6vectorNSt7__cxx1112basic_stringIcSt11char_traitsIcESaIcEEEblmdSaNS1_14adl_serializerES6_IhSaIhEEvEEEESt15insert_iteratorIS6_ISC_SaISC_EEEZNS2_20from_json_array_implISG_SL_Li0EEEDTcmcmcldtfp0_7reservecl7declvalINT0_9size_typeEEEEcldtfp_3getINSO_10value_typeEEEcvv_EERKT_RSO_NS2_12priority_tagILj1EEEEUlRSH_E_ESO_SS_SS_SO_T1_
FNL:3,465,475
FNA:3,42,_ZSt11find_if_notIPKN8nlohmann16json_abi_v3_11_36detail8json_refINS1_10basic_jsonISt3mapSt6vectorNSt7__cxx1112basic_stringIcSt11char_traitsIcESaIcEEEblmdSaNS1_14adl_serializerES6_IhSaIhEEvEEEEZNSG_C4ESt16initializer_listISH_EbNS2_7value_tEEUlRSI_E_ET_SP_SP_T0_
FNF:4
FNH:4
DA:112,42
DA:115,42
DA:116,42
DA:412,42
DA:413,42
DA:465,42
DA:473,42
DA:474,42
DA:4254,2
DA:4264,4
DA:4265,2
DA:4266,2
LF:12
LH:12
end_of_record
TN:
SF:/usr/include/c++/15/bits/stl_algobase.h
FNL:0,2092,2098
FNA:0,42,_ZSt9__find_ifIPKN8nlohmann16json_abi_v3_11_36detail8json_refINS1_10basic_jsonISt3mapSt6vectorNSt7__cxx1112basic_stringIcSt11char_traitsIcESaIcEEEblmdSaNS1_14adl_serializerES6_IhSaIhEEvEEEEN9__gnu_cxx5__ops12_Iter_negateIZNSG_C4ESt16initializer_listISH_EbNS2_7value_tEEUlRSI_E_EEET_ST_ST_T0_
FNL:1,234,242
FNA:1,12406,_ZSt3minImERKT_S2_S2_
FNL:2,258,266
FNA:2,87,_ZSt3maxImERKT_S2_S2_
FNL:3,413,464
FNA:3,2,_ZSt14__copy_move_a2ILb0EPmS0_S0_ET2_T0_T1_S1_
FNA:3,2,_ZSt14__copy_move_a2ILb0ESt13_Bit_iteratorS0_S0_ET2_T0_T1_S1_
FNA:3,2,_ZSt14__copy_move_a2ILb0ESt19_Bit_const_iteratorS0_St13_Bit_iteratorET2_T0_T1_S2_
FNA:3,0,_ZSt14__copy_move_a2ILb1EPN8nlohmann16json_abi_v3_11_310basic_jsonISt3mapSt6vectorNSt7__cxx1112basic_stringIcSt11char_traitsIcESaIcEEEblmdSaNS1_14adl_serializerES4_IhSaIhEEvEESF_SF_ET2_T0_T1_SG_
FNA:3,198,_ZSt14__copy_move_a2ILb1EPN8nlohmann16json_abi_v3_11_310basic_jsonISt3mapSt6vectorNSt7__cxx1112basic_stringIcSt11char_traitsIcESaIcEEEblmdSaNS1_14adl_serializerES4_IhSaIhEEvEESF_St20back_insert_iteratorIS4_ISE_SaISE_EEEET2_T0_T1_SK_
FNA:3,1,_ZSt14__copy_move_a2ILb1EPNSt7__cxx1112basic_stringIcSt11char_traitsIcESaIcEEES6_S6_ET2_T0_T1_S7_
FNL:4,633,643
FNA:4,2,_ZSt4copyIPmS0_ET0_T_S2_S1_
FNA:4,2,_ZSt4copyISt13_Bit_iteratorS0_ET0_T_S2_S1_
FNA:4,2,_ZSt4copyISt19_Bit_const_iteratorSt13_Bit_iteratorET0_T_S3_S2_
FNL:5,666,676
FNA:5,0,_ZSt4moveIN9__gnu_cxx17__normal_iteratorIPN8nlohmann16json_abi_v3_11_310basic_jsonISt3mapSt6vectorNSt7__cxx1112basic_stringIcSt11char_traitsIcESaIcEEEblmdSaNS3_14adl_serializerES6_IhSaIhEEvEES6_ISG_SaISG_EEEESK_ET0_T_SM_SL_
FNA:5,198,_ZSt4moveIN9__gnu_cxx17__normal_iteratorIPN8nlohmann16json_abi_v3_11_310basic_jsonISt3mapSt6vectorNSt7__cxx1112basic_stringIcSt11char_traitsIcESaIcEEEblmdSaNS3_14adl_serializerES6_IhSaIhEEvEES6_ISG_SaISG_EEEESt20back_insert_iteratorISJ_EET0_T_SO_SN_
FNA:5,1,_ZSt4moveIN9__gnu_cxx17__normal_iteratorIPNSt7__cxx1112basic_stringIcSt11char_traitsIcESaIcEEESt6vectorIS7_SaIS7_EEEESC_ET0_T_SE_SD_
FNL:6,688,742
FNA:6,0,_ZSt23__copy_move_backward_a2ILb0ESt13_Bit_iteratorS0_ET1_T0_S2_S1_
FNA:6,1,_ZSt23__copy_move_backward_a2ILb1EPNSt7__cxx1112basic_stringIcSt11char_traitsIcESaIcEEES6_ET1_T0_S8_S7_
FNF:7
FNH:7
DA:234,12406
DA:239,12406
DA:240,143
DA:241,12263
DA:258,87
DA:263,87
DA:264,36
DA:265,51
DA:404,206
DA:407,0
DA:408,103
DA:413,205
DA:419,2
DA:423,2
DA:424,2
DA:426,0
DA:428,0
DA:429,0
DA:431,2
DA:434,0
DA:436,2
DA:461,306
DA:463,203
DA:492,205
DA:500,822
DA:503,205
DA:633,6
DA:642,12
DA:666,199
DA:674,199
DA:675,199
DA:688,1
DA:735,1
DA:737,0
DA:738,0
DA:741,1
DA:753,1
DA:783,5
DA:786,1
DA:847,0
DA:882,1
DA:884,1
DA:2092,42
DA:2095,42
DA:2096,0
DA:2097,42
LF:46
LH:37
end_of_record
TN:
SF:/usr/include/c++/15/bits/stl_bvector.h
FNL:0,105,106
FNA:0,7,_ZNKSt14_Bit_referencecvbEv
FNL:1,1065,1066
FNA:1,2,_ZNSt6vectorIbSaIbEE5beginEv
FNL:2,1070,1071
FNA:2,27,_ZNKSt6vectorIbSaIbEE5beginEv
FNL:3,1075,1076
FNA:3,11,_ZNSt6vectorIbSaIbEE3endEv
FNL:4,1080,1081
FNA:4,27,_ZNKSt6vectorIbSaIbEE3endEv
FNL:5,110,117
FNA:5,3,_ZNSt14_Bit_referenceaSEb
FNL:6,1127,1128
FNA:6,8,_ZNKSt6vectorIbSaIbEE4sizeEv
FNL:7,1132,1141
FNA:7,4,_ZNKSt6vectorIbSaIbEE8max_sizeEv
FNL:8,1151,1152
FNA:8,19,_ZNKSt6vectorIbSaIbEE5emptyEv
FNL:9,1231,1235
FNA:9,7,_ZNSt6vectorIbSaIbEE4backEv
FNL:10,1247,1253
FNA:10,3,_ZNSt6vectorIbSaIbEE9push_backEb
FNL:11,133,134
FNA:11,0,_ZNSt14_Bit_referenceaSERKS_
FNL:12,1465,1466
FNA:12,3,_ZNSt6vectorIbSaIbEE8pop_backEv
FNL:13,1544,1550
FNA:13,2,_ZNSt6vectorIbSaIbEE15_M_copy_alignedESt19_Bit_const_iteratorS2_St13_Bit_iterator
FNL:14,1735,1742
FNA:14,2,_ZNKSt6vectorIbSaIbEE12_M_check_lenEmPKc
FNL:15,201,202
FNA:15,74,_ZNSt18_Bit_iterator_baseC2EPmj
FNL:16,206,214
FNA:16,3,_ZNSt18_Bit_iterator_base10_M_bump_upEv
FNL:17,218,226
FNA:17,3,_ZNSt18_Bit_iterator_base12_M_bump_downEv
FNL:18,230,242
FNA:18,7,_ZNSt18_Bit_iterator_base7_M_incrEl
FNL:19,246,251
FNA:19,23,_ZSteqRKSt18_Bit_iterator_baseS1_
FNL:20,278,279
FNA:20,4,_ZStneRKSt18_Bit_iterator_baseS1_
FNL:21,298,304
FNA:21,8,_ZStmiRKSt18_Bit_iterator_baseS1_
FNL:22,319,319
FNA:22,8,_ZNSt13_Bit_iteratorC2Ev
FNL:23,322,323
FNA:23,6,_ZNSt13_Bit_iteratorC2EPmj
FNL:24,332,336
FNA:24,10,_ZNKSt13_Bit_iteratordeEv
FNL:25,340,344
FNA:25,0,_ZNSt13_Bit_iteratorppEv
FNL:26,348,353
FNA:26,3,_ZNSt13_Bit_iteratorppEi
FNL:27,357,361
FNA:27,3,_ZNSt13_Bit_iteratormmEv
FNL:28,374,378
FNA:28,7,_ZNSt13_Bit_iteratorpLEl
FNL:29,382,386
FNA:29,7,_ZNSt13_Bit_iteratormIEl
FNL:30,395,400
FNA:30,0,_ZStplRKSt13_Bit_iteratorl
FNL:31,409,414
FNA:31,7,_ZStmiRKSt13_Bit_iteratorl
FNL:32,432,433
FNA:32,29,_ZNSt19_Bit_const_iteratorC2EPmj
FNL:33,436,437
FNA:33,31,_ZNSt19_Bit_const_iteratorC2ERKSt13_Bit_iterator
FNL:34,446,450
FNA:34,0,_ZNKSt19_Bit_const_iteratordeEv
FNL:35,454,458
FNA:35,0,_ZNSt19_Bit_const_iteratorppEv
FNL:36,557,559
FNA:36,4,_ZNSt13_Bvector_baseISaIbEE18_Bvector_impl_dataC2Ev
FNL:37,583,584
FNA:37,2,_ZNSt13_Bvector_baseISaIbEE18_Bvector_impl_data8_M_resetEv
FNL:38,600,606
FNA:38,2,_ZNSt13_Bvector_baseISaIbEE13_Bvector_implC2Ev
FNL:39,629,634
FNA:39,7,_ZNKSt13_Bvector_baseISaIbEE13_Bvector_impl11_M_end_addrEv
FNL:40,647,648
FNA:40,4,_ZNKSt13_Bvector_baseISaIbEE20_M_get_Bit_allocatorEv
FNL:41,656,656
FNA:41,2,_ZNSt13_Bvector_baseISaIbEEC2Ev
FNL:42,675,676
FNA:42,2,_ZNSt13_Bvector_baseISaIbEED2Ev
FNL:43,683,695
FNA:43,2,_ZNSt13_Bvector_baseISaIbEE11_M_allocateEm
FNL:44,699,709
FNA:44,4,_ZNSt13_Bvector_baseISaIbEE13_M_deallocateEv
FNL:45,720,721
FNA:45,4,_ZNSt13_Bvector_baseISaIbEE8_S_nwordEm
FNL:46,787,787
FNA:46,2,_ZNSt6vectorIbSaIbEEC2Ev
FNL:47,926,926
FNA:47,2,_ZNSt6vectorIbSaIbEED2Ev
FNL:48,96,97
FNA:48,10,_ZNSt14_Bit_referenceC2EPmm
FNF:49
FNH:44
DA:96,10
DA:97,10
DA:105,7
DA:106,7
DA:110,3
DA:112,3
DA:113,1
DA:115,2
DA:116,3
DA:133,0
DA:134,0
DA:195,85
DA:196,31
DA:198,85
DA:201,74
DA:202,74
DA:206,3
DA:209,3
DA:211,0
DA:212,0
DA:214,3
DA:218,3
DA:221,3
DA:223,0
DA:224,0
DA:226,3
DA:230,7
DA:233,7
DA:234,7
DA:235,7
DA:236,7
DA:238,0
DA:239,0
DA:241,7
DA:242,7
DA:246,23
DA:250,23
DA:278,4
DA:279,4
DA:298,8
DA:302,8
DA:303,8
DA:319,8
DA:322,6
DA:323,6
DA:332,10
DA:334,10
DA:335,10
DA:340,0
DA:342,0
DA:343,0
DA:348,3
DA:350,3
DA:351,3
DA:352,3
DA:357,3
DA:359,3
DA:360,3
DA:374,7
DA:376,7
DA:377,7
DA:382,7
DA:384,7
DA:385,7
DA:395,0
DA:397,0
DA:398,0
DA:399,0
DA:409,7
DA:411,7
DA:412,7
DA:413,7
DA:432,29
DA:433,29
DA:436,31
DA:437,31
DA:446,0
DA:448,0
DA:449,0
DA:454,0
DA:456,0
DA:457,0
DA:557,4
DA:558,4
DA:559,4
DA:583,2
DA:584,2
DA:600,2
DA:605,2
DA:606,2
DA:629,7
DA:631,7
DA:632,6
DA:633,4
DA:647,4
DA:648,4
DA:656,2
DA:675,2
DA:676,2
DA:683,2
DA:685,2
DA:694,2
DA:699,4
DA:701,4
DA:703,2
DA:704,2
DA:705,2
DA:707,2
DA:709,4
DA:720,4
DA:721,4
DA:787,2
DA:926,2
DA:1065,2
DA:1066,2
DA:1070,27
DA:1071,27
DA:1075,11
DA:1076,11
DA:1080,27
DA:1081,27
DA:1127,8
DA:1128,8
DA:1132,4
DA:1134,4
DA:1138,4
DA:1140,4
DA:1151,19
DA:1152,19
DA:1231,7
DA:1233,7
DA:1234,7
DA:1247,3
DA:1249,3
DA:1250,1
DA:1252,2
DA:1253,3
DA:1465,3
DA:1466,3
DA:1544,2
DA:1547,2
DA:1548,4
DA:1549,6
DA:1735,2
DA:1737,2
DA:1738,0
DA:1740,2
DA:1741,2
LF:148
LH:126
end_of_record
TN:
SF:/usr/include/c++/15/bits/stl_construct.h
FNL:0,123,134
FNA:0,0,_ZSt10_ConstructIN8nlohmann16json_abi_v3_11_310basic_jsonISt3mapSt6vectorNSt7__cxx1112basic_stringIcSt11char_traitsIcESaIcEEEblmdSaNS1_14adl_serializerES4_IhSaIhEEvEEJEEvPT_DpOT0_
FNA:0,0,_ZSt10_ConstructIN8nlohmann16json_abi_v3_11_310basic_jsonISt3mapSt6vectorNSt7__cxx1112basic_stringIcSt11char_traitsIcESaIcEEEblmdSaNS1_14adl_serializerES4_IhSaIhEEvEEJRKNS1_6detail8json_refISE_EEEEvPT_DpOT0_
FNA:0,2,_ZSt10_ConstructIN8nlohmann16json_abi_v3_11_310basic_jsonISt3mapSt6vectorNSt7__cxx1112basic_stringIcSt11char_traitsIcESaIcEEEblmdSaNS1_14adl_serializerES4_IhSaIhEEvEEJRKSA_EEvPT_DpOT0_
FNA:0,50,_ZSt10_ConstructIN8nlohmann16json_abi_v3_11_310basic_jsonISt3mapSt6vectorNSt7__cxx1112basic_stringIcSt11char_traitsIcESaIcEEEblmdSaNS1_14adl_serializerES4_IhSaIhEEvEEJRKSE_EEvPT_DpOT0_
FNA:0,2,_ZSt10_ConstructIN8nlohmann16json_abi_v3_11_36detail21output_string_adapterIcNSt7__cxx1112basic_stringIcSt11char_traitsIcESaIcEEEEEJRS9_EEvPT_DpOT0_
FNA:0,31,_ZSt10_ConstructINSt7__cxx1112basic_stringIcSt11char_traitsIcESaIcEEEJRKPKcEEvPT_DpOT0_
FNA:0,340,_ZSt10_ConstructINSt7__cxx114listI8HashNodeSaIS2_EEEJEEvPT_DpOT0_
FNL:1,161,168
FNA:1,102,_ZSt8_DestroyIN8nlohmann16json_abi_v3_11_310basic_jsonISt3mapSt6vectorNSt7__cxx1112basic_stringIcSt11char_traitsIcESaIcEEEblmdSaNS1_14adl_serializerES4_IhSaIhEEvEEEvPT_
FNA:1,2,_ZSt8_DestroyIN8nlohmann16json_abi_v3_11_36detail21output_string_adapterIcNSt7__cxx1112basic_stringIcSt11char_traitsIcESaIcEEEEEEvPT_
FNA:1,88,_ZSt8_DestroyINSt7__cxx1112basic_stringIcSt11char_traitsIcESaIcEEEEvPT_
FNA:1,340,_ZSt8_DestroyINSt7__cxx114listI8HashNodeSaIS2_EEEEvPT_
FNL:2,219,236
FNA:2,282,_ZSt8_DestroyIPN8nlohmann16json_abi_v3_11_310basic_jsonISt3mapSt6vectorNSt7__cxx1112basic_stringIcSt11char_traitsIcESaIcEEEblmdSaNS1_14adl_serializerES4_IhSaIhEEvEEEvT_SG_
FNA:2,50,_ZSt8_DestroyIPNSt7__cxx1112basic_stringIcSt11char_traitsIcESaIcEEEEvT_S7_
FNA:2,22,_ZSt8_DestroyIPNSt7__cxx114listI8HashNodeSaIS2_EEEEvT_S6_
FNA:2,2,_ZSt8_DestroyIPPN8nlohmann16json_abi_v3_11_310basic_jsonISt3mapSt6vectorNSt7__cxx1112basic_stringIcSt11char_traitsIcESaIcEEEblmdSaNS1_14adl_serializerES4_IhSaIhEEvEEEvT_SH_
FNA:2,11,_ZSt8_DestroyIPcEvT_S1_
FNA:2,0,_ZSt8_DestroyIPhEvT_S1_
FNF:3
FNH:3
DA:123,425
DA:133,510
DA:134,425
DA:161,532
DA:166,532
DA:168,532
DA:219,367
DA:225,884
DA:226,530
DA:236,367
LF:10
LH:10
end_of_record
TN:
SF:/usr/include/c++/15/bits/stl_function.h
FNL:0,1179,1180
FNA:0,257,_ZNKSt10_Select1stISt4pairIKNSt7__cxx1112basic_stringIcSt11char_traitsIcESaIcEEEN8nlohmann16json_abi_v3_11_310basic_jsonISt3mapSt6vectorS6_blmdSaNS9_14adl_serializerESC_IhSaIhEEvEEEEclERKSH_
FNL:1,448,455
FNA:1,275,_ZNKSt4lessIPKcEclES1_S1_
FNL:2,586,592
FNA:2,266,_ZNKSt4lessIvEclIRKNSt7__cxx1112basic_stringIcSt11char_traitsIcESaIcEEES9_EEDTltcl7forwardIT_Efp_Ecl7forwardIT0_Efp0_EEOSA_OSB_
FNL:3,604,605
FNA:3,266,_ZNSt4lessIvE6_S_cmpIRKNSt7__cxx1112basic_stringIcSt11char_traitsIcESaIcEEES9_EEDcOT_OT0_St17integral_constantIbLb0EE
FNF:4
FNH:4
DA:448,275
DA:451,275
DA:452,0
DA:454,275
DA:586,266
DA:590,1064
DA:591,266
DA:604,266
DA:605,532
DA:1179,257
DA:1180,257
LF:11
LH:10
end_of_record
TN:
SF:/usr/include/c++/15/bits/stl_iterator.h
FNL:0,1005,1006
FNA:0,2,_ZSt8inserterISt6vectorINSt7__cxx1112basic_stringIcSt11char_traitsIcESaIcEEESaIS6_EEESt15insert_iteratorIT_ERSA_NSA_8iteratorE
FNL:1,190,193
FNA:1,14,_ZNSt16reverse_iteratorIN8nlohmann16json_abi_v3_11_36detail9iter_implINS1_10basic_jsonISt3mapSt6vectorNSt7__cxx1112basic_stringIcSt11char_traitsIcESaIcEEEblmdSaNS1_14adl_serializerES6_IhSaIhEEvEEEEEC2ESH_
FNA:1,25,_ZNSt16reverse_iteratorIN9__gnu_cxx17__normal_iteratorIPNSt7__cxx1112basic_stringIcSt11char_traitsIcESaIcEEESt6vectorIS7_SaIS7_EEEEEC2ESC_
FNL:2,243,245
FNA:2,20,_ZNKSt16reverse_iteratorIN8nlohmann16json_abi_v3_11_36detail9iter_implINS1_10basic_jsonISt3mapSt6vectorNSt7__cxx1112basic_stringIcSt11char_traitsIcESaIcEEEblmdSaNS1_14adl_serializerES6_IhSaIhEEvEEEEE4baseEv
FNA:2,36,_ZNKSt16reverse_iteratorIN9__gnu_cxx17__normal_iteratorIPNSt7__cxx1112basic_stringIcSt11char_traitsIcESaIcEEESt6vectorIS7_SaIS7_EEEEE4baseEv
FNL:3,259,263
FNA:3,11,_ZNKSt16reverse_iteratorIN9__gnu_cxx17__normal_iteratorIPNSt7__cxx1112basic_stringIcSt11char_traitsIcESaIcEEESt6vectorIS7_SaIS7_EEEEEdeEv
FNL:4,272,283
FNA:4,6,_ZNKSt16reverse_iteratorIN8nlohmann16json_abi_v3_11_36detail9iter_implINS1_10basic_jsonISt3mapSt6vectorNSt7__cxx1112basic_stringIcSt11char_traitsIcESaIcEEEblmdSaNS1_14adl_serializerES6_IhSaIhEEvEEEEEptEv
FNL:5,291,295
FNA:5,6,_ZNSt16reverse_iteratorIN8nlohmann16json_abi_v3_11_36detail9iter_implINS1_10basic_jsonISt3mapSt6vectorNSt7__cxx1112basic_stringIcSt11char_traitsIcESaIcEEEblmdSaNS1_14adl_serializerES6_IhSaIhEEvEEEEEppEv
FNA:5,11,_ZNSt16reverse_iteratorIN9__gnu_cxx17__normal_iteratorIPNSt7__cxx1112basic_stringIcSt11char_traitsIcESaIcEEESt6vectorIS7_SaIS7_EEEEEppEv
FNL:6,3073,3074
FNA:6,0,_ZSt12__niter_wrapIN9__gnu_cxx17__normal_iteratorIPN8nlohmann16json_abi_v3_11_310basic_jsonISt3mapSt6vectorNSt7__cxx1112basic_stringIcSt11char_traitsIcESaIcEEEblmdSaNS3_14adl_serializerES6_IhSaIhEEvEES6_ISG_SaISG_EEEESH_ET_SL_T0_
FNA:6,1,_ZSt12__niter_wrapIN9__gnu_cxx17__normal_iteratorIPNSt7__cxx1112basic_stringIcSt11char_traitsIcESaIcEEESt6vectorIS7_SaIS7_EEEES8_ET_SD_T0_
FNL:7,425,426
FNA:7,6,_ZNSt16reverse_iteratorIN8nlohmann16json_abi_v3_11_36detail9iter_implINS1_10basic_jsonISt3mapSt6vectorNSt7__cxx1112basic_stringIcSt11char_traitsIcESaIcEEEblmdSaNS1_14adl_serializerES6_IhSaIhEEvEEEEE13_S_to_pointerISH_EEPSG_T_
FNL:8,443,445
FNA:8,10,_ZSteqIN8nlohmann16json_abi_v3_11_36detail9iter_implINS1_10basic_jsonISt3mapSt6vectorNSt7__cxx1112basic_stringIcSt11char_traitsIcESaIcEEEblmdSaNS1_14adl_serializerES6_IhSaIhEEvEEEEEbRKSt16reverse_iteratorIT_ESM_
FNA:8,18,_ZSteqIN9__gnu_cxx17__normal_iteratorIPNSt7__cxx1112basic_stringIcSt11char_traitsIcESaIcEEESt6vectorIS7_SaIS7_EEEEEbRKSt16reverse_iteratorIT_ESH_
FNL:9,457,459
FNA:9,10,_ZStneIN8nlohmann16json_abi_v3_11_36detail9iter_implINS1_10basic_jsonISt3mapSt6vectorNSt7__cxx1112basic_stringIcSt11char_traitsIcESaIcEEEblmdSaNS1_14adl_serializerES6_IhSaIhEEvEEEEEbRKSt16reverse_iteratorIT_ESM_
FNA:9,18,_ZStneIN9__gnu_cxx17__normal_iteratorIPNSt7__cxx1112basic_stringIcSt11char_traitsIcESaIcEEESt6vectorIS7_SaIS7_EEEEEbRKSt16reverse_iteratorIT_ESH_
FNL:10,692,693
FNA:10,198,_ZNSt20back_insert_iteratorISt6vectorIN8nlohmann16json_abi_v3_11_310basic_jsonISt3mapS0_NSt7__cxx1112basic_stringIcSt11char_traitsIcESaIcEEEblmdSaNS2_14adl_serializerES0_IhSaIhEEvEESaISE_EEEC2ERSG_
FNL:11,724,728
FNA:11,102,_ZNSt20back_insert_iteratorISt6vectorIN8nlohmann16json_abi_v3_11_310basic_jsonISt3mapS0_NSt7__cxx1112basic_stringIcSt11char_traitsIcESaIcEEEblmdSaNS2_14adl_serializerES0_IhSaIhEEvEESaISE_EEEaSEOSE_
FNL:12,734,735
FNA:12,102,_ZNSt20back_insert_iteratorISt6vectorIN8nlohmann16json_abi_v3_11_310basic_jsonISt3mapS0_NSt7__cxx1112basic_stringIcSt11char_traitsIcESaIcEEEblmdSaNS2_14adl_serializerES0_IhSaIhEEvEESaISE_EEEdeEv
FNL:13,740,741
FNA:13,102,_ZNSt20back_insert_iteratorISt6vectorIN8nlohmann16json_abi_v3_11_310basic_jsonISt3mapS0_NSt7__cxx1112basic_stringIcSt11char_traitsIcESaIcEEEblmdSaNS2_14adl_serializerES0_IhSaIhEEvEESaISE_EEEppEv
FNL:14,764,765
FNA:14,198,_ZSt13back_inserterISt6vectorIN8nlohmann16json_abi_v3_11_310basic_jsonISt3mapS0_NSt7__cxx1112basic_stringIcSt11char_traitsIcESaIcEEEblmdSaNS2_14adl_serializerES0_IhSaIhEEvEESaISE_EEESt20back_insert_iteratorIT_ERSI_
FNL:15,908,909
FNA:15,2,_ZNSt15insert_iteratorISt6vectorINSt7__cxx1112basic_stringIcSt11char_traitsIcESaIcEEESaIS6_EEEC2ERS8_N9__gnu_cxx17__normal_iteratorIPS6_S8_EE
FNL:16,954,959
FNA:16,2,_ZNSt15insert_iteratorISt6vectorINSt7__cxx1112basic_stringIcSt11char_traitsIcESaIcEEESaIS6_EEEaSEOS6_
FNL:17,965,966
FNA:17,2,_ZNSt15insert_iteratorISt6vectorINSt7__cxx1112basic_stringIcSt11char_traitsIcESaIcEEESaIS6_EEEdeEv
FNL:18,971,972
FNA:18,2,_ZNSt15insert_iteratorISt6vectorINSt7__cxx1112basic_stringIcSt11char_traitsIcESaIcEEESaIS6_EEEppEv
FNF:19
FNH:19
DA:190,39
DA:192,39
DA:193,39
DA:243,56
DA:245,56
DA:259,11
DA:261,11
DA:262,11
DA:272,6
DA:280,6
DA:281,6
DA:282,6
DA:291,17
DA:293,17
DA:294,17
DA:425,6
DA:426,6
DA:443,28
DA:445,46
DA:457,28
DA:459,28
DA:692,198
DA:693,198
DA:724,102
DA:726,204
DA:727,102
DA:734,102
DA:735,102
DA:740,102
DA:741,102
DA:764,198
DA:765,198
DA:908,2
DA:909,2
DA:954,2
DA:956,4
DA:957,2
DA:958,2
DA:965,2
DA:966,2
DA:971,2
DA:972,2
DA:1005,2
DA:1006,2
DA:1053,212
DA:1054,212
DA:1058,4194
DA:1059,3648
DA:1070,20
DA:1082,20
DA:1090,1184
DA:1103,566
DA:1104,566
DA:1120,22
DA:1121,22
DA:1142,95
DA:1148,24
DA:1160,522
DA:1166,2485
DA:1223,32
DA:1231,2204
DA:1247,1704
DA:1332,34
DA:1340,152
DA:3002,400
DA:3011,1133
DA:3073,1
DA:3074,3
DA:3082,205
LF:69
LH:69
end_of_record
TN:
SF:/usr/include/c++/15/bits/stl_iterator_base_funcs.h
FNL:0,170,182
FNA:0,0,_ZSt9__advanceISt17_Rb_tree_iteratorISt4pairIKNSt7__cxx1112basic_stringIcSt11char_traitsIcESaIcEEEN8nlohmann16json_abi_v3_11_310basic_jsonISt3mapSt6vectorS7_blmdSaNSA_14adl_serializerESD_IhSaIhEEvEEEElEvRT_T0_St26bidirectional_iterator_tag
FNA:0,2,_ZSt9__advanceISt23_Rb_tree_const_iteratorISt4pairIKNSt7__cxx1112basic_stringIcSt11char_traitsIcESaIcEEEN8nlohmann16json_abi_v3_11_310basic_jsonISt3mapSt6vectorS7_blmdSaNSA_14adl_serializerESD_IhSaIhEEvEEEElEvRT_T0_St26bidirectional_iterator_tag
FNL:1,186,198
FNA:1,72,_ZSt9__advanceIN9__gnu_cxx17__normal_iteratorIPKcNSt7__cxx1112basic_stringIcSt11char_traitsIcESaIcEEEEElEvRT_T0_St26random_access_iterator_tag
FNA:1,23,_ZSt9__advanceIN9__gnu_cxx17__normal_iteratorIPN8nlohmann16json_abi_v3_11_310basic_jsonISt3mapSt6vectorNSt7__cxx1112basic_stringIcSt11char_traitsIcESaIcEEEblmdSaNS3_14adl_serializerES6_IhSaIhEEvEES6_ISG_SaISG_EEEElEvRT_T0_St26random_access_iterator_tag
FNF:2
FNH:2
DA:108,568
DA:153,1134
DA:154,1136
DA:170,2
DA:176,2
DA:177,4
DA:178,2
DA:180,0
DA:181,0
DA:182,2
DA:186,95
DA:198,95
DA:225,97
DA:226,97
DA:227,97
DA:240,2
LF:16
LH:14
end_of_record
TN:
SF:/usr/include/c++/15/bits/stl_iterator_base_types.h
FNF:0
FNH:0
DA:242,710
LF:1
LH:1
end_of_record
TN:
SF:/usr/include/c++/15/bits/stl_list.h
FNL:0,1102,1109
FNA:0,3,_ZNSt7__cxx114listI8HashNodeSaIS1_EE14_M_create_nodeIJRKN8nlohmann16json_abi_v3_11_310basic_jsonISt3mapSt6vectorNS_12basic_stringIcSt11char_traitsIcESaIcEEEblmdSaNS6_14adl_serializerES9_IhSaIhEEvEESK_EEEPSt10_List_nodeIS1_EDpOT_
FNA:0,36,_ZNSt7__cxx114listI8HashNodeSaIS1_EE14_M_create_nodeIJRKNS_12basic_stringIcSt11char_traitsIcESaIcEEESB_EEEPSt10_List_nodeIS1_EDpOT_
FNA:0,6,_ZNSt7__cxx114listI8HashNodeSaIS1_EE14_M_create_nodeIJRNS_12basic_stringIcSt11char_traitsIcESaIcEEESA_EEEPSt10_List_nodeIS1_EDpOT_
FNL:1,1120,1120
FNA:1,340,_ZNSt7__cxx114listI8HashNodeSaIS1_EEC2Ev
FNL:2,118,118
FNA:2,177,_ZNKSt8__detail15_List_node_base7_M_baseEv
FNL:3,1195,1195
FNA:3,0,_ZNSt7__cxx114listI8HashNodeSaIS1_EEC2EOS3_
FNL:4,1290,1290
FNA:4,340,_ZNSt7__cxx114listI8HashNodeSaIS1_EED2Ev
FNL:5,132,133
FNA:5,340,_ZNSt8__detail17_List_node_headerC2Ev
FNL:6,136,146
FNA:6,0,_ZNSt8__detail17_List_node_headerC2EOS0_
FNL:7,1457,1458
FNA:7,39,_ZNSt7__cxx114listI8HashNodeSaIS1_EE5beginEv
FNL:8,1467,1468
FNA:8,132,_ZNKSt7__cxx114listI8HashNodeSaIS1_EE5beginEv
FNL:9,1477,1478
FNA:9,129,_ZNSt7__cxx114listI8HashNodeSaIS1_EE3endEv
FNL:10,1487,1488
FNA:10,132,_ZNKSt7__cxx114listI8HashNodeSaIS1_EE3endEv
FNL:11,1578,1581
FNA:11,45,_ZNKSt7__cxx114listI8HashNodeSaIS1_EE5emptyEv
FNL:12,1586,1593
FNA:12,64,_ZNKSt7__cxx114listI8HashNodeSaIS1_EE4sizeEv
FNL:13,167,171
FNA:13,340,_ZNSt8__detail17_List_node_header7_M_initEv
FNL:14,1672,1678
FNA:14,45,_ZNSt7__cxx114listI8HashNodeSaIS1_EE4backEv
FNL:15,175,175
FNA:15,513,_ZNSt8__detail17_List_node_header7_M_baseEv
FNL:16,1817,1823
FNA:16,3,_ZNSt7__cxx114listI8HashNodeSaIS1_EE12emplace_backIJRKN8nlohmann16json_abi_v3_11_310basic_jsonISt3mapSt6vectorNS_12basic_stringIcSt11char_traitsIcESaIcEEEblmdSaNS6_14adl_serializerES9_IhSaIhEEvEESK_EEERS1_DpOT_
FNA:16,36,_ZNSt7__cxx114listI8HashNodeSaIS1_EE12emplace_backIJRKNS_12basic_stringIcSt11char_traitsIcESaIcEEESB_EEERS1_DpOT_
FNA:16,6,_ZNSt7__cxx114listI8HashNodeSaIS1_EE12emplace_backIJRNS_12basic_stringIcSt11char_traitsIcESaIcEEESA_EEERS1_DpOT_
FNL:17,2470,2475
FNA:17,3,_ZNSt7__cxx114listI8HashNodeSaIS1_EE9_M_insertIJRKN8nlohmann16json_abi_v3_11_310basic_jsonISt3mapSt6vectorNS_12basic_stringIcSt11char_traitsIcESaIcEEEblmdSaNS6_14adl_serializerES9_IhSaIhEEvEESK_EEEvSt14_List_iteratorIS1_EDpOT_
FNA:17,36,_ZNSt7__cxx114listI8HashNodeSaIS1_EE9_M_insertIJRKNS_12basic_stringIcSt11char_traitsIcESaIcEEESB_EEEvSt14_List_iteratorIS1_EDpOT_
FNA:17,6,_ZNSt7__cxx114listI8HashNodeSaIS1_EE9_M_insertIJRNS_12basic_stringIcSt11char_traitsIcESaIcEEESA_EEEvSt14_List_iteratorIS1_EDpOT_
FNL:18,2480,2487
FNA:18,1,_ZNSt7__cxx114listI8HashNodeSaIS1_EE8_M_eraseESt14_List_iteratorIS1_E
FNL:19,557,557
FNA:19,179,_ZNSt10_List_nodeI8HashNodeE9_M_valptrEv
FNL:20,558,558
FNA:20,84,_ZNKSt10_List_nodeI8HashNodeE9_M_valptrEv
FNL:21,565,565
FNA:21,45,_ZNSt10_List_nodeI8HashNodeE11_M_node_ptrEv
FNL:22,588,589
FNA:22,170,_ZNSt14_List_iteratorI8HashNodeEC2EPNSt8__detail15_List_node_baseE
FNL:23,598,599
FNA:23,88,_ZNKSt14_List_iteratorI8HashNodeEdeEv
FNL:24,603,604
FNA:24,1,_ZNKSt14_List_iteratorI8HashNodeEptEv
FNL:25,607,611
FNA:25,42,_ZNSt14_List_iteratorI8HashNodeEppEv
FNL:26,622,626
FNA:26,45,_ZNSt14_List_iteratorI8HashNodeEmmEv
FNL:27,645,647
FNA:27,81,_ZStneRKSt14_List_iteratorI8HashNodeES3_
FNL:28,675,677
FNA:28,264,_ZNSt20_List_const_iteratorI8HashNodeEC2EPKNSt8__detail15_List_node_baseE
FNL:29,679,680
FNA:29,1,_ZNSt20_List_const_iteratorI8HashNodeEC2ERKSt14_List_iteratorIS0_E
FNL:30,683,684
FNA:30,1,_ZNKSt20_List_const_iteratorI8HashNodeE13_M_const_castEv
FNL:31,689,690
FNA:31,84,_ZNKSt20_List_const_iteratorI8HashNodeEdeEv
FNL:32,698,702
FNA:32,51,_ZNSt20_List_const_iteratorI8HashNodeEppEv
FNL:33,736,738
FNA:33,183,_ZStneRKSt20_List_const_iteratorI8HashNodeES3_
FNL:34,772,775
FNA:34,340,_ZNSt7__cxx1110_List_baseI8HashNodeSaIS1_EE10_List_implC2Ev
FNL:35,782,782
FNA:35,0,_ZNSt7__cxx1110_List_baseI8HashNodeSaIS1_EE10_List_implC2EOS4_
FNL:36,797,797
FNA:36,64,_ZNKSt7__cxx1110_List_baseI8HashNodeSaIS1_EE11_M_get_sizeEv
FNL:37,801,801
FNA:37,45,_ZNSt7__cxx1110_List_baseI8HashNodeSaIS1_EE11_M_inc_sizeEm
FNL:38,803,803
FNA:38,1,_ZNSt7__cxx1110_List_baseI8HashNodeSaIS1_EE11_M_dec_sizeEm
FNL:39,817,836
FNA:39,45,_ZNSt7__cxx1110_List_baseI8HashNodeSaIS1_EE11_M_put_nodeEPSt10_List_nodeIS1_E
FNL:40,839,856
FNA:40,45,_ZNSt7__cxx1110_List_baseI8HashNodeSaIS1_EE15_M_destroy_nodeEPSt10_List_nodeIS1_E
FNL:41,862,863
FNA:41,45,_ZNSt7__cxx1110_List_baseI8HashNodeSaIS1_EE21_M_get_Node_allocatorEv
FNL:42,870,870
FNA:42,340,_ZNSt7__cxx1110_List_baseI8HashNodeSaIS1_EEC2Ev
FNL:43,880,880
FNA:43,0,_ZNSt7__cxx1110_List_baseI8HashNodeSaIS1_EEC2EOS3_
FNL:44,898,899
FNA:44,340,_ZNSt7__cxx1110_List_baseI8HashNodeSaIS1_EED2Ev
FNF:45
FNH:41
DA:118,177
DA:132,340
DA:133,340
DA:136,0
DA:137,0
DA:139,0
DA:140,0
DA:143,0
DA:144,0
DA:146,0
DA:167,340
DA:169,340
DA:170,340
DA:171,340
DA:175,513
DA:557,179
DA:558,84
DA:565,45
DA:588,170
DA:589,170
DA:598,88
DA:599,88
DA:603,1
DA:604,1
DA:607,42
DA:609,42
DA:610,42
DA:622,45
DA:624,45
DA:625,45
DA:645,81
DA:647,81
DA:675,264
DA:677,264
DA:679,1
DA:680,1
DA:683,1
DA:684,1
DA:689,84
DA:690,84
DA:698,51
DA:700,51
DA:701,51
DA:736,183
DA:738,183
DA:772,340
DA:774,340
DA:775,340
DA:782,0
DA:797,64
DA:801,45
DA:803,1
DA:817,45
DA:820,45
DA:836,45
DA:839,45
DA:845,45
DA:855,45
DA:856,45
DA:862,45
DA:863,45
DA:870,340
DA:880,0
DA:898,340
DA:899,340
DA:1102,45
DA:1104,45
DA:1105,45
DA:1106,90
DA:1108,90
DA:1109,45
DA:1120,340
DA:1195,0
DA:1290,340
DA:1457,39
DA:1458,39
DA:1467,132
DA:1468,132
DA:1477,129
DA:1478,129
DA:1487,132
DA:1488,132
DA:1578,45
DA:1580,45
DA:1586,64
DA:1589,64
DA:1672,45
DA:1674,45
DA:1675,45
DA:1676,45
DA:1677,45
DA:1817,45
DA:1819,90
DA:1821,45
DA:2470,45
DA:2472,90
DA:2473,45
DA:2474,45
DA:2475,45
DA:2480,1
DA:2483,1
DA:2484,1
DA:2485,1
DA:2486,1
DA:2487,1
LF:105
LH:95
end_of_record
TN:
SF:/usr/include/c++/15/bits/stl_map.h
FNL:0,1127,1128
FNA:0,0,_ZNSt3mapINSt7__cxx1112basic_stringIcSt11char_traitsIcESaIcEEEN8nlohmann16json_abi_v3_11_310basic_jsonIS_St6vectorS5_blmdSaNS7_14adl_serializerES9_IhSaIhEEvEESt4lessIvESaISt4pairIKS5_SD_EEE5eraseB5cxx11ESt17_Rb_tree_iteratorISI_E
FNL:1,1223,1224
FNA:1,9,_ZNSt3mapINSt7__cxx1112basic_stringIcSt11char_traitsIcESaIcEEEN8nlohmann16json_abi_v3_11_310basic_jsonIS_St6vectorS5_blmdSaNS7_14adl_serializerES9_IhSaIhEEvEESt4lessIvESaISt4pairIKS5_SD_EEE5clearEv
FNL:2,1232,1233
FNA:2,58,_ZNKSt3mapINSt7__cxx1112basic_stringIcSt11char_traitsIcESaIcEEEN8nlohmann16json_abi_v3_11_310basic_jsonIS_St6vectorS5_blmdSaNS7_14adl_serializerES9_IhSaIhEEvEESt4lessIvESaISt4pairIKS5_SD_EEE8key_compEv
FNL:3,1259,1260
FNA:3,24,_ZNSt3mapINSt7__cxx1112basic_stringIcSt11char_traitsIcESaIcEEEN8nlohmann16json_abi_v3_11_310basic_jsonIS_St6vectorS5_blmdSaNS7_14adl_serializerES9_IhSaIhEEvEESt4lessIvESaISt4pairIKS5_SD_EEE4findERSH_
FNL:4,1348,1349
FNA:4,86,_ZNSt3mapINSt7__cxx1112basic_stringIcSt11char_traitsIcESaIcEEEN8nlohmann16json_abi_v3_11_310basic_jsonIS_St6vectorS5_blmdSaNS7_14adl_serializerES9_IhSaIhEEvEESt4lessIvESaISt4pairIKS5_SD_EEE11lower_boundERSH_
FNL:5,200,200
FNA:5,19,_ZNSt3mapINSt7__cxx1112basic_stringIcSt11char_traitsIcESaIcEEEN8nlohmann16json_abi_v3_11_310basic_jsonIS_St6vectorS5_blmdSaNS7_14adl_serializerES9_IhSaIhEEvEESt4lessIvESaISt4pairIKS5_SD_EEEC2Ev
FNL:6,222,222
FNA:6,9,_ZNSt3mapINSt7__cxx1112basic_stringIcSt11char_traitsIcESaIcEEEN8nlohmann16json_abi_v3_11_310basic_jsonIS_St6vectorS5_blmdSaNS7_14adl_serializerES9_IhSaIhEEvEESt4lessIvESaISt4pairIKS5_SD_EEEC2ERKSK_
FNL:7,337,337
FNA:7,28,_ZNSt3mapINSt7__cxx1112basic_stringIcSt11char_traitsIcESaIcEEEN8nlohmann16json_abi_v3_11_310basic_jsonIS_St6vectorS5_blmdSaNS7_14adl_serializerES9_IhSaIhEEvEESt4lessIvESaISt4pairIKS5_SD_EEED2Ev
FNL:8,391,392
FNA:8,37,_ZNSt3mapINSt7__cxx1112basic_stringIcSt11char_traitsIcESaIcEEEN8nlohmann16json_abi_v3_11_310basic_jsonIS_St6vectorS5_blmdSaNS7_14adl_serializerES9_IhSaIhEEvEESt4lessIvESaISt4pairIKS5_SD_EEE5beginEv
FNL:9,409,410
FNA:9,147,_ZNSt3mapINSt7__cxx1112basic_stringIcSt11char_traitsIcESaIcEEEN8nlohmann16json_abi_v3_11_310basic_jsonIS_St6vectorS5_blmdSaNS7_14adl_serializerES9_IhSaIhEEvEESt4lessIvESaISt4pairIKS5_SD_EEE3endEv
FNL:10,464,465
FNA:10,2,_ZNKSt3mapINSt7__cxx1112basic_stringIcSt11char_traitsIcESaIcEEEN8nlohmann16json_abi_v3_11_310basic_jsonIS_St6vectorS5_blmdSaNS7_14adl_serializerES9_IhSaIhEEvEESt4lessIvESaISt4pairIKS5_SD_EEE6cbeginEv
FNL:11,473,474
FNA:11,4,_ZNKSt3mapINSt7__cxx1112basic_stringIcSt11char_traitsIcESaIcEEEN8nlohmann16json_abi_v3_11_310basic_jsonIS_St6vectorS5_blmdSaNS7_14adl_serializerES9_IhSaIhEEvEESt4lessIvESaISt4pairIKS5_SD_EEE4cendEv
FNL:12,500,501
FNA:12,2,_ZNKSt3mapINSt7__cxx1112basic_stringIcSt11char_traitsIcESaIcEEEN8nlohmann16json_abi_v3_11_310basic_jsonIS_St6vectorS5_blmdSaNS7_14adl_serializerES9_IhSaIhEEvEESt4lessIvESaISt4pairIKS5_SD_EEE5emptyEv
FNL:13,505,506
FNA:13,32,_ZNKSt3mapINSt7__cxx1112basic_stringIcSt11char_traitsIcESaIcEEEN8nlohmann16json_abi_v3_11_310basic_jsonIS_St6vectorS5_blmdSaNS7_14adl_serializerES9_IhSaIhEEvEESt4lessIvESaISt4pairIKS5_SD_EEE4sizeEv
FNL:14,510,511
FNA:14,0,_ZNKSt3mapINSt7__cxx1112basic_stringIcSt11char_traitsIcESaIcEEEN8nlohmann16json_abi_v3_11_310basic_jsonIS_St6vectorS5_blmdSaNS7_14adl_serializerES9_IhSaIhEEvEESt4lessIvESaISt4pairIKS5_SD_EEE8max_sizeEv
FNL:15,527,543
FNA:15,4,_ZNSt3mapINSt7__cxx1112basic_stringIcSt11char_traitsIcESaIcEEEN8nlohmann16json_abi_v3_11_310basic_jsonIS_St6vectorS5_blmdSaNS7_14adl_serializerES9_IhSaIhEEvEESt4lessIvESaISt4pairIKS5_SD_EEEixERSH_
FNL:16,611,632
FNA:16,82,_ZNSt3mapINSt7__cxx1112basic_stringIcSt11char_traitsIcESaIcEEEN8nlohmann16json_abi_v3_11_310basic_jsonIS_St6vectorS5_blmdSaNS7_14adl_serializerES9_IhSaIhEEvEESt4lessIvESaISt4pairIKS5_SD_EEE7emplaceIJS5_DnEEESG_ISt17_Rb_tree_iteratorISI_EbEDpOT_
FNA:16,0,_ZNSt3mapINSt7__cxx1112basic_stringIcSt11char_traitsIcESaIcEEEN8nlohmann16json_abi_v3_11_310basic_jsonIS_St6vectorS5_blmdSaNS7_14adl_serializerES9_IhSaIhEEvEESt4lessIvESaISt4pairIKS5_SD_EEE7emplaceIJS5_SD_EEESG_ISt17_Rb_tree_iteratorISI_EbEDpOT_
FNL:17,661,665
FNA:17,36,_ZNSt3mapINSt7__cxx1112basic_stringIcSt11char_traitsIcESaIcEEEN8nlohmann16json_abi_v3_11_310basic_jsonIS_St6vectorS5_blmdSaNS7_14adl_serializerES9_IhSaIhEEvEESt4lessIvESaISt4pairIKS5_SD_EEE12emplace_hintIJS5_DnEEESt17_Rb_tree_iteratorISI_ESt23_Rb_tree_const_iteratorISI_EDpOT_
FNA:17,0,_ZNSt3mapINSt7__cxx1112basic_stringIcSt11char_traitsIcESaIcEEEN8nlohmann16json_abi_v3_11_310basic_jsonIS_St6vectorS5_blmdSaNS7_14adl_serializerES9_IhSaIhEEvEESt4lessIvESaISt4pairIKS5_SD_EEE12emplace_hintIJS5_SD_EEESt17_Rb_tree_iteratorISI_ESt23_Rb_tree_const_iteratorISI_EDpOT_
FNF:18
FNH:16
DA:200,19
DA:222,9
DA:337,28
DA:391,37
DA:392,37
DA:409,147
DA:410,147
DA:464,2
DA:465,2
DA:473,4
DA:474,4
DA:500,2
DA:501,2
DA:505,32
DA:506,32
DA:510,0
DA:511,0
DA:527,4
DA:532,4
DA:534,4
DA:536,4
DA:537,4
DA:538,4
DA:542,8
DA:611,82
DA:617,82
DA:620,82
DA:621,82
DA:622,82
DA:624,72
DA:625,36
DA:627,46
DA:661,36
DA:663,108
DA:664,36
DA:1127,0
DA:1128,0
DA:1223,9
DA:1224,9
DA:1232,58
DA:1233,58
DA:1259,24
DA:1260,24
DA:1348,86
DA:1349,86
LF:45
LH:41
end_of_record
TN:
SF:/usr/include/c++/15/bits/stl_pair.h
FNL:0,1238,1239
FNA:0,82,_ZNSt10__pair_getILm0EE10__move_getIRNSt7__cxx1112basic_stringIcSt11char_traitsIcESaIcEEERDnEEOT_OSt4pairISA_T0_E
FNA:0,0,_ZNSt10__pair_getILm0EE10__move_getIRNSt7__cxx1112basic_stringIcSt11char_traitsIcESaIcEEERN8nlohmann16json_abi_v3_11_310basic_jsonISt3mapSt6vectorS7_blmdSaNSA_14adl_serializerESD_IhSaIhEEvEEEEOT_OSt4pairISJ_T0_E
FNL:1,1262,1263
FNA:1,82,_ZNSt10__pair_getILm1EE10__move_getIRNSt7__cxx1112basic_stringIcSt11char_traitsIcESaIcEEERDnEEOT0_OSt4pairIT_SA_E
FNA:1,0,_ZNSt10__pair_getILm1EE10__move_getIRNSt7__cxx1112basic_stringIcSt11char_traitsIcESaIcEEERN8nlohmann16json_abi_v3_11_310basic_jsonISt3mapSt6vectorS7_blmdSaNSA_14adl_serializerESD_IhSaIhEEvEEEEOT0_OSt4pairIT_SJ_E
FNL:2,1288,1289
FNA:2,82,_ZSt3getILm0ERNSt7__cxx1112basic_stringIcSt11char_traitsIcESaIcEEERDnEONSt13tuple_elementIXT_ESt4pairIT0_T1_EE4typeEOSC_
FNA:2,0,_ZSt3getILm0ERNSt7__cxx1112basic_stringIcSt11char_traitsIcESaIcEEERN8nlohmann16json_abi_v3_11_310basic_jsonISt3mapSt6vectorS5_blmdSaNS8_14adl_serializerESB_IhSaIhEEvEEEONSt13tuple_elementIXT_ESt4pairIT0_T1_EE4typeEOSL_
FNA:2,82,_ZSt3getILm1ERNSt7__cxx1112basic_stringIcSt11char_traitsIcESaIcEEERDnEONSt13tuple_elementIXT_ESt4pairIT0_T1_EE4typeEOSC_
FNA:2,0,_ZSt3getILm1ERNSt7__cxx1112basic_stringIcSt11char_traitsIcESaIcEEERN8nlohmann16json_abi_v3_11_310basic_jsonISt3mapSt6vectorS5_blmdSaNS8_14adl_serializerESB_IhSaIhEEvEEEONSt13tuple_elementIXT_ESt4pairIT0_T1_EE4typeEOSL_
FNL:3,312,312
FNA:3,18,_ZNSt4pairIKNSt7__cxx1112basic_stringIcSt11char_traitsIcESaIcEEEN8nlohmann16json_abi_v3_11_310basic_jsonISt3mapSt6vectorS5_blmdSaNS8_14adl_serializerESB_IhSaIhEEvEEEC2ERKSG_
FNL:4,772,773
FNA:4,82,_ZNSt4pairIRNSt7__cxx1112basic_stringIcSt11char_traitsIcESaIcEEERDnEC2IS6_S7_Lb1EEES6_S7_
FNA:4,0,_ZNSt4pairIRNSt7__cxx1112basic_stringIcSt11char_traitsIcESaIcEEERN8nlohmann16json_abi_v3_11_310basic_jsonISt3mapSt6vectorS5_blmdSaNS8_14adl_serializerESB_IhSaIhEEvEEEC2IS6_SG_Lb1EEES6_SG_
FNL:5,901,903
FNA:5,36,_ZNSt4pairIKNSt7__cxx1112basic_stringIcSt11char_traitsIcESaIcEEEN8nlohmann16json_abi_v3_11_310basic_jsonISt3mapSt6vectorS5_blmdSaNS8_14adl_serializerESB_IhSaIhEEvEEEC2IS5_DnLb1EEEOT_OT0_
FNA:5,0,_ZNSt4pairIKNSt7__cxx1112basic_stringIcSt11char_traitsIcESaIcEEEN8nlohmann16json_abi_v3_11_310basic_jsonISt3mapSt6vectorS5_blmdSaNS8_14adl_serializerESB_IhSaIhEEvEEEC2IS5_SF_Lb1EEEOT_OT0_
FNA:5,0,_ZNSt4pairIPSt18_Rb_tree_node_baseS1_EC2IRS1_S1_Lb1EEEOT_OT0_
FNA:5,31,_ZNSt4pairIPSt18_Rb_tree_node_baseS1_EC2IRS1_S4_Lb1EEEOT_OT0_
FNA:5,9,_ZNSt4pairIPSt18_Rb_tree_node_baseS1_EC2IS1_RS1_Lb1EEEOT_OT0_
FNA:5,82,_ZNSt4pairISt17_Rb_tree_iteratorIS_IKNSt7__cxx1112basic_stringIcSt11char_traitsIcESaIcEEEN8nlohmann16json_abi_v3_11_310basic_jsonISt3mapSt6vectorS6_blmdSaNS9_14adl_serializerESC_IhSaIhEEvEEEEbEC2IRSI_bLb1EEEOT_OT0_
FNA:5,0,_ZNSt4pairIbPN8nlohmann16json_abi_v3_11_310basic_jsonISt3mapSt6vectorNSt7__cxx1112basic_stringIcSt11char_traitsIcESaIcEEEblmdSaNS1_14adl_serializerES4_IhSaIhEEvEEEC2IbDnLb1EEEOT_OT0_
FNA:5,0,_ZNSt4pairIbPN8nlohmann16json_abi_v3_11_310basic_jsonISt3mapSt6vectorNSt7__cxx1112basic_stringIcSt11char_traitsIcESaIcEEEblmdSaNS1_14adl_serializerES4_IhSaIhEEvEEEC2IbRSF_Lb1EEEOT_OT0_
FNA:5,0,_ZNSt4pairIbPN8nlohmann16json_abi_v3_11_310basic_jsonISt3mapSt6vectorNSt7__cxx1112basic_stringIcSt11char_traitsIcESaIcEEEblmdSaNS1_14adl_serializerES4_IhSaIhEEvEEEC2IbSF_Lb1EEEOT_OT0_
FNF:6
FNH:6
DA:312,18
DA:772,82
DA:773,82
DA:901,158
DA:902,230
DA:903,158
DA:1238,82
DA:1239,164
DA:1262,82
DA:1263,164
DA:1288,164
DA:1289,164
LF:12
LH:12
end_of_record
TN:
SF:/usr/include/c++/15/bits/stl_tree.h
FNL:0,1130,1131
FNA:0,9,_ZNSt8_Rb_treeINSt7__cxx1112basic_stringIcSt11char_traitsIcESaIcEEESt4pairIKS5_N8nlohmann16json_abi_v3_11_310basic_jsonISt3mapSt6vectorS5_blmdSaNS9_14adl_serializerESC_IhSaIhEEvEEESt10_Select1stISH_ESt4lessIvESaISH_EE11_Alloc_nodeC2ERSN_
FNL:1,1135,1136
FNA:1,18,_ZNKSt8_Rb_treeINSt7__cxx1112basic_stringIcSt11char_traitsIcESaIcEEESt4pairIKS5_N8nlohmann16json_abi_v3_11_310basic_jsonISt3mapSt6vectorS5_blmdSaNS9_14adl_serializerESC_IhSaIhEEvEEESt10_Select1stISH_ESt4lessIvESaISH_EE11_Alloc_nodeclIRKSH_EEPSt13_Rb_tree_nodeISH_EOT_
FNL:2,1154,1155
FNA:2,232,_ZNSt8_Rb_treeINSt7__cxx1112basic_stringIcSt11char_traitsIcESaIcEEESt4pairIKS5_N8nlohmann16json_abi_v3_11_310basic_jsonISt3mapSt6vectorS5_blmdSaNS9_14adl_serializerESC_IhSaIhEEvEEESt10_Select1stISH_ESt4lessIvESaISH_EE21_M_get_Node_allocatorEv
FNL:3,1158,1159
FNA:3,0,_ZNKSt8_Rb_treeINSt7__cxx1112basic_stringIcSt11char_traitsIcESaIcEEESt4pairIKS5_N8nlohmann16json_abi_v3_11_310basic_jsonISt3mapSt6vectorS5_blmdSaNS9_14adl_serializerESC_IhSaIhEEvEEESt10_Select1stISH_ESt4lessIvESaISH_EE21_M_get_Node_allocatorEv
FNL:4,1167,1185
FNA:4,58,_ZNSt8_Rb_treeINSt7__cxx1112basic_stringIcSt11char_traitsIcESaIcEEESt4pairIKS5_N8nlohmann16json_abi_v3_11_310basic_jsonISt3mapSt6vectorS5_blmdSaNS9_14adl_serializerESC_IhSaIhEEvEEESt10_Select1stISH_ESt4lessIvESaISH_EE11_M_get_nodeEv
FNL:5,117,121
FNA:5,9,_ZNSt18_Rb_tree_node_base10_S_minimumEPS_
FNL:6,1188,1207
FNA:6,58,_ZNSt8_Rb_treeINSt7__cxx1112basic_stringIcSt11char_traitsIcESaIcEEESt4pairIKS5_N8nlohmann16json_abi_v3_11_310basic_jsonISt3mapSt6vectorS5_blmdSaNS9_14adl_serializerESC_IhSaIhEEvEEESt10_Select1stISH_ESt4lessIvESaISH_EE11_M_put_nodeEPSt13_Rb_tree_nodeISH_E
FNL:7,1232,1247
FNA:7,18,_ZNSt8_Rb_treeINSt7__cxx1112basic_stringIcSt11char_traitsIcESaIcEEESt4pairIKS5_N8nlohmann16json_abi_v3_11_310basic_jsonISt3mapSt6vectorS5_blmdSaNS9_14adl_serializerESC_IhSaIhEEvEEESt10_Select1stISH_ESt4lessIvESaISH_EE17_M_construct_nodeIJRKSH_EEEvPSt13_Rb_tree_nodeISH_EDpOT_
FNA:7,4,_ZNSt8_Rb_treeINSt7__cxx1112basic_stringIcSt11char_traitsIcESaIcEEESt4pairIKS5_N8nlohmann16json_abi_v3_11_310basic_jsonISt3mapSt6vectorS5_blmdSaNS9_14adl_serializerESC_IhSaIhEEvEEESt10_Select1stISH_ESt4lessIvESaISH_EE17_M_construct_nodeIJRKSt21piecewise_construct_tSt5tupleIJRS7_EESS_IJEEEEEvPSt13_Rb_tree_nodeISH_EDpOT_
FNA:7,36,_ZNSt8_Rb_treeINSt7__cxx1112basic_stringIcSt11char_traitsIcESaIcEEESt4pairIKS5_N8nlohmann16json_abi_v3_11_310basic_jsonISt3mapSt6vectorS5_blmdSaNS9_14adl_serializerESC_IhSaIhEEvEEESt10_Select1stISH_ESt4lessIvESaISH_EE17_M_construct_nodeIJS5_DnEEEvPSt13_Rb_tree_nodeISH_EDpOT_
FNA:7,0,_ZNSt8_Rb_treeINSt7__cxx1112basic_stringIcSt11char_traitsIcESaIcEEESt4pairIKS5_N8nlohmann16json_abi_v3_11_310basic_jsonISt3mapSt6vectorS5_blmdSaNS9_14adl_serializerESC_IhSaIhEEvEEESt10_Select1stISH_ESt4lessIvESaISH_EE17_M_construct_nodeIJS5_SG_EEEvPSt13_Rb_tree_nodeISH_EDpOT_
FNL:8,124,128
FNA:8,9,_ZNSt18_Rb_tree_node_base10_S_maximumEPS_
FNL:9,1251,1256
FNA:9,18,_ZNSt8_Rb_treeINSt7__cxx1112basic_stringIcSt11char_traitsIcESaIcEEESt4pairIKS5_N8nlohmann16json_abi_v3_11_310basic_jsonISt3mapSt6vectorS5_blmdSaNS9_14adl_serializerESC_IhSaIhEEvEEESt10_Select1stISH_ESt4lessIvESaISH_EE14_M_create_nodeIJRKSH_EEEPSt13_Rb_tree_nodeISH_EDpOT_
FNA:9,4,_ZNSt8_Rb_treeINSt7__cxx1112basic_stringIcSt11char_traitsIcESaIcEEESt4pairIKS5_N8nlohmann16json_abi_v3_11_310basic_jsonISt3mapSt6vectorS5_blmdSaNS9_14adl_serializerESC_IhSaIhEEvEEESt10_Select1stISH_ESt4lessIvESaISH_EE14_M_create_nodeIJRKSt21piecewise_construct_tSt5tupleIJRS7_EESS_IJEEEEEPSt13_Rb_tree_nodeISH_EDpOT_
FNA:9,36,_ZNSt8_Rb_treeINSt7__cxx1112basic_stringIcSt11char_traitsIcESaIcEEESt4pairIKS5_N8nlohmann16json_abi_v3_11_310basic_jsonISt3mapSt6vectorS5_blmdSaNS9_14adl_serializerESC_IhSaIhEEvEEESt10_Select1stISH_ESt4lessIvESaISH_EE14_M_create_nodeIJS5_DnEEEPSt13_Rb_tree_nodeISH_EDpOT_
FNA:9,0,_ZNSt8_Rb_treeINSt7__cxx1112basic_stringIcSt11char_traitsIcESaIcEEESt4pairIKS5_N8nlohmann16json_abi_v3_11_310basic_jsonISt3mapSt6vectorS5_blmdSaNS9_14adl_serializerESC_IhSaIhEEvEEESt10_Select1stISH_ESt4lessIvESaISH_EE14_M_create_nodeIJS5_SG_EEEPSt13_Rb_tree_nodeISH_EDpOT_
FNL:10,1260,1268
FNA:10,58,_ZNSt8_Rb_treeINSt7__cxx1112basic_stringIcSt11char_traitsIcESaIcEEESt4pairIKS5_N8nlohmann16json_abi_v3_11_310basic_jsonISt3mapSt6vectorS5_blmdSaNS9_14adl_serializerESC_IhSaIhEEvEEESt10_Select1stISH_ESt4lessIvESaISH_EE15_M_destroy_nodeEPSt13_Rb_tree_nodeISH_E
FNL:11,1271,1275
FNA:11,58,_ZNSt8_Rb_treeINSt7__cxx1112basic_stringIcSt11char_traitsIcESaIcEEESt4pairIKS5_N8nlohmann16json_abi_v3_11_310basic_jsonISt3mapSt6vectorS5_blmdSaNS9_14adl_serializerESC_IhSaIhEEvEEESt10_Select1stISH_ESt4lessIvESaISH_EE12_M_drop_nodeEPSt13_Rb_tree_nodeISH_E
FNL:12,1279,1291
FNA:12,18,_ZNSt8_Rb_treeINSt7__cxx1112basic_stringIcSt11char_traitsIcESaIcEEESt4pairIKS5_N8nlohmann16json_abi_v3_11_310basic_jsonISt3mapSt6vectorS5_blmdSaNS9_14adl_serializerESC_IhSaIhEEvEEESt10_Select1stISH_ESt4lessIvESaISH_EE13_M_clone_nodeILb0ENSN_11_Alloc_nodeEEEPSt13_Rb_tree_nodeISH_ESS_RT0_
FNL:13,1310,1315
FNA:13,19,_ZNSt8_Rb_treeINSt7__cxx1112basic_stringIcSt11char_traitsIcESaIcEEESt4pairIKS5_N8nlohmann16json_abi_v3_11_310basic_jsonISt3mapSt6vectorS5_blmdSaNS9_14adl_serializerESC_IhSaIhEEvEEESt10_Select1stISH_ESt4lessIvESaISH_EE13_Rb_tree_implISL_Lb1EEC2Ev
FNL:14,1317,1321
FNA:14,9,_ZNSt8_Rb_treeINSt7__cxx1112basic_stringIcSt11char_traitsIcESaIcEEESt4pairIKS5_N8nlohmann16json_abi_v3_11_310basic_jsonISt3mapSt6vectorS5_blmdSaNS9_14adl_serializerESC_IhSaIhEEvEEESt10_Select1stISH_ESt4lessIvESaISH_EE13_Rb_tree_implISL_Lb1EEC2ERKSP_
FNL:15,134,135
FNA:15,439,_ZNKSt18_Rb_tree_node_base11_M_base_ptrEv
FNL:16,1353,1354
FNA:16,9,_ZNSt8_Rb_treeINSt7__cxx1112basic_stringIcSt11char_traitsIcESaIcEEESt4pairIKS5_N8nlohmann16json_abi_v3_11_310basic_jsonISt3mapSt6vectorS5_blmdSaNS9_14adl_serializerESC_IhSaIhEEvEEESt10_Select1stISH_ESt4lessIvESaISH_EE7_M_rootEv
FNL:17,1357,1358
FNA:17,9,_ZNKSt8_Rb_treeINSt7__cxx1112basic_stringIcSt11char_traitsIcESaIcEEESt4pairIKS5_N8nlohmann16json_abi_v3_11_310basic_jsonISt3mapSt6vectorS5_blmdSaNS9_14adl_serializerESC_IhSaIhEEvEEESt10_Select1stISH_ESt4lessIvESaISH_EE7_M_rootEv
FNL:18,1361,1362
FNA:18,45,_ZNSt8_Rb_treeINSt7__cxx1112basic_stringIcSt11char_traitsIcESaIcEEESt4pairIKS5_N8nlohmann16json_abi_v3_11_310basic_jsonISt3mapSt6vectorS5_blmdSaNS9_14adl_serializerESC_IhSaIhEEvEEESt10_Select1stISH_ESt4lessIvESaISH_EE11_M_leftmostEv
FNL:19,1369,1370
FNA:19,27,_ZNSt8_Rb_treeINSt7__cxx1112basic_stringIcSt11char_traitsIcESaIcEEESt4pairIKS5_N8nlohmann16json_abi_v3_11_310basic_jsonISt3mapSt6vectorS5_blmdSaNS9_14adl_serializerESC_IhSaIhEEvEEESt10_Select1stISH_ESt4lessIvESaISH_EE12_M_rightmostEv
FNL:20,1377,1378
FNA:20,129,_ZNKSt8_Rb_treeINSt7__cxx1112basic_stringIcSt11char_traitsIcESaIcEEESt4pairIKS5_N8nlohmann16json_abi_v3_11_310basic_jsonISt3mapSt6vectorS5_blmdSaNS9_14adl_serializerESC_IhSaIhEEvEEESt10_Select1stISH_ESt4lessIvESaISH_EE8_M_beginEv
FNL:21,1381,1387
FNA:21,46,_ZNKSt8_Rb_treeINSt7__cxx1112basic_stringIcSt11char_traitsIcESaIcEEESt4pairIKS5_N8nlohmann16json_abi_v3_11_310basic_jsonISt3mapSt6vectorS5_blmdSaNS9_14adl_serializerESC_IhSaIhEEvEEESt10_Select1stISH_ESt4lessIvESaISH_EE13_M_begin_nodeEv
FNL:22,1390,1391
FNA:22,381,_ZNKSt8_Rb_treeINSt7__cxx1112basic_stringIcSt11char_traitsIcESaIcEEESt4pairIKS5_N8nlohmann16json_abi_v3_11_310basic_jsonISt3mapSt6vectorS5_blmdSaNS9_14adl_serializerESC_IhSaIhEEvEEESt10_Select1stISH_ESt4lessIvESaISH_EE6_M_endEv
FNL:23,1394,1413
FNA:23,257,_ZNSt8_Rb_treeINSt7__cxx1112basic_stringIcSt11char_traitsIcESaIcEEESt4pairIKS5_N8nlohmann16json_abi_v3_11_310basic_jsonISt3mapSt6vectorS5_blmdSaNS9_14adl_serializerESC_IhSaIhEEvEEESt10_Select1stISH_ESt4lessIvESaISH_EE6_S_keyERKSt13_Rb_tree_nodeISH_E
FNL:24,1416,1417
FNA:24,208,_ZNSt8_Rb_treeINSt7__cxx1112basic_stringIcSt11char_traitsIcESaIcEEESt4pairIKS5_N8nlohmann16json_abi_v3_11_310basic_jsonISt3mapSt6vectorS5_blmdSaNS9_14adl_serializerESC_IhSaIhEEvEEESt10_Select1stISH_ESt4lessIvESaISH_EE6_S_keyEPSt18_Rb_tree_node_base
FNL:25,1420,1421
FNA:25,49,_ZNSt8_Rb_treeINSt7__cxx1112basic_stringIcSt11char_traitsIcESaIcEEESt4pairIKS5_N8nlohmann16json_abi_v3_11_310basic_jsonISt3mapSt6vectorS5_blmdSaNS9_14adl_serializerESC_IhSaIhEEvEEESt10_Select1stISH_ESt4lessIvESaISH_EE6_S_keyEPSt13_Rb_tree_nodeISH_E
FNL:26,1424,1425
FNA:26,136,_ZNSt8_Rb_treeINSt7__cxx1112basic_stringIcSt11char_traitsIcESaIcEEESt4pairIKS5_N8nlohmann16json_abi_v3_11_310basic_jsonISt3mapSt6vectorS5_blmdSaNS9_14adl_serializerESC_IhSaIhEEvEEESt10_Select1stISH_ESt4lessIvESaISH_EE7_S_leftEPSt18_Rb_tree_node_base
FNL:27,1428,1433
FNA:27,76,_ZNSt8_Rb_treeINSt7__cxx1112basic_stringIcSt11char_traitsIcESaIcEEESt4pairIKS5_N8nlohmann16json_abi_v3_11_310basic_jsonISt3mapSt6vectorS5_blmdSaNS9_14adl_serializerESC_IhSaIhEEvEEESt10_Select1stISH_ESt4lessIvESaISH_EE7_S_leftEPSt13_Rb_tree_nodeISH_E
FNL:28,1436,1437
FNA:28,18,_ZNSt8_Rb_treeINSt7__cxx1112basic_stringIcSt11char_traitsIcESaIcEEESt4pairIKS5_N8nlohmann16json_abi_v3_11_310basic_jsonISt3mapSt6vectorS5_blmdSaNS9_14adl_serializerESC_IhSaIhEEvEEESt10_Select1stISH_ESt4lessIvESaISH_EE8_S_rightEPSt18_Rb_tree_node_base
FNL:29,144,148
FNA:29,19,_ZNSt20_Rb_tree_key_compareISt4lessIvEEC2Ev
FNL:30,1440,1445
FNA:30,67,_ZNSt8_Rb_treeINSt7__cxx1112basic_stringIcSt11char_traitsIcESaIcEEESt4pairIKS5_N8nlohmann16json_abi_v3_11_310basic_jsonISt3mapSt6vectorS5_blmdSaNS9_14adl_serializerESC_IhSaIhEEvEEESt10_Select1stISH_ESt4lessIvESaISH_EE8_S_rightEPSt13_Rb_tree_nodeISH_E
FNL:31,150,152
FNA:31,9,_ZNSt20_Rb_tree_key_compareISt4lessIvEEC2ERKS1_
FNL:32,1520,1528
FNA:32,9,_ZNSt8_Rb_treeINSt7__cxx1112basic_stringIcSt11char_traitsIcESaIcEEESt4pairIKS5_N8nlohmann16json_abi_v3_11_310basic_jsonISt3mapSt6vectorS5_blmdSaNS9_14adl_serializerESC_IhSaIhEEvEEESt10_Select1stISH_ESt4lessIvESaISH_EE7_M_copyILb0ENSN_11_Alloc_nodeEEEPSt18_Rb_tree_node_baseRKSN_RT0_
FNL:33,1531,1535
FNA:33,9,_ZNSt8_Rb_treeINSt7__cxx1112basic_stringIcSt11char_traitsIcESaIcEEESt4pairIKS5_N8nlohmann16json_abi_v3_11_310basic_jsonISt3mapSt6vectorS5_blmdSaNS9_14adl_serializerESC_IhSaIhEEvEEESt10_Select1stISH_ESt4lessIvESaISH_EE7_M_copyERKSN_
FNL:34,1553,1553
FNA:34,19,_ZNSt8_Rb_treeINSt7__cxx1112basic_stringIcSt11char_traitsIcESaIcEEESt4pairIKS5_N8nlohmann16json_abi_v3_11_310basic_jsonISt3mapSt6vectorS5_blmdSaNS9_14adl_serializerESC_IhSaIhEEvEEESt10_Select1stISH_ESt4lessIvESaISH_EEC2Ev
FNL:35,1560,1565
FNA:35,9,_ZNSt8_Rb_treeINSt7__cxx1112basic_stringIcSt11char_traitsIcESaIcEEESt4pairIKS5_N8nlohmann16json_abi_v3_11_310basic_jsonISt3mapSt6vectorS5_blmdSaNS9_14adl_serializerESC_IhSaIhEEvEEESt10_Select1stISH_ESt4lessIvESaISH_EEC2ERKSN_
FNL:36,1608,1609
FNA:36,28,_ZNSt8_Rb_treeINSt7__cxx1112basic_stringIcSt11char_traitsIcESaIcEEESt4pairIKS5_N8nlohmann16json_abi_v3_11_310basic_jsonISt3mapSt6vectorS5_blmdSaNS9_14adl_serializerESC_IhSaIhEEvEEESt10_Select1stISH_ESt4lessIvESaISH_EED2Ev
FNL:37,1616,1617
FNA:37,58,_ZNKSt8_Rb_treeINSt7__cxx1112basic_stringIcSt11char_traitsIcESaIcEEESt4pairIKS5_N8nlohmann16json_abi_v3_11_310basic_jsonISt3mapSt6vectorS5_blmdSaNS9_14adl_serializerESC_IhSaIhEEvEEESt10_Select1stISH_ESt4lessIvESaISH_EE8key_compEv
FNL:38,1620,1621
FNA:38,56,_ZNSt8_Rb_treeINSt7__cxx1112basic_stringIcSt11char_traitsIcESaIcEEESt4pairIKS5_N8nlohmann16json_abi_v3_11_310basic_jsonISt3mapSt6vectorS5_blmdSaNS9_14adl_serializerESC_IhSaIhEEvEEESt10_Select1stISH_ESt4lessIvESaISH_EE5beginEv
FNL:39,1624,1625
FNA:39,2,_ZNKSt8_Rb_treeINSt7__cxx1112basic_stringIcSt11char_traitsIcESaIcEEESt4pairIKS5_N8nlohmann16json_abi_v3_11_310basic_jsonISt3mapSt6vectorS5_blmdSaNS9_14adl_serializerESC_IhSaIhEEvEEESt10_Select1stISH_ESt4lessIvESaISH_EE5beginEv
FNL:40,1628,1629
FNA:40,171,_ZNSt8_Rb_treeINSt7__cxx1112basic_stringIcSt11char_traitsIcESaIcEEESt4pairIKS5_N8nlohmann16json_abi_v3_11_310basic_jsonISt3mapSt6vectorS5_blmdSaNS9_14adl_serializerESC_IhSaIhEEvEEESt10_Select1stISH_ESt4lessIvESaISH_EE3endEv
FNL:41,1632,1633
FNA:41,4,_ZNKSt8_Rb_treeINSt7__cxx1112basic_stringIcSt11char_traitsIcESaIcEEESt4pairIKS5_N8nlohmann16json_abi_v3_11_310basic_jsonISt3mapSt6vectorS5_blmdSaNS9_14adl_serializerESC_IhSaIhEEvEEESt10_Select1stISH_ESt4lessIvESaISH_EE3endEv
FNL:42,1652,1653
FNA:42,2,_ZNKSt8_Rb_treeINSt7__cxx1112basic_stringIcSt11char_traitsIcESaIcEEESt4pairIKS5_N8nlohmann16json_abi_v3_11_310basic_jsonISt3mapSt6vectorS5_blmdSaNS9_14adl_serializerESC_IhSaIhEEvEEESt10_Select1stISH_ESt4lessIvESaISH_EE5emptyEv
FNL:43,1656,1657
FNA:43,60,_ZNKSt8_Rb_treeINSt7__cxx1112basic_stringIcSt11char_traitsIcESaIcEEESt4pairIKS5_N8nlohmann16json_abi_v3_11_310basic_jsonISt3mapSt6vectorS5_blmdSaNS9_14adl_serializerESC_IhSaIhEEvEEESt10_Select1stISH_ESt4lessIvESaISH_EE4sizeEv
FNL:44,1660,1661
FNA:44,0,_ZNKSt8_Rb_treeINSt7__cxx1112basic_stringIcSt11char_traitsIcESaIcEEESt4pairIKS5_N8nlohmann16json_abi_v3_11_310basic_jsonISt3mapSt6vectorS5_blmdSaNS9_14adl_serializerESC_IhSaIhEEvEEESt10_Select1stISH_ESt4lessIvESaISH_EE8max_sizeEv
FNL:45,171,175
FNA:45,28,_ZNSt15_Rb_tree_headerC2Ev
FNL:46,1828,1835
FNA:46,0,_ZNSt8_Rb_treeINSt7__cxx1112basic_stringIcSt11char_traitsIcESaIcEEESt4pairIKS5_N8nlohmann16json_abi_v3_11_310basic_jsonISt3mapSt6vectorS5_blmdSaNS9_14adl_serializerESC_IhSaIhEEvEEESt10_Select1stISH_ESt4lessIvESaISH_EE5eraseB5cxx11ESt17_Rb_tree_iteratorISH_E
FNL:47,1876,1880
FNA:47,9,_ZNSt8_Rb_treeINSt7__cxx1112basic_stringIcSt11char_traitsIcESaIcEEESt4pairIKS5_N8nlohmann16json_abi_v3_11_310basic_jsonISt3mapSt6vectorS5_blmdSaNS9_14adl_serializerESC_IhSaIhEEvEEESt10_Select1stISH_ESt4lessIvESaISH_EE5clearEv
FNL:48,1893,1894
FNA:48,86,_ZNSt8_Rb_treeINSt7__cxx1112basic_stringIcSt11char_traitsIcESaIcEEESt4pairIKS5_N8nlohmann16json_abi_v3_11_310basic_jsonISt3mapSt6vectorS5_blmdSaNS9_14adl_serializerESC_IhSaIhEEvEEESt10_Select1stISH_ESt4lessIvESaISH_EE11lower_boundERS7_
FNL:49,204,210
FNA:49,37,_ZNSt15_Rb_tree_header8_M_resetEv
FNL:50,2283,2286
FNA:50,4,_ZNSt8_Rb_treeINSt7__cxx1112basic_stringIcSt11char_traitsIcESaIcEEESt4pairIKS5_N8nlohmann16json_abi_v3_11_310basic_jsonISt3mapSt6vectorS5_blmdSaNS9_14adl_serializerESC_IhSaIhEEvEEESt10_Select1stISH_ESt4lessIvESaISH_EE10_Auto_nodeC2IJRKSt21piecewise_construct_tSt5tupleIJRS7_EEST_IJEEEEERSN_DpOT_
FNA:50,36,_ZNSt8_Rb_treeINSt7__cxx1112basic_stringIcSt11char_traitsIcESaIcEEESt4pairIKS5_N8nlohmann16json_abi_v3_11_310basic_jsonISt3mapSt6vectorS5_blmdSaNS9_14adl_serializerESC_IhSaIhEEvEEESt10_Select1stISH_ESt4lessIvESaISH_EE10_Auto_nodeC2IJS5_DnEEERSN_DpOT_
FNA:50,0,_ZNSt8_Rb_treeINSt7__cxx1112basic_stringIcSt11char_traitsIcESaIcEEESt4pairIKS5_N8nlohmann16json_abi_v3_11_310basic_jsonISt3mapSt6vectorS5_blmdSaNS9_14adl_serializerESC_IhSaIhEEvEEESt10_Select1stISH_ESt4lessIvESaISH_EE10_Auto_nodeC2IJS5_SG_EEERSN_DpOT_
FNL:51,2288,2292
FNA:51,40,_ZNSt8_Rb_treeINSt7__cxx1112basic_stringIcSt11char_traitsIcESaIcEEESt4pairIKS5_N8nlohmann16json_abi_v3_11_310basic_jsonISt3mapSt6vectorS5_blmdSaNS9_14adl_serializerESC_IhSaIhEEvEEESt10_Select1stISH_ESt4lessIvESaISH_EE10_Auto_nodeD2Ev
FNL:52,2299,2300
FNA:52,40,_ZNKSt8_Rb_treeINSt7__cxx1112basic_stringIcSt11char_traitsIcESaIcEEESt4pairIKS5_N8nlohmann16json_abi_v3_11_310basic_jsonISt3mapSt6vectorS5_blmdSaNS9_14adl_serializerESC_IhSaIhEEvEEESt10_Select1stISH_ESt4lessIvESaISH_EE10_Auto_node6_M_keyEv
FNL:53,230,231
FNA:53,360,_ZNSt13_Rb_tree_nodeISt4pairIKNSt7__cxx1112basic_stringIcSt11char_traitsIcESaIcEEEN8nlohmann16json_abi_v3_11_310basic_jsonISt3mapSt6vectorS6_blmdSaNS9_14adl_serializerESC_IhSaIhEEvEEEE9_M_valptrEv
FNL:54,2303,2308
FNA:54,40,_ZNSt8_Rb_treeINSt7__cxx1112basic_stringIcSt11char_traitsIcESaIcEEESt4pairIKS5_N8nlohmann16json_abi_v3_11_310basic_jsonISt3mapSt6vectorS5_blmdSaNS9_14adl_serializerESC_IhSaIhEEvEEESt10_Select1stISH_ESt4lessIvESaISH_EE10_Auto_node9_M_insertES6_IPSt18_Rb_tree_node_baseSQ_E
FNL:55,234,235
FNA:55,265,_ZNKSt13_Rb_tree_nodeISt4pairIKNSt7__cxx1112basic_stringIcSt11char_traitsIcESaIcEEEN8nlohmann16json_abi_v3_11_310basic_jsonISt3mapSt6vectorS6_blmdSaNS9_14adl_serializerESC_IhSaIhEEvEEEE9_M_valptrEv
FNL:56,239,240
FNA:56,76,_ZNSt13_Rb_tree_nodeISt4pairIKNSt7__cxx1112basic_stringIcSt11char_traitsIcESaIcEEEN8nlohmann16json_abi_v3_11_310basic_jsonISt3mapSt6vectorS6_blmdSaNS9_14adl_serializerESC_IhSaIhEEvEEEE11_M_node_ptrEv
FNL:57,2542,2577
FNA:57,18,_ZNSt8_Rb_treeINSt7__cxx1112basic_stringIcSt11char_traitsIcESaIcEEESt4pairIKS5_N8nlohmann16json_abi_v3_11_310basic_jsonISt3mapSt6vectorS5_blmdSaNS9_14adl_serializerESC_IhSaIhEEvEEESt10_Select1stISH_ESt4lessIvESaISH_EE7_M_copyILb0ENSN_11_Alloc_nodeEEEPSt18_Rb_tree_node_basePSt13_Rb_tree_nodeISH_ESR_RT0_
FNL:58,2582,2593
FNA:58,95,_ZNSt8_Rb_treeINSt7__cxx1112basic_stringIcSt11char_traitsIcESaIcEEESt4pairIKS5_N8nlohmann16json_abi_v3_11_310basic_jsonISt3mapSt6vectorS5_blmdSaNS9_14adl_serializerESC_IhSaIhEEvEEESt10_Select1stISH_ESt4lessIvESaISH_EE8_M_eraseEPSt13_Rb_tree_nodeISH_E
FNL:59,2599,2609
FNA:59,110,_ZNKSt8_Rb_treeINSt7__cxx1112basic_stringIcSt11char_traitsIcESaIcEEESt4pairIKS5_N8nlohmann16json_abi_v3_11_310basic_jsonISt3mapSt6vectorS5_blmdSaNS9_14adl_serializerESC_IhSaIhEEvEEESt10_Select1stISH_ESt4lessIvESaISH_EE14_M_lower_boundEPSt18_Rb_tree_node_baseSP_RS7_
FNL:60,2730,2754
FNA:60,19,_ZNSt8_Rb_treeINSt7__cxx1112basic_stringIcSt11char_traitsIcESaIcEEESt4pairIKS5_N8nlohmann16json_abi_v3_11_310basic_jsonISt3mapSt6vectorS5_blmdSaNS9_14adl_serializerESC_IhSaIhEEvEEESt10_Select1stISH_ESt4lessIvESaISH_EE24_M_get_insert_unique_posERS7_
FNL:61,2832,2882
FNA:61,40,_ZNSt8_Rb_treeINSt7__cxx1112basic_stringIcSt11char_traitsIcESaIcEEESt4pairIKS5_N8nlohmann16json_abi_v3_11_310basic_jsonISt3mapSt6vectorS5_blmdSaNS9_14adl_serializerESC_IhSaIhEEvEEESt10_Select1stISH_ESt4lessIvESaISH_EE29_M_get_insert_hint_unique_posESt23_Rb_tree_const_iteratorISH_ERS7_
FNL:62,2997,3010
FNA:62,40,_ZNSt8_Rb_treeINSt7__cxx1112basic_stringIcSt11char_traitsIcESaIcEEESt4pairIKS5_N8nlohmann16json_abi_v3_11_310basic_jsonISt3mapSt6vectorS5_blmdSaNS9_14adl_serializerESC_IhSaIhEEvEEESt10_Select1stISH_ESt4lessIvESaISH_EE14_M_insert_nodeEPSt18_Rb_tree_node_baseSP_PSt13_Rb_tree_nodeISH_E
FNL:63,3080,3089
FNA:63,4,_ZNSt8_Rb_treeINSt7__cxx1112basic_stringIcSt11char_traitsIcESaIcEEESt4pairIKS5_N8nlohmann16json_abi_v3_11_310basic_jsonISt3mapSt6vectorS5_blmdSaNS9_14adl_serializerESC_IhSaIhEEvEEESt10_Select1stISH_ESt4lessIvESaISH_EE22_M_emplace_hint_uniqueIJRKSt21piecewise_construct_tSt5tupleIJRS7_EESS_IJEEEEESt17_Rb_tree_iteratorISH_ESt23_Rb_tree_const_iteratorISH_EDpOT_
FNA:63,36,_ZNSt8_Rb_treeINSt7__cxx1112basic_stringIcSt11char_traitsIcESaIcEEESt4pairIKS5_N8nlohmann16json_abi_v3_11_310basic_jsonISt3mapSt6vectorS5_blmdSaNS9_14adl_serializerESC_IhSaIhEEvEEESt10_Select1stISH_ESt4lessIvESaISH_EE22_M_emplace_hint_uniqueIJS5_DnEEESt17_Rb_tree_iteratorISH_ESt23_Rb_tree_const_iteratorISH_EDpOT_
FNA:63,0,_ZNSt8_Rb_treeINSt7__cxx1112basic_stringIcSt11char_traitsIcESaIcEEESt4pairIKS5_N8nlohmann16json_abi_v3_11_310basic_jsonISt3mapSt6vectorS5_blmdSaNS9_14adl_serializerESC_IhSaIhEEvEEESt10_Select1stISH_ESt4lessIvESaISH_EE22_M_emplace_hint_uniqueIJS5_SG_EEESt17_Rb_tree_iteratorISH_ESt23_Rb_tree_const_iteratorISH_EDpOT_
FNL:64,3111,3118
FNA:64,0,_ZNSt8_Rb_treeINSt7__cxx1112basic_stringIcSt11char_traitsIcESaIcEEESt4pairIKS5_N8nlohmann16json_abi_v3_11_310basic_jsonISt3mapSt6vectorS5_blmdSaNS9_14adl_serializerESC_IhSaIhEEvEEESt10_Select1stISH_ESt4lessIvESaISH_EE12_M_erase_auxESt23_Rb_tree_const_iteratorISH_E
FNL:65,3149,3156
FNA:65,24,_ZNSt8_Rb_treeINSt7__cxx1112basic_stringIcSt11char_traitsIcESaIcEEESt4pairIKS5_N8nlohmann16json_abi_v3_11_310basic_jsonISt3mapSt6vectorS5_blmdSaNS9_14adl_serializerESC_IhSaIhEEvEEESt10_Select1stISH_ESt4lessIvESaISH_EE4findERS7_
FNL:66,384,385
FNA:66,90,_ZNSt17_Rb_tree_iteratorISt4pairIKNSt7__cxx1112basic_stringIcSt11char_traitsIcESaIcEEEN8nlohmann16json_abi_v3_11_310basic_jsonISt3mapSt6vectorS6_blmdSaNS9_14adl_serializerESC_IhSaIhEEvEEEEC2Ev
FNL:67,388,389
FNA:67,408,_ZNSt17_Rb_tree_iteratorISt4pairIKNSt7__cxx1112basic_stringIcSt11char_traitsIcESaIcEEEN8nlohmann16json_abi_v3_11_310basic_jsonISt3mapSt6vectorS6_blmdSaNS9_14adl_serializerESC_IhSaIhEEvEEEEC2EPSt18_Rb_tree_node_base
FNL:68,392,393
FNA:68,120,_ZNKSt17_Rb_tree_iteratorISt4pairIKNSt7__cxx1112basic_stringIcSt11char_traitsIcESaIcEEEN8nlohmann16json_abi_v3_11_310basic_jsonISt3mapSt6vectorS6_blmdSaNS9_14adl_serializerESC_IhSaIhEEvEEEEdeEv
FNL:69,396,397
FNA:69,106,_ZNKSt17_Rb_tree_iteratorISt4pairIKNSt7__cxx1112basic_stringIcSt11char_traitsIcESaIcEEEN8nlohmann16json_abi_v3_11_310basic_jsonISt3mapSt6vectorS6_blmdSaNS9_14adl_serializerESC_IhSaIhEEvEEEEptEv
FNL:70,400,404
FNA:70,58,_ZNSt17_Rb_tree_iteratorISt4pairIKNSt7__cxx1112basic_stringIcSt11char_traitsIcESaIcEEEN8nlohmann16json_abi_v3_11_310basic_jsonISt3mapSt6vectorS6_blmdSaNS9_14adl_serializerESC_IhSaIhEEvEEEEppEv
FNL:71,415,419
FNA:71,0,_ZNSt17_Rb_tree_iteratorISt4pairIKNSt7__cxx1112basic_stringIcSt11char_traitsIcESaIcEEEN8nlohmann16json_abi_v3_11_310basic_jsonISt3mapSt6vectorS6_blmdSaNS9_14adl_serializerESC_IhSaIhEEvEEEEmmEv
FNL:72,430,432
FNA:72,129,_ZSteqRKSt17_Rb_tree_iteratorISt4pairIKNSt7__cxx1112basic_stringIcSt11char_traitsIcESaIcEEEN8nlohmann16json_abi_v3_11_310basic_jsonISt3mapSt6vectorS6_blmdSaNS9_14adl_serializerESC_IhSaIhEEvEEEESK_
FNL:73,436,438
FNA:73,119,_ZStneRKSt17_Rb_tree_iteratorISt4pairIKNSt7__cxx1112basic_stringIcSt11char_traitsIcESaIcEEEN8nlohmann16json_abi_v3_11_310basic_jsonISt3mapSt6vectorS6_blmdSaNS9_14adl_serializerESC_IhSaIhEEvEEEESK_
FNL:74,463,464
FNA:74,6,_ZNSt23_Rb_tree_const_iteratorISt4pairIKNSt7__cxx1112basic_stringIcSt11char_traitsIcESaIcEEEN8nlohmann16json_abi_v3_11_310basic_jsonISt3mapSt6vectorS6_blmdSaNS9_14adl_serializerESC_IhSaIhEEvEEEEC2EPSt18_Rb_tree_node_base
FNL:75,466,467
FNA:75,40,_ZNSt23_Rb_tree_const_iteratorISt4pairIKNSt7__cxx1112basic_stringIcSt11char_traitsIcESaIcEEEN8nlohmann16json_abi_v3_11_310basic_jsonISt3mapSt6vectorS6_blmdSaNS9_14adl_serializerESC_IhSaIhEEvEEEEC2ERKSt17_Rb_tree_iteratorISH_E
FNL:76,474,475
FNA:76,8,_ZNKSt23_Rb_tree_const_iteratorISt4pairIKNSt7__cxx1112basic_stringIcSt11char_traitsIcESaIcEEEN8nlohmann16json_abi_v3_11_310basic_jsonISt3mapSt6vectorS6_blmdSaNS9_14adl_serializerESC_IhSaIhEEvEEEEptEv
FNL:77,478,482
FNA:77,4,_ZNSt23_Rb_tree_const_iteratorISt4pairIKNSt7__cxx1112basic_stringIcSt11char_traitsIcESaIcEEEN8nlohmann16json_abi_v3_11_310basic_jsonISt3mapSt6vectorS6_blmdSaNS9_14adl_serializerESC_IhSaIhEEvEEEEppEv
FNL:78,493,497
FNA:78,0,_ZNSt23_Rb_tree_const_iteratorISt4pairIKNSt7__cxx1112basic_stringIcSt11char_traitsIcESaIcEEEN8nlohmann16json_abi_v3_11_310basic_jsonISt3mapSt6vectorS6_blmdSaNS9_14adl_serializerESC_IhSaIhEEvEEEEmmEv
FNL:79,508,510
FNA:79,2,_ZSteqRKSt23_Rb_tree_const_iteratorISt4pairIKNSt7__cxx1112basic_stringIcSt11char_traitsIcESaIcEEEN8nlohmann16json_abi_v3_11_310basic_jsonISt3mapSt6vectorS6_blmdSaNS9_14adl_serializerESC_IhSaIhEEvEEEESK_
FNL:80,514,516
FNA:80,2,_ZStneRKSt23_Rb_tree_const_iteratorISt4pairIKNSt7__cxx1112basic_stringIcSt11char_traitsIcESaIcEEEN8nlohmann16json_abi_v3_11_310basic_jsonISt3mapSt6vectorS6_blmdSaNS9_14adl_serializerESC_IhSaIhEEvEEEESK_
FNL:81,689,694
FNA:81,40,_ZNSt9__rb_tree12_Node_traitsISt4pairIKNSt7__cxx1112basic_stringIcSt11char_traitsIcESaIcEEEN8nlohmann16json_abi_v3_11_310basic_jsonISt3mapSt6vectorS7_blmdSaNSA_14adl_serializerESD_IhSaIhEEvEEEPSI_E23_S_insert_and_rebalanceEbPSt18_Rb_tree_node_baseSM_RSL_
FNL:82,698,700
FNA:82,0,_ZNSt9__rb_tree12_Node_traitsISt4pairIKNSt7__cxx1112basic_stringIcSt11char_traitsIcESaIcEEEN8nlohmann16json_abi_v3_11_310basic_jsonISt3mapSt6vectorS7_blmdSaNSA_14adl_serializerESD_IhSaIhEEvEEEPSI_E22_S_rebalance_for_eraseEPSt18_Rb_tree_node_baseRSL_
FNF:83
FNH:76
DA:117,9
DA:119,9
DA:120,9
DA:124,9
DA:126,18
DA:127,9
DA:134,439
DA:135,439
DA:144,19
DA:148,19
DA:150,9
DA:152,9
DA:171,28
DA:172,28
DA:173,28
DA:174,28
DA:175,28
DA:204,37
DA:206,37
DA:207,37
DA:208,37
DA:209,37
DA:210,37
DA:230,360
DA:231,360
DA:234,265
DA:235,265
DA:239,76
DA:240,76
DA:384,90
DA:385,90
DA:388,408
DA:389,408
DA:392,120
DA:393,120
DA:396,106
DA:397,106
DA:400,58
DA:402,58
DA:403,58
DA:415,0
DA:417,0
DA:418,0
DA:430,129
DA:432,129
DA:436,119
DA:438,119
DA:463,6
DA:464,6
DA:466,40
DA:467,40
DA:474,8
DA:475,8
DA:478,4
DA:480,4
DA:481,4
DA:493,0
DA:495,0
DA:496,0
DA:508,2
DA:510,2
DA:514,2
DA:516,2
DA:689,40
DA:693,40
DA:698,0
DA:700,0
DA:1130,9
DA:1131,9
DA:1135,18
DA:1136,36
DA:1154,232
DA:1155,232
DA:1158,0
DA:1159,0
DA:1167,58
DA:1170,116
DA:1188,58
DA:1191,58
DA:1207,58
DA:1232,58
DA:1236,58
DA:1237,102
DA:1241,0
DA:1243,0
DA:1244,0
DA:1245,0
DA:1247,58
DA:1251,58
DA:1253,58
DA:1254,102
DA:1255,58
DA:1260,58
DA:1265,58
DA:1266,58
DA:1268,58
DA:1271,58
DA:1273,58
DA:1274,58
DA:1275,58
DA:1279,18
DA:1287,36
DA:1288,18
DA:1289,18
DA:1290,18
DA:1310,19
DA:1314,19
DA:1315,19
DA:1317,9
DA:1318,9
DA:1319,9
DA:1320,9
DA:1321,9
DA:1353,9
DA:1354,9
DA:1357,9
DA:1358,9
DA:1361,45
DA:1362,45
DA:1369,27
DA:1370,27
DA:1377,129
DA:1378,129
DA:1381,46
DA:1383,46
DA:1385,46
DA:1386,9
DA:1390,381
DA:1391,381
DA:1394,257
DA:1412,257
DA:1416,208
DA:1417,208
DA:1420,49
DA:1421,49
DA:1424,136
DA:1425,136
DA:1428,76
DA:1430,76
DA:1431,76
DA:1432,66
DA:1436,18
DA:1437,18
DA:1440,67
DA:1442,67
DA:1443,67
DA:1444,38
DA:1520,9
DA:1523,9
DA:1524,9
DA:1525,9
DA:1526,9
DA:1527,9
DA:1531,9
DA:1533,9
DA:1534,18
DA:1553,19
DA:1560,9
DA:1561,9
DA:1563,9
DA:1564,9
DA:1565,9
DA:1608,28
DA:1609,28
DA:1616,58
DA:1617,58
DA:1620,56
DA:1621,56
DA:1624,2
DA:1625,2
DA:1628,171
DA:1629,171
DA:1632,4
DA:1633,4
DA:1652,2
DA:1653,2
DA:1656,60
DA:1657,60
DA:1660,0
DA:1661,0
DA:1828,0
DA:1830,0
DA:1831,0
DA:1832,0
DA:1833,0
DA:1834,0
DA:1876,9
DA:1878,9
DA:1879,9
DA:1880,9
DA:1893,86
DA:1894,86
DA:2283,40
DA:2284,40
DA:2285,84
DA:2286,40
DA:2288,40
DA:2290,40
DA:2291,0
DA:2292,40
DA:2299,40
DA:2300,40
DA:2303,40
DA:2305,40
DA:2306,40
DA:2307,40
DA:2542,18
DA:2546,18
DA:2547,18
DA:2548,18
DA:2552,18
DA:2553,9
DA:2554,9
DA:2555,18
DA:2556,18
DA:2558,18
DA:2561,0
DA:2562,0
DA:2563,0
DA:2564,0
DA:2565,0
DA:2567,0
DA:2568,0
DA:2571,0
DA:2573,0
DA:2574,0
DA:2576,18
DA:2582,95
DA:2586,153
DA:2588,58
DA:2589,58
DA:2590,58
DA:2591,58
DA:2593,95
DA:2599,110
DA:2603,264
DA:2604,154
DA:2605,136
DA:2607,18
DA:2608,110
DA:2730,19
DA:2734,19
DA:2735,19
DA:2736,19
DA:2737,19
DA:2739,0
DA:2740,0
DA:2741,0
DA:2743,19
DA:2744,19
DA:2746,19
DA:2747,19
DA:2749,0
DA:2751,0
DA:2752,0
DA:2753,0
DA:2832,40
DA:2839,40
DA:2841,28
DA:2842,28
DA:2843,9
DA:2845,19
DA:2847,12
DA:2850,12
DA:2851,12
DA:2852,12
DA:2853,0
DA:2855,0
DA:2856,0
DA:2858,0
DA:2861,0
DA:2863,0
DA:2866,0
DA:2867,0
DA:2868,0
DA:2869,0
DA:2871,0
DA:2872,0
DA:2874,0
DA:2877,0
DA:2881,0
DA:2997,40
DA:3001,28
DA:3002,68
DA:3005,40
DA:3007,40
DA:3008,40
DA:3009,40
DA:3080,40
DA:3084,84
DA:3085,40
DA:3086,40
DA:3087,40
DA:3088,0
DA:3089,40
DA:3111,0
DA:3115,0
DA:3116,0
DA:3117,0
DA:3118,0
DA:3149,24
DA:3152,24
DA:3153,48
DA:3154,24
DA:3155,72
LF:305
LH:244
end_of_record
TN:
SF:/usr/include/c++/15/bits/stl_uninitialized.h
FNL:0,1000,1002
FNA:0,0,_ZSt27__uninitialized_default_n_aIPN8nlohmann16json_abi_v3_11_310basic_jsonISt3mapSt6vectorNSt7__cxx1112basic_stringIcSt11char_traitsIcESaIcEEEblmdSaNS1_14adl_serializerES4_IhSaIhEEvEEmSE_ET_SG_T0_RSaIT1_E
FNA:0,22,_ZSt27__uninitialized_default_n_aIPNSt7__cxx114listI8HashNodeSaIS2_EEEmS4_ET_S6_T0_RSaIT1_E
FNL:1,113,115
FNA:1,118,_ZNSt19_UninitDestroyGuardIPN8nlohmann16json_abi_v3_11_310basic_jsonISt3mapSt6vectorNSt7__cxx1112basic_stringIcSt11char_traitsIcESaIcEEEblmdSaNS1_14adl_serializerES4_IhSaIhEEvEEvEC2ERSF_
FNA:1,1,_ZNSt19_UninitDestroyGuardIPNSt7__cxx1112basic_stringIcSt11char_traitsIcESaIcEEEvEC2ERS6_
FNA:1,22,_ZNSt19_UninitDestroyGuardIPNSt7__cxx114listI8HashNodeSaIS2_EEEvEC2ERS5_
FNL:2,118,122
FNA:2,118,_ZNSt19_UninitDestroyGuardIPN8nlohmann16json_abi_v3_11_310basic_jsonISt3mapSt6vectorNSt7__cxx1112basic_stringIcSt11char_traitsIcESaIcEEEblmdSaNS1_14adl_serializerES4_IhSaIhEEvEEvED2Ev
FNA:2,1,_ZNSt19_UninitDestroyGuardIPNSt7__cxx1112basic_stringIcSt11char_traitsIcESaIcEEEvED2Ev
FNA:2,22,_ZNSt19_UninitDestroyGuardIPNSt7__cxx114listI8HashNodeSaIS2_EEEvED2Ev
FNL:3,125,125
FNA:3,118,_ZNSt19_UninitDestroyGuardIPN8nlohmann16json_abi_v3_11_310basic_jsonISt3mapSt6vectorNSt7__cxx1112basic_stringIcSt11char_traitsIcESaIcEEEblmdSaNS1_14adl_serializerES4_IhSaIhEEvEEvE7releaseEv
FNA:3,1,_ZNSt19_UninitDestroyGuardIPNSt7__cxx1112basic_stringIcSt11char_traitsIcESaIcEEEvE7releaseEv
FNA:3,22,_ZNSt19_UninitDestroyGuardIPNSt7__cxx114listI8HashNodeSaIS2_EEEvE7releaseEv
FNL:4,1280,1290
FNA:4,102,_ZSt19__relocate_object_aIN8nlohmann16json_abi_v3_11_310basic_jsonISt3mapSt6vectorNSt7__cxx1112basic_stringIcSt11char_traitsIcESaIcEEEblmdSaNS1_14adl_serializerES4_IhSaIhEEvEESE_SaISE_EEvPT_PT0_RT1_
FNA:4,12,_ZSt19__relocate_object_aINSt7__cxx1112basic_stringIcSt11char_traitsIcESaIcEEES5_SaIS5_EEvPT_PT0_RT1_
FNA:4,0,_ZSt19__relocate_object_aINSt7__cxx114listI8HashNodeSaIS2_EEES4_SaIS4_EEvPT_PT0_RT1_
FNL:5,1303,1320
FNA:5,71,_ZSt14__relocate_a_1IPN8nlohmann16json_abi_v3_11_310basic_jsonISt3mapSt6vectorNSt7__cxx1112basic_stringIcSt11char_traitsIcESaIcEEEblmdSaNS1_14adl_serializerES4_IhSaIhEEvEESF_SaISE_EET0_T_SI_SH_RT1_
FNA:5,30,_ZSt14__relocate_a_1IPNSt7__cxx1112basic_stringIcSt11char_traitsIcESaIcEEES6_SaIS5_EET0_T_S9_S8_RT1_
FNA:5,16,_ZSt14__relocate_a_1IPNSt7__cxx114listI8HashNodeSaIS2_EEES5_SaIS4_EET0_T_S8_S7_RT1_
FNL:6,1326,1346
FNA:6,4,_ZSt14__relocate_a_1IPN8nlohmann16json_abi_v3_11_310basic_jsonISt3mapSt6vectorNSt7__cxx1112basic_stringIcSt11char_traitsIcESaIcEEEblmdSaNS1_14adl_serializerES4_IhSaIhEEvEESF_ENSt9enable_ifIXsrSt24__is_bitwise_relocatableIT_vE5valueEPSI_E4typeESK_SK_SK_RSaIT0_E
FNA:6,10,_ZSt14__relocate_a_1IccENSt9enable_ifIXsrSt24__is_bitwise_relocatableIT_vE5valueEPS2_E4typeES4_S4_S4_RSaIT0_E
FNL:7,1353,1362
FNA:7,71,_ZSt12__relocate_aIPN8nlohmann16json_abi_v3_11_310basic_jsonISt3mapSt6vectorNSt7__cxx1112basic_stringIcSt11char_traitsIcESaIcEEEblmdSaNS1_14adl_serializerES4_IhSaIhEEvEESF_SaISE_EET0_T_SI_SH_RT1_
FNA:7,30,_ZSt12__relocate_aIPNSt7__cxx1112basic_stringIcSt11char_traitsIcESaIcEEES6_SaIS5_EET0_T_S9_S8_RT1_
FNA:7,16,_ZSt12__relocate_aIPNSt7__cxx114listI8HashNodeSaIS2_EEES5_SaIS4_EET0_T_S8_S7_RT1_
FNA:7,4,_ZSt12__relocate_aIPPN8nlohmann16json_abi_v3_11_310basic_jsonISt3mapSt6vectorNSt7__cxx1112basic_stringIcSt11char_traitsIcESaIcEEEblmdSaNS1_14adl_serializerES4_IhSaIhEEvEESG_SaISF_EET0_T_SJ_SI_RT1_
FNA:7,10,_ZSt12__relocate_aIPcS0_SaIcEET0_T_S3_S2_RT1_
FNL:8,140,148
FNA:8,74,_ZSt16__do_uninit_copyIN9__gnu_cxx17__normal_iteratorIPKN8nlohmann16json_abi_v3_11_310basic_jsonISt3mapSt6vectorNSt7__cxx1112basic_stringIcSt11char_traitsIcESaIcEEEblmdSaNS3_14adl_serializerES6_IhSaIhEEvEES6_ISG_SaISG_EEEESL_PSG_ET1_T_T0_SN_
FNA:8,2,_ZSt16__do_uninit_copyIN9__gnu_cxx17__normal_iteratorIPKNSt7__cxx1112basic_stringIcSt11char_traitsIcESaIcEEESt6vectorIS7_SaIS7_EEEESD_PN8nlohmann16json_abi_v3_11_310basic_jsonISt3mapSA_S7_blmdSaNSF_14adl_serializerESA_IhSaIhEEvEEET1_T_T0_SN_
FNA:8,42,_ZSt16__do_uninit_copyIPKN8nlohmann16json_abi_v3_11_36detail8json_refINS1_10basic_jsonISt3mapSt6vectorNSt7__cxx1112basic_stringIcSt11char_traitsIcESaIcEEEblmdSaNS1_14adl_serializerES6_IhSaIhEEvEEEESJ_PSG_ET1_T_T0_SL_
FNA:8,1,_ZSt16__do_uninit_copyIPKPKcS3_PNSt7__cxx1112basic_stringIcSt11char_traitsIcESaIcEEEET1_T_T0_SB_
FNL:9,231,317
FNA:9,74,_ZSt18uninitialized_copyIN9__gnu_cxx17__normal_iteratorIPKN8nlohmann16json_abi_v3_11_310basic_jsonISt3mapSt6vectorNSt7__cxx1112basic_stringIcSt11char_traitsIcESaIcEEEblmdSaNS3_14adl_serializerES6_IhSaIhEEvEES6_ISG_SaISG_EEEEPSG_ET0_T_SO_SN_
FNA:9,2,_ZSt18uninitialized_copyIN9__gnu_cxx17__normal_iteratorIPKNSt7__cxx1112basic_stringIcSt11char_traitsIcESaIcEEESt6vectorIS7_SaIS7_EEEEPN8nlohmann16json_abi_v3_11_310basic_jsonISt3mapSA_S7_blmdSaNSF_14adl_serializerESA_IhSaIhEEvEEET0_T_SO_SN_
FNA:9,0,_ZSt18uninitialized_copyIN9__gnu_cxx17__normal_iteratorIPKhSt6vectorIhSaIhEEEEPhET0_T_SA_S9_
FNA:9,42,_ZSt18uninitialized_copyIPKN8nlohmann16json_abi_v3_11_36detail8json_refINS1_10basic_jsonISt3mapSt6vectorNSt7__cxx1112basic_stringIcSt11char_traitsIcESaIcEEEblmdSaNS1_14adl_serializerES6_IhSaIhEEvEEEEPSG_ET0_T_SM_SL_
FNA:9,1,_ZSt18uninitialized_copyIPKPKcPNSt7__cxx1112basic_stringIcSt11char_traitsIcESaIcEEEET0_T_SC_SB_
FNL:10,613,639
FNA:10,74,_ZSt22__uninitialized_copy_aIN9__gnu_cxx17__normal_iteratorIPKN8nlohmann16json_abi_v3_11_310basic_jsonISt3mapSt6vectorNSt7__cxx1112basic_stringIcSt11char_traitsIcESaIcEEEblmdSaNS3_14adl_serializerES6_IhSaIhEEvEES6_ISG_SaISG_EEEESL_PSG_SG_ET1_T_T0_SN_RSaIT2_E
FNA:10,2,_ZSt22__uninitialized_copy_aIN9__gnu_cxx17__normal_iteratorIPKNSt7__cxx1112basic_stringIcSt11char_traitsIcESaIcEEESt6vectorIS7_SaIS7_EEEESD_PN8nlohmann16json_abi_v3_11_310basic_jsonISt3mapSA_S7_blmdSaNSF_14adl_serializerESA_IhSaIhEEvEESL_ET1_T_T0_SN_RSaIT2_E
FNA:10,0,_ZSt22__uninitialized_copy_aIN9__gnu_cxx17__normal_iteratorIPKhSt6vectorIhSaIhEEEES7_PhhET1_T_T0_S9_RSaIT2_E
FNA:10,42,_ZSt22__uninitialized_copy_aIPKN8nlohmann16json_abi_v3_11_36detail8json_refINS1_10basic_jsonISt3mapSt6vectorNSt7__cxx1112basic_stringIcSt11char_traitsIcESaIcEEEblmdSaNS1_14adl_serializerES6_IhSaIhEEvEEEESJ_PSG_SG_ET1_T_T0_SL_RSaIT2_E
FNA:10,1,_ZSt22__uninitialized_copy_aIPKPKcS3_PNSt7__cxx1112basic_stringIcSt11char_traitsIcESaIcEEES9_ET1_T_T0_SB_RSaIT2_E
FNL:11,872,879
FNA:11,0,_ZNSt27__uninitialized_default_n_1ILb0EE18__uninit_default_nIPN8nlohmann16json_abi_v3_11_310basic_jsonISt3mapSt6vectorNSt7__cxx1112basic_stringIcSt11char_traitsIcESaIcEEEblmdSaNS3_14adl_serializerES6_IhSaIhEEvEEmEET_SI_T0_
FNA:11,22,_ZNSt27__uninitialized_default_n_1ILb0EE18__uninit_default_nIPNSt7__cxx114listI8HashNodeSaIS4_EEEmEET_S8_T0_
FNL:12,931,948
FNA:12,0,_ZSt25__uninitialized_default_nIPN8nlohmann16json_abi_v3_11_310basic_jsonISt3mapSt6vectorNSt7__cxx1112basic_stringIcSt11char_traitsIcESaIcEEEblmdSaNS1_14adl_serializerES4_IhSaIhEEvEEmET_SG_T0_
FNA:12,22,_ZSt25__uninitialized_default_nIPNSt7__cxx114listI8HashNodeSaIS2_EEEmET_S6_T0_
FNF:13
FNH:13
DA:113,141
DA:114,141
DA:115,141
DA:118,141
DA:120,141
DA:121,0
DA:122,141
DA:125,141
DA:140,119
DA:143,119
DA:144,330
DA:145,166
DA:146,119
DA:147,119
DA:148,119
DA:231,119
DA:266,119
DA:269,0
DA:270,0
DA:273,0
DA:274,0
DA:276,0
DA:278,0
DA:613,119
DA:637,119
DA:872,22
DA:874,22
DA:875,362
DA:876,680
DA:877,22
DA:878,44
DA:879,22
DA:931,22
DA:942,22
DA:947,22
DA:1000,22
DA:1002,22
DA:1280,114
DA:1288,114
DA:1289,114
DA:1290,114
DA:1303,117
DA:1315,117
DA:1316,231
DA:1317,228
DA:1319,117
DA:1326,14
DA:1330,14
DA:1331,14
DA:1343,10
DA:1345,14
DA:1353,131
DA:1359,393
DA:1361,131
LF:54
LH:47
end_of_record
TN:
SF:/usr/include/c++/15/bits/stl_vector.h
FNL:0,1008,1009
FNA:0,931,_ZNKSt6vectorIN8nlohmann16json_abi_v3_11_310basic_jsonISt3mapS_NSt7__cxx1112basic_stringIcSt11char_traitsIcESaIcEEEblmdSaNS1_14adl_serializerES_IhSaIhEEvEESaISD_EE5beginEv
FNA:0,10,_ZNKSt6vectorINSt7__cxx1112basic_stringIcSt11char_traitsIcESaIcEEESaIS5_EE5beginEv
FNA:0,6,_ZNKSt6vectorINSt7__cxx114listI8HashNodeSaIS2_EEESaIS4_EE5beginEv
FNA:0,69,_ZNKSt6vectorIPN8nlohmann16json_abi_v3_11_310basic_jsonISt3mapS_NSt7__cxx1112basic_stringIcSt11char_traitsIcESaIcEEEblmdSaNS1_14adl_serializerES_IhSaIhEEvEESaISE_EE5beginEv
FNA:0,93,_ZNKSt6vectorIcSaIcEE5beginEv
FNA:0,0,_ZNKSt6vectorIhSaIhEE5beginEv
FNL:1,1018,1019
FNA:1,686,_ZNSt6vectorIN8nlohmann16json_abi_v3_11_310basic_jsonISt3mapS_NSt7__cxx1112basic_stringIcSt11char_traitsIcESaIcEEEblmdSaNS1_14adl_serializerES_IhSaIhEEvEESaISD_EE3endEv
FNA:1,40,_ZNSt6vectorINSt7__cxx1112basic_stringIcSt11char_traitsIcESaIcEEESaIS5_EE3endEv
FNA:1,52,_ZNSt6vectorIPN8nlohmann16json_abi_v3_11_310basic_jsonISt3mapS_NSt7__cxx1112basic_stringIcSt11char_traitsIcESaIcEEEblmdSaNS1_14adl_serializerES_IhSaIhEEvEESaISE_EE3endEv
FNA:1,95,_ZNSt6vectorIcSaIcEE3endEv
FNA:1,0,_ZNSt6vectorIhSaIhEE3endEv
FNL:2,1028,1029
FNA:2,931,_ZNKSt6vectorIN8nlohmann16json_abi_v3_11_310basic_jsonISt3mapS_NSt7__cxx1112basic_stringIcSt11char_traitsIcESaIcEEEblmdSaNS1_14adl_serializerES_IhSaIhEEvEESaISD_EE3endEv
FNA:2,10,_ZNKSt6vectorINSt7__cxx1112basic_stringIcSt11char_traitsIcESaIcEEESaIS5_EE3endEv
FNA:2,6,_ZNKSt6vectorINSt7__cxx114listI8HashNodeSaIS2_EEESaIS4_EE3endEv
FNA:2,69,_ZNKSt6vectorIPN8nlohmann16json_abi_v3_11_310basic_jsonISt3mapS_NSt7__cxx1112basic_stringIcSt11char_traitsIcESaIcEEEblmdSaNS1_14adl_serializerES_IhSaIhEEvEESaISE_EE3endEv
FNA:2,93,_ZNKSt6vectorIcSaIcEE3endEv
FNA:2,0,_ZNKSt6vectorIhSaIhEE3endEv
FNL:3,1038,1039
FNA:3,7,_ZNSt6vectorINSt7__cxx1112basic_stringIcSt11char_traitsIcESaIcEEESaIS5_EE6rbeginEv
FNL:4,105,107
FNA:4,268,_ZNSt12_Vector_baseIN8nlohmann16json_abi_v3_11_310basic_jsonISt3mapSt6vectorNSt7__cxx1112basic_stringIcSt11char_traitsIcESaIcEEEblmdSaNS1_14adl_serializerES4_IhSaIhEEvEESaISE_EE17_Vector_impl_dataC2Ev
FNA:4,40,_ZNSt12_Vector_baseINSt7__cxx1112basic_stringIcSt11char_traitsIcESaIcEEESaIS5_EE17_Vector_impl_dataC2Ev
FNA:4,16,_ZNSt12_Vector_baseINSt7__cxx114listI8HashNodeSaIS2_EEESaIS4_EE17_Vector_impl_dataC2Ev
FNA:4,2,_ZNSt12_Vector_baseIPN8nlohmann16json_abi_v3_11_310basic_jsonISt3mapSt6vectorNSt7__cxx1112basic_stringIcSt11char_traitsIcESaIcEEEblmdSaNS1_14adl_serializerES4_IhSaIhEEvEESaISF_EE17_Vector_impl_dataC2Ev
FNA:4,2,_ZNSt12_Vector_baseIcSaIcEE17_Vector_impl_dataC2Ev
FNA:4,0,_ZNSt12_Vector_baseIhSaIhEE17_Vector_impl_dataC2Ev
FNL:5,1058,1059
FNA:5,18,_ZNSt6vectorINSt7__cxx1112basic_stringIcSt11char_traitsIcESaIcEEESaIS5_EE4rendEv
FNL:6,1079,1080
FNA:6,1,_ZNKSt6vectorIN8nlohmann16json_abi_v3_11_310basic_jsonISt3mapS_NSt7__cxx1112basic_stringIcSt11char_traitsIcESaIcEEEblmdSaNS1_14adl_serializerES_IhSaIhEEvEESaISD_EE6cbeginEv
FNA:6,5,_ZNKSt6vectorINSt7__cxx1112basic_stringIcSt11char_traitsIcESaIcEEESaIS5_EE6cbeginEv
FNA:6,0,_ZNKSt6vectorIhSaIhEE6cbeginEv
FNL:7,1089,1090
FNA:7,3,_ZNKSt6vectorIN8nlohmann16json_abi_v3_11_310basic_jsonISt3mapS_NSt7__cxx1112basic_stringIcSt11char_traitsIcESaIcEEEblmdSaNS1_14adl_serializerES_IhSaIhEEvEESaISD_EE4cendEv
FNA:7,2,_ZNKSt6vectorINSt7__cxx1112basic_stringIcSt11char_traitsIcESaIcEEESaIS5_EE4cendEv
FNA:7,0,_ZNKSt6vectorIhSaIhEE4cendEv
FNL:8,1117,1123
FNA:8,494,_ZNKSt6vectorIN8nlohmann16json_abi_v3_11_310basic_jsonISt3mapS_NSt7__cxx1112basic_stringIcSt11char_traitsIcESaIcEEEblmdSaNS1_14adl_serializerES_IhSaIhEEvEESaISD_EE4sizeEv
FNA:8,121,_ZNKSt6vectorINSt7__cxx1112basic_stringIcSt11char_traitsIcESaIcEEESaIS5_EE4sizeEv
FNA:8,250,_ZNKSt6vectorINSt7__cxx114listI8HashNodeSaIS2_EEESaIS4_EE4sizeEv
FNA:8,16,_ZNKSt6vectorIPN8nlohmann16json_abi_v3_11_310basic_jsonISt3mapS_NSt7__cxx1112basic_stringIcSt11char_traitsIcESaIcEEEblmdSaNS1_14adl_serializerES_IhSaIhEEvEESaISE_EE4sizeEv
FNA:8,40,_ZNKSt6vectorIcSaIcEE4sizeEv
FNA:8,0,_ZNKSt6vectorIhSaIhEE4sizeEv
FNL:9,1128,1129
FNA:9,234,_ZNKSt6vectorIN8nlohmann16json_abi_v3_11_310basic_jsonISt3mapS_NSt7__cxx1112basic_stringIcSt11char_traitsIcESaIcEEEblmdSaNS1_14adl_serializerES_IhSaIhEEvEESaISD_EE8max_sizeEv
FNA:9,42,_ZNKSt6vectorINSt7__cxx1112basic_stringIcSt11char_traitsIcESaIcEEESaIS5_EE8max_sizeEv
FNA:9,76,_ZNKSt6vectorINSt7__cxx114listI8HashNodeSaIS2_EEESaIS4_EE8max_sizeEv
FNA:9,8,_ZNKSt6vectorIPN8nlohmann16json_abi_v3_11_310basic_jsonISt3mapS_NSt7__cxx1112basic_stringIcSt11char_traitsIcESaIcEEEblmdSaNS1_14adl_serializerES_IhSaIhEEvEESaISE_EE8max_sizeEv
FNA:9,20,_ZNKSt6vectorIcSaIcEE8max_sizeEv
FNL:10,1143,1149
FNA:10,0,_ZNSt6vectorIN8nlohmann16json_abi_v3_11_310basic_jsonISt3mapS_NSt7__cxx1112basic_stringIcSt11char_traitsIcESaIcEEEblmdSaNS1_14adl_serializerES_IhSaIhEEvEESaISD_EE6resizeEm
FNA:10,22,_ZNSt6vectorINSt7__cxx114listI8HashNodeSaIS2_EEESaIS4_EE6resizeEm
FNL:11,119,124
FNA:11,24,_ZNSt12_Vector_baseINSt7__cxx1112basic_stringIcSt11char_traitsIcESaIcEEESaIS5_EE17_Vector_impl_data12_M_copy_dataERKS8_
FNL:12,1208,1215
FNA:12,195,_ZNKSt6vectorIN8nlohmann16json_abi_v3_11_310basic_jsonISt3mapS_NSt7__cxx1112basic_stringIcSt11char_traitsIcESaIcEEEblmdSaNS1_14adl_serializerES_IhSaIhEEvEESaISD_EE8capacityEv
FNA:12,18,_ZNKSt6vectorINSt7__cxx1112basic_stringIcSt11char_traitsIcESaIcEEESaIS5_EE8capacityEv
FNL:13,1223,1224
FNA:13,857,_ZNKSt6vectorIN8nlohmann16json_abi_v3_11_310basic_jsonISt3mapS_NSt7__cxx1112basic_stringIcSt11char_traitsIcESaIcEEEblmdSaNS1_14adl_serializerES_IhSaIhEEvEESaISD_EE5emptyEv
FNA:13,4,_ZNKSt6vectorINSt7__cxx1112basic_stringIcSt11char_traitsIcESaIcEEESaIS5_EE5emptyEv
FNA:13,69,_ZNKSt6vectorIPN8nlohmann16json_abi_v3_11_310basic_jsonISt3mapS_NSt7__cxx1112basic_stringIcSt11char_traitsIcESaIcEEEblmdSaNS1_14adl_serializerES_IhSaIhEEvEESaISE_EE5emptyEv
FNA:13,93,_ZNKSt6vectorIcSaIcEE5emptyEv
FNA:13,0,_ZNKSt6vectorIhSaIhEE5emptyEv
FNL:14,1261,1265
FNA:14,32,_ZNSt6vectorIN8nlohmann16json_abi_v3_11_310basic_jsonISt3mapS_NSt7__cxx1112basic_stringIcSt11char_traitsIcESaIcEEEblmdSaNS1_14adl_serializerES_IhSaIhEEvEESaISD_EEixEm
FNA:14,1,_ZNSt6vectorINSt7__cxx1112basic_stringIcSt11char_traitsIcESaIcEEESaIS5_EEixEm
FNA:14,84,_ZNSt6vectorINSt7__cxx114listI8HashNodeSaIS2_EEESaIS4_EEixEm
FNL:15,128,136
FNA:15,8,_ZNSt12_Vector_baseINSt7__cxx1112basic_stringIcSt11char_traitsIcESaIcEEESaIS5_EE17_Vector_impl_data12_M_swap_dataERS8_
FNL:16,1280,1284
FNA:16,11,_ZNKSt6vectorINSt7__cxx1112basic_stringIcSt11char_traitsIcESaIcEEESaIS5_EEixEm
FNA:16,36,_ZNKSt6vectorINSt7__cxx114listI8HashNodeSaIS2_EEESaIS4_EEixEm
FNL:17,1368,1372
FNA:17,386,_ZNSt6vectorIN8nlohmann16json_abi_v3_11_310basic_jsonISt3mapS_NSt7__cxx1112basic_stringIcSt11char_traitsIcESaIcEEEblmdSaNS1_14adl_serializerES_IhSaIhEEvEESaISD_EE4backEv
FNA:17,48,_ZNSt6vectorIPN8nlohmann16json_abi_v3_11_310basic_jsonISt3mapS_NSt7__cxx1112basic_stringIcSt11char_traitsIcESaIcEEEblmdSaNS1_14adl_serializerES_IhSaIhEEvEESaISE_EE4backEv
FNA:17,85,_ZNSt6vectorIcSaIcEE4backEv
FNA:17,0,_ZNSt6vectorIhSaIhEE4backEv
FNL:18,1416,1428
FNA:18,35,_ZNSt6vectorIN8nlohmann16json_abi_v3_11_310basic_jsonISt3mapS_NSt7__cxx1112basic_stringIcSt11char_traitsIcESaIcEEEblmdSaNS1_14adl_serializerES_IhSaIhEEvEESaISD_EE9push_backERKSD_
FNA:18,15,_ZNSt6vectorINSt7__cxx1112basic_stringIcSt11char_traitsIcESaIcEEESaIS5_EE9push_backERKS5_
FNA:18,0,_ZNSt6vectorIPN8nlohmann16json_abi_v3_11_310basic_jsonISt3mapS_NSt7__cxx1112basic_stringIcSt11char_traitsIcESaIcEEEblmdSaNS1_14adl_serializerES_IhSaIhEEvEESaISE_EE9push_backERKSE_
FNL:19,143,149
FNA:19,150,_ZNSt12_Vector_baseIN8nlohmann16json_abi_v3_11_310basic_jsonISt3mapSt6vectorNSt7__cxx1112basic_stringIcSt11char_traitsIcESaIcEEEblmdSaNS1_14adl_serializerES4_IhSaIhEEvEESaISE_EE12_Vector_implC2Ev
FNA:19,27,_ZNSt12_Vector_baseINSt7__cxx1112basic_stringIcSt11char_traitsIcESaIcEEESaIS5_EE12_Vector_implC2Ev
FNA:19,16,_ZNSt12_Vector_baseINSt7__cxx114listI8HashNodeSaIS2_EEESaIS4_EE12_Vector_implC2Ev
FNA:19,2,_ZNSt12_Vector_baseIPN8nlohmann16json_abi_v3_11_310basic_jsonISt3mapSt6vectorNSt7__cxx1112basic_stringIcSt11char_traitsIcESaIcEEEblmdSaNS1_14adl_serializerES4_IhSaIhEEvEESaISF_EE12_Vector_implC2Ev
FNA:19,2,_ZNSt12_Vector_baseIcSaIcEE12_Vector_implC2Ev
FNA:19,0,_ZNSt12_Vector_baseIhSaIhEE12_Vector_implC2Ev
FNL:20,1433,1434
FNA:20,172,_ZNSt6vectorIN8nlohmann16json_abi_v3_11_310basic_jsonISt3mapS_NSt7__cxx1112basic_stringIcSt11char_traitsIcESaIcEEEblmdSaNS1_14adl_serializerES_IhSaIhEEvEESaISD_EE9push_backEOSD_
FNA:20,4,_ZNSt6vectorIPN8nlohmann16json_abi_v3_11_310basic_jsonISt3mapS_NSt7__cxx1112basic_stringIcSt11char_traitsIcESaIcEEEblmdSaNS1_14adl_serializerES_IhSaIhEEvEESaISE_EE9push_backEOSE_
FNA:20,85,_ZNSt6vectorIcSaIcEE9push_backEOc
FNL:21,1457,1463
FNA:21,160,_ZNSt6vectorIN8nlohmann16json_abi_v3_11_310basic_jsonISt3mapS_NSt7__cxx1112basic_stringIcSt11char_traitsIcESaIcEEEblmdSaNS1_14adl_serializerES_IhSaIhEEvEESaISD_EE8pop_backEv
FNA:21,4,_ZNSt6vectorIPN8nlohmann16json_abi_v3_11_310basic_jsonISt3mapS_NSt7__cxx1112basic_stringIcSt11char_traitsIcESaIcEEEblmdSaNS1_14adl_serializerES_IhSaIhEEvEESaISE_EE8pop_backEv
FNA:21,4,_ZNSt6vectorIcSaIcEE8pop_backEv
FNL:22,152,154
FNA:22,118,_ZNSt12_Vector_baseIN8nlohmann16json_abi_v3_11_310basic_jsonISt3mapSt6vectorNSt7__cxx1112basic_stringIcSt11char_traitsIcESaIcEEEblmdSaNS1_14adl_serializerES4_IhSaIhEEvEESaISE_EE12_Vector_implC2ERKSF_
FNA:22,5,_ZNSt12_Vector_baseINSt7__cxx1112basic_stringIcSt11char_traitsIcESaIcEEESaIS5_EE12_Vector_implC2ERKS6_
FNA:22,0,_ZNSt12_Vector_baseIhSaIhEE12_Vector_implC2ERKS0_
FNL:23,1528,1529
FNA:23,2,_ZNSt6vectorINSt7__cxx1112basic_stringIcSt11char_traitsIcESaIcEEESaIS5_EE6insertEN9__gnu_cxx17__normal_iteratorIPKS5_S7_EEOS5_
FNL:24,1792,1793
FNA:24,0,_ZNSt6vectorIN8nlohmann16json_abi_v3_11_310basic_jsonISt3mapS_NSt7__cxx1112basic_stringIcSt11char_traitsIcESaIcEEEblmdSaNS1_14adl_serializerES_IhSaIhEEvEESaISD_EE5eraseEN9__gnu_cxx17__normal_iteratorIPKSD_SF_EE
FNA:24,1,_ZNSt6vectorINSt7__cxx1112basic_stringIcSt11char_traitsIcESaIcEEESaIS5_EE5eraseEN9__gnu_cxx17__normal_iteratorIPKS5_S7_EE
FNL:25,1863,1864
FNA:25,78,_ZNSt6vectorIN8nlohmann16json_abi_v3_11_310basic_jsonISt3mapS_NSt7__cxx1112basic_stringIcSt11char_traitsIcESaIcEEEblmdSaNS1_14adl_serializerES_IhSaIhEEvEESaISD_EE5clearEv
FNA:25,3,_ZNSt6vectorINSt7__cxx1112basic_stringIcSt11char_traitsIcESaIcEEESaIS5_EE5clearEv
FNA:25,6,_ZNSt6vectorINSt7__cxx114listI8HashNodeSaIS2_EEESaIS4_EE5clearEv
FNA:25,9,_ZNSt6vectorIcSaIcEE5clearEv
FNL:26,1875,1877
FNA:26,43,_ZNSt6vectorIN8nlohmann16json_abi_v3_11_310basic_jsonISt3mapS_NSt7__cxx1112basic_stringIcSt11char_traitsIcESaIcEEEblmdSaNS1_14adl_serializerES_IhSaIhEEvEESaISD_EE12_Guard_allocC2EPSD_mRSt12_Vector_baseISD_SE_E
FNA:26,12,_ZNSt6vectorINSt7__cxx1112basic_stringIcSt11char_traitsIcESaIcEEESaIS5_EE12_Guard_allocC2EPS5_mRSt12_Vector_baseIS5_S6_E
FNA:26,16,_ZNSt6vectorINSt7__cxx114listI8HashNodeSaIS2_EEESaIS4_EE12_Guard_allocC2EPS4_mRSt12_Vector_baseIS4_S5_E
FNA:26,4,_ZNSt6vectorIPN8nlohmann16json_abi_v3_11_310basic_jsonISt3mapS_NSt7__cxx1112basic_stringIcSt11char_traitsIcESaIcEEEblmdSaNS1_14adl_serializerES_IhSaIhEEvEESaISE_EE12_Guard_allocC2EPSE_mRSt12_Vector_baseISE_SF_E
FNA:26,10,_ZNSt6vectorIcSaIcEE12_Guard_allocC2EPcmRSt12_Vector_baseIcS0_E
FNL:27,1880,1884
FNA:27,43,_ZNSt6vectorIN8nlohmann16json_abi_v3_11_310basic_jsonISt3mapS_NSt7__cxx1112basic_stringIcSt11char_traitsIcESaIcEEEblmdSaNS1_14adl_serializerES_IhSaIhEEvEESaISD_EE12_Guard_allocD2Ev
FNA:27,12,_ZNSt6vectorINSt7__cxx1112basic_stringIcSt11char_traitsIcESaIcEEESaIS5_EE12_Guard_allocD2Ev
FNA:27,16,_ZNSt6vectorINSt7__cxx114listI8HashNodeSaIS2_EEESaIS4_EE12_Guard_allocD2Ev
FNA:27,4,_ZNSt6vectorIPN8nlohmann16json_abi_v3_11_310basic_jsonISt3mapS_NSt7__cxx1112basic_stringIcSt11char_traitsIcESaIcEEEblmdSaNS1_14adl_serializerES_IhSaIhEEvEESaISE_EE12_Guard_allocD2Ev
FNA:27,10,_ZNSt6vectorIcSaIcEE12_Guard_allocD2Ev
FNL:28,1971,1976
FNA:28,2,_ZNSt6vectorIN8nlohmann16json_abi_v3_11_310basic_jsonISt3mapS_NSt7__cxx1112basic_stringIcSt11char_traitsIcESaIcEEEblmdSaNS1_14adl_serializerES_IhSaIhEEvEESaISD_EE19_M_range_initializeIN9__gnu_cxx17__normal_iteratorIPKS9_S_IS9_SaIS9_EEEEEEvT_SO_St20forward_iterator_tag
FNA:28,42,_ZNSt6vectorIN8nlohmann16json_abi_v3_11_310basic_jsonISt3mapS_NSt7__cxx1112basic_stringIcSt11char_traitsIcESaIcEEEblmdSaNS1_14adl_serializerES_IhSaIhEEvEESaISD_EE19_M_range_initializeIPKNS1_6detail8json_refISD_EEEEvT_SM_St20forward_iterator_tag
FNA:28,1,_ZNSt6vectorINSt7__cxx1112basic_stringIcSt11char_traitsIcESaIcEEESaIS5_EE19_M_range_initializeIPKPKcEEvT_SD_St20forward_iterator_tag
FNL:29,1981,1991
FNA:29,2,_ZNSt6vectorIN8nlohmann16json_abi_v3_11_310basic_jsonISt3mapS_NSt7__cxx1112basic_stringIcSt11char_traitsIcESaIcEEEblmdSaNS1_14adl_serializerES_IhSaIhEEvEESaISD_EE21_M_range_initialize_nIN9__gnu_cxx17__normal_iteratorIPKS9_S_IS9_SaIS9_EEEESN_EEvT_T0_m
FNA:29,42,_ZNSt6vectorIN8nlohmann16json_abi_v3_11_310basic_jsonISt3mapS_NSt7__cxx1112basic_stringIcSt11char_traitsIcESaIcEEEblmdSaNS1_14adl_serializerES_IhSaIhEEvEESaISD_EE21_M_range_initialize_nIPKNS1_6detail8json_refISD_EESL_EEvT_T0_m
FNA:29,1,_ZNSt6vectorINSt7__cxx1112basic_stringIcSt11char_traitsIcESaIcEEESaIS5_EE21_M_range_initialize_nIPKPKcSC_EEvT_T0_m
FNL:30,2129,2133
FNA:30,1,_ZNSt6vectorINSt7__cxx1112basic_stringIcSt11char_traitsIcESaIcEEESaIS5_EE16_Temporary_valueC2IJRKS5_EEEPS7_DpOT_
FNL:31,2136,2137
FNA:31,1,_ZNSt6vectorINSt7__cxx1112basic_stringIcSt11char_traitsIcESaIcEEESaIS5_EE16_Temporary_valueD2Ev
FNL:32,2140,2140
FNA:32,1,_ZNSt6vectorINSt7__cxx1112basic_stringIcSt11char_traitsIcESaIcEEESaIS5_EE16_Temporary_value6_M_valEv
FNL:33,2144,2144
FNA:33,2,_ZNSt6vectorINSt7__cxx1112basic_stringIcSt11char_traitsIcESaIcEEESaIS5_EE16_Temporary_value6_M_ptrEv
FNL:34,2148,2148
FNA:34,1,_ZNSt6vectorINSt7__cxx1112basic_stringIcSt11char_traitsIcESaIcEEESaIS5_EE16_Temporary_value8_StorageC2Ev
FNL:35,2149,2149
FNA:35,1,_ZNSt6vectorINSt7__cxx1112basic_stringIcSt11char_traitsIcESaIcEEESaIS5_EE16_Temporary_value8_StorageD2Ev
FNL:36,2197,2204
FNA:36,43,_ZNKSt6vectorIN8nlohmann16json_abi_v3_11_310basic_jsonISt3mapS_NSt7__cxx1112basic_stringIcSt11char_traitsIcESaIcEEEblmdSaNS1_14adl_serializerES_IhSaIhEEvEESaISD_EE12_M_check_lenEmPKc
FNA:36,12,_ZNKSt6vectorINSt7__cxx1112basic_stringIcSt11char_traitsIcESaIcEEESaIS5_EE12_M_check_lenEmPKc
FNA:36,16,_ZNKSt6vectorINSt7__cxx114listI8HashNodeSaIS2_EEESaIS4_EE12_M_check_lenEmPKc
FNA:36,4,_ZNKSt6vectorIPN8nlohmann16json_abi_v3_11_310basic_jsonISt3mapS_NSt7__cxx1112basic_stringIcSt11char_traitsIcESaIcEEEblmdSaNS1_14adl_serializerES_IhSaIhEEvEESaISE_EE12_M_check_lenEmPKc
FNA:36,10,_ZNKSt6vectorIcSaIcEE12_M_check_lenEmPKc
FNL:37,2208,2214
FNA:37,44,_ZNSt6vectorIN8nlohmann16json_abi_v3_11_310basic_jsonISt3mapS_NSt7__cxx1112basic_stringIcSt11char_traitsIcESaIcEEEblmdSaNS1_14adl_serializerES_IhSaIhEEvEESaISD_EE17_S_check_init_lenEmRKSE_
FNA:37,1,_ZNSt6vectorINSt7__cxx1112basic_stringIcSt11char_traitsIcESaIcEEESaIS5_EE17_S_check_init_lenEmRKS6_
FNL:38,2217,2226
FNA:38,278,_ZNSt6vectorIN8nlohmann16json_abi_v3_11_310basic_jsonISt3mapS_NSt7__cxx1112basic_stringIcSt11char_traitsIcESaIcEEEblmdSaNS1_14adl_serializerES_IhSaIhEEvEESaISD_EE11_S_max_sizeERKSE_
FNA:38,43,_ZNSt6vectorINSt7__cxx1112basic_stringIcSt11char_traitsIcESaIcEEESaIS5_EE11_S_max_sizeERKS6_
FNA:38,76,_ZNSt6vectorINSt7__cxx114listI8HashNodeSaIS2_EEESaIS4_EE11_S_max_sizeERKS5_
FNA:38,8,_ZNSt6vectorIPN8nlohmann16json_abi_v3_11_310basic_jsonISt3mapS_NSt7__cxx1112basic_stringIcSt11char_traitsIcESaIcEEEblmdSaNS1_14adl_serializerES_IhSaIhEEvEESaISE_EE11_S_max_sizeERKSF_
FNA:38,20,_ZNSt6vectorIcSaIcEE11_S_max_sizeERKS0_
FNL:39,2234,2243
FNA:39,78,_ZNSt6vectorIN8nlohmann16json_abi_v3_11_310basic_jsonISt3mapS_NSt7__cxx1112basic_stringIcSt11char_traitsIcESaIcEEEblmdSaNS1_14adl_serializerES_IhSaIhEEvEESaISD_EE15_M_erase_at_endEPSD_
FNA:39,3,_ZNSt6vectorINSt7__cxx1112basic_stringIcSt11char_traitsIcESaIcEEESaIS5_EE15_M_erase_at_endEPS5_
FNA:39,6,_ZNSt6vectorINSt7__cxx114listI8HashNodeSaIS2_EEESaIS4_EE15_M_erase_at_endEPS4_
FNA:39,9,_ZNSt6vectorIcSaIcEE15_M_erase_at_endEPc
FNL:40,2260,2266
FNA:40,4,_ZNSt6vectorINSt7__cxx1112basic_stringIcSt11char_traitsIcESaIcEEESaIS5_EE14_M_move_assignEOS7_St17integral_constantIbLb1EE
FNL:41,307,308
FNA:41,515,_ZNSt12_Vector_baseIN8nlohmann16json_abi_v3_11_310basic_jsonISt3mapSt6vectorNSt7__cxx1112basic_stringIcSt11char_traitsIcESaIcEEEblmdSaNS1_14adl_serializerES4_IhSaIhEEvEESaISE_EE19_M_get_Tp_allocatorEv
FNA:41,90,_ZNSt12_Vector_baseINSt7__cxx1112basic_stringIcSt11char_traitsIcESaIcEEESaIS5_EE19_M_get_Tp_allocatorEv
FNA:41,60,_ZNSt12_Vector_baseINSt7__cxx114listI8HashNodeSaIS2_EEESaIS4_EE19_M_get_Tp_allocatorEv
FNA:41,6,_ZNSt12_Vector_baseIPN8nlohmann16json_abi_v3_11_310basic_jsonISt3mapSt6vectorNSt7__cxx1112basic_stringIcSt11char_traitsIcESaIcEEEblmdSaNS1_14adl_serializerES4_IhSaIhEEvEESaISF_EE19_M_get_Tp_allocatorEv
FNA:41,21,_ZNSt12_Vector_baseIcSaIcEE19_M_get_Tp_allocatorEv
FNA:41,0,_ZNSt12_Vector_baseIhSaIhEE19_M_get_Tp_allocatorEv
FNL:42,312,313
FNA:42,308,_ZNKSt12_Vector_baseIN8nlohmann16json_abi_v3_11_310basic_jsonISt3mapSt6vectorNSt7__cxx1112basic_stringIcSt11char_traitsIcESaIcEEEblmdSaNS1_14adl_serializerES4_IhSaIhEEvEESaISE_EE19_M_get_Tp_allocatorEv
FNA:42,46,_ZNKSt12_Vector_baseINSt7__cxx1112basic_stringIcSt11char_traitsIcESaIcEEESaIS5_EE19_M_get_Tp_allocatorEv
FNA:42,76,_ZNKSt12_Vector_baseINSt7__cxx114listI8HashNodeSaIS2_EEESaIS4_EE19_M_get_Tp_allocatorEv
FNA:42,8,_ZNKSt12_Vector_baseIPN8nlohmann16json_abi_v3_11_310basic_jsonISt3mapSt6vectorNSt7__cxx1112basic_stringIcSt11char_traitsIcESaIcEEEblmdSaNS1_14adl_serializerES4_IhSaIhEEvEESaISF_EE19_M_get_Tp_allocatorEv
FNA:42,20,_ZNKSt12_Vector_baseIcSaIcEE19_M_get_Tp_allocatorEv
FNA:42,0,_ZNKSt12_Vector_baseIhSaIhEE19_M_get_Tp_allocatorEv
FNL:43,317,318
FNA:43,4,_ZNKSt12_Vector_baseINSt7__cxx1112basic_stringIcSt11char_traitsIcESaIcEEESaIS5_EE13get_allocatorEv
FNL:44,321,321
FNA:44,150,_ZNSt12_Vector_baseIN8nlohmann16json_abi_v3_11_310basic_jsonISt3mapSt6vectorNSt7__cxx1112basic_stringIcSt11char_traitsIcESaIcEEEblmdSaNS1_14adl_serializerES4_IhSaIhEEvEESaISE_EEC2Ev
FNA:44,27,_ZNSt12_Vector_baseINSt7__cxx1112basic_stringIcSt11char_traitsIcESaIcEEESaIS5_EEC2Ev
FNA:44,16,_ZNSt12_Vector_baseINSt7__cxx114listI8HashNodeSaIS2_EEESaIS4_EEC2Ev
FNA:44,2,_ZNSt12_Vector_baseIPN8nlohmann16json_abi_v3_11_310basic_jsonISt3mapSt6vectorNSt7__cxx1112basic_stringIcSt11char_traitsIcESaIcEEEblmdSaNS1_14adl_serializerES4_IhSaIhEEvEESaISF_EEC2Ev
FNA:44,2,_ZNSt12_Vector_baseIcSaIcEEC2Ev
FNA:44,0,_ZNSt12_Vector_baseIhSaIhEEC2Ev
FNL:45,327,328
FNA:45,44,_ZNSt12_Vector_baseIN8nlohmann16json_abi_v3_11_310basic_jsonISt3mapSt6vectorNSt7__cxx1112basic_stringIcSt11char_traitsIcESaIcEEEblmdSaNS1_14adl_serializerES4_IhSaIhEEvEESaISE_EEC2ERKSF_
FNA:45,5,_ZNSt12_Vector_baseINSt7__cxx1112basic_stringIcSt11char_traitsIcESaIcEEESaIS5_EEC2ERKS6_
FNL:46,339,341
FNA:46,74,_ZNSt12_Vector_baseIN8nlohmann16json_abi_v3_11_310basic_jsonISt3mapSt6vectorNSt7__cxx1112basic_stringIcSt11char_traitsIcESaIcEEEblmdSaNS1_14adl_serializerES4_IhSaIhEEvEESaISE_EEC2EmRKSF_
FNA:46,0,_ZNSt12_Vector_baseIhSaIhEEC2EmRKS0_
FNL:47,373,377
FNA:47,268,_ZNSt12_Vector_baseIN8nlohmann16json_abi_v3_11_310basic_jsonISt3mapSt6vectorNSt7__cxx1112basic_stringIcSt11char_traitsIcESaIcEEEblmdSaNS1_14adl_serializerES4_IhSaIhEEvEESaISE_EED2Ev
FNA:47,50,_ZNSt12_Vector_baseINSt7__cxx1112basic_stringIcSt11char_traitsIcESaIcEEESaIS5_EED2Ev
FNA:47,16,_ZNSt12_Vector_baseINSt7__cxx114listI8HashNodeSaIS2_EEESaIS4_EED2Ev
FNA:47,2,_ZNSt12_Vector_baseIPN8nlohmann16json_abi_v3_11_310basic_jsonISt3mapSt6vectorNSt7__cxx1112basic_stringIcSt11char_traitsIcESaIcEEEblmdSaNS1_14adl_serializerES4_IhSaIhEEvEESaISF_EED2Ev
FNA:47,2,_ZNSt12_Vector_baseIcSaIcEED2Ev
FNA:47,0,_ZNSt12_Vector_baseIhSaIhEED2Ev
FNL:48,384,388
FNA:48,189,_ZNSt12_Vector_baseIN8nlohmann16json_abi_v3_11_310basic_jsonISt3mapSt6vectorNSt7__cxx1112basic_stringIcSt11char_traitsIcESaIcEEEblmdSaNS1_14adl_serializerES4_IhSaIhEEvEESaISE_EE11_M_allocateEm
FNA:48,30,_ZNSt12_Vector_baseINSt7__cxx1112basic_stringIcSt11char_traitsIcESaIcEEESaIS5_EE11_M_allocateEm
FNA:48,16,_ZNSt12_Vector_baseINSt7__cxx114listI8HashNodeSaIS2_EEESaIS4_EE11_M_allocateEm
FNA:48,4,_ZNSt12_Vector_baseIPN8nlohmann16json_abi_v3_11_310basic_jsonISt3mapSt6vectorNSt7__cxx1112basic_stringIcSt11char_traitsIcESaIcEEEblmdSaNS1_14adl_serializerES4_IhSaIhEEvEESaISF_EE11_M_allocateEm
FNA:48,10,_ZNSt12_Vector_baseIcSaIcEE11_M_allocateEm
FNA:48,0,_ZNSt12_Vector_baseIhSaIhEE11_M_allocateEm
FNL:49,392,397
FNA:49,329,_ZNSt12_Vector_baseIN8nlohmann16json_abi_v3_11_310basic_jsonISt3mapSt6vectorNSt7__cxx1112basic_stringIcSt11char_traitsIcESaIcEEEblmdSaNS1_14adl_serializerES4_IhSaIhEEvEESaISE_EE13_M_deallocateEPSE_m
FNA:49,75,_ZNSt12_Vector_baseINSt7__cxx1112basic_stringIcSt11char_traitsIcESaIcEEESaIS5_EE13_M_deallocateEPS5_m
FNA:49,16,_ZNSt12_Vector_baseINSt7__cxx114listI8HashNodeSaIS2_EEESaIS4_EE13_M_deallocateEPS4_m
FNA:49,4,_ZNSt12_Vector_baseIPN8nlohmann16json_abi_v3_11_310basic_jsonISt3mapSt6vectorNSt7__cxx1112basic_stringIcSt11char_traitsIcESaIcEEEblmdSaNS1_14adl_serializerES4_IhSaIhEEvEESaISF_EE13_M_deallocateEPSF_m
FNA:49,10,_ZNSt12_Vector_baseIcSaIcEE13_M_deallocateEPcm
FNA:49,0,_ZNSt12_Vector_baseIhSaIhEE13_M_deallocateEPhm
FNL:50,403,408
FNA:50,74,_ZNSt12_Vector_baseIN8nlohmann16json_abi_v3_11_310basic_jsonISt3mapSt6vectorNSt7__cxx1112basic_stringIcSt11char_traitsIcESaIcEEEblmdSaNS1_14adl_serializerES4_IhSaIhEEvEESaISE_EE17_M_create_storageEm
FNA:50,0,_ZNSt12_Vector_baseIhSaIhEE17_M_create_storageEm
FNL:51,534,544
FNA:51,71,_ZNSt6vectorIN8nlohmann16json_abi_v3_11_310basic_jsonISt3mapS_NSt7__cxx1112basic_stringIcSt11char_traitsIcESaIcEEEblmdSaNS1_14adl_serializerES_IhSaIhEEvEESaISD_EE11_S_relocateEPSD_SG_SG_RSE_
FNA:51,30,_ZNSt6vectorINSt7__cxx1112basic_stringIcSt11char_traitsIcESaIcEEESaIS5_EE11_S_relocateEPS5_S8_S8_RS6_
FNA:51,16,_ZNSt6vectorINSt7__cxx114listI8HashNodeSaIS2_EEESaIS4_EE11_S_relocateEPS4_S7_S7_RS5_
FNA:51,4,_ZNSt6vectorIPN8nlohmann16json_abi_v3_11_310basic_jsonISt3mapS_NSt7__cxx1112basic_stringIcSt11char_traitsIcESaIcEEEblmdSaNS1_14adl_serializerES_IhSaIhEEvEESaISE_EE11_S_relocateEPSE_SH_SH_RSF_
FNA:51,10,_ZNSt6vectorIcSaIcEE11_S_relocateEPcS2_S2_RS0_
FNL:52,561,561
FNA:52,150,_ZNSt6vectorIN8nlohmann16json_abi_v3_11_310basic_jsonISt3mapS_NSt7__cxx1112basic_stringIcSt11char_traitsIcESaIcEEEblmdSaNS1_14adl_serializerES_IhSaIhEEvEESaISD_EEC2Ev
FNA:52,27,_ZNSt6vectorINSt7__cxx1112basic_stringIcSt11char_traitsIcESaIcEEESaIS5_EEC2Ev
FNA:52,16,_ZNSt6vectorINSt7__cxx114listI8HashNodeSaIS2_EEESaIS4_EEC2Ev
FNA:52,2,_ZNSt6vectorIPN8nlohmann16json_abi_v3_11_310basic_jsonISt3mapS_NSt7__cxx1112basic_stringIcSt11char_traitsIcESaIcEEEblmdSaNS1_14adl_serializerES_IhSaIhEEvEESaISE_EEC2Ev
FNA:52,2,_ZNSt6vectorIcSaIcEEC2Ev
FNA:52,0,_ZNSt6vectorIhSaIhEEC2Ev
FNL:53,572,573
FNA:53,4,_ZNSt6vectorINSt7__cxx1112basic_stringIcSt11char_traitsIcESaIcEEESaIS5_EEC2ERKS6_
FNL:54,631,639
FNA:54,74,_ZNSt6vectorIN8nlohmann16json_abi_v3_11_310basic_jsonISt3mapS_NSt7__cxx1112basic_stringIcSt11char_traitsIcESaIcEEEblmdSaNS1_14adl_serializerES_IhSaIhEEvEESaISD_EEC2ERKSF_
FNA:54,0,_ZNSt6vectorIhSaIhEEC2ERKS1_
FNL:55,736,753
FNA:55,2,_ZNSt6vectorIN8nlohmann16json_abi_v3_11_310basic_jsonISt3mapS_NSt7__cxx1112basic_stringIcSt11char_traitsIcESaIcEEEblmdSaNS1_14adl_serializerES_IhSaIhEEvEESaISD_EEC2IN9__gnu_cxx17__normal_iteratorIPKS9_S_IS9_SaIS9_EEEEvEET_SO_RKSE_
FNA:55,42,_ZNSt6vectorIN8nlohmann16json_abi_v3_11_310basic_jsonISt3mapS_NSt7__cxx1112basic_stringIcSt11char_traitsIcESaIcEEEblmdSaNS1_14adl_serializerES_IhSaIhEEvEESaISD_EEC2IPKNS1_6detail8json_refISD_EEvEET_SM_RKSE_
FNA:55,1,_ZNSt6vectorINSt7__cxx1112basic_stringIcSt11char_traitsIcESaIcEEESaIS5_EEC2IPKPKcvEET_SD_RKS6_
FNL:56,800,805
FNA:56,268,_ZNSt6vectorIN8nlohmann16json_abi_v3_11_310basic_jsonISt3mapS_NSt7__cxx1112basic_stringIcSt11char_traitsIcESaIcEEEblmdSaNS1_14adl_serializerES_IhSaIhEEvEESaISD_EED2Ev
FNA:56,50,_ZNSt6vectorINSt7__cxx1112basic_stringIcSt11char_traitsIcESaIcEEESaIS5_EED2Ev
FNA:56,16,_ZNSt6vectorINSt7__cxx114listI8HashNodeSaIS2_EEESaIS4_EED2Ev
FNA:56,2,_ZNSt6vectorIPN8nlohmann16json_abi_v3_11_310basic_jsonISt3mapS_NSt7__cxx1112basic_stringIcSt11char_traitsIcESaIcEEEblmdSaNS1_14adl_serializerES_IhSaIhEEvEESaISE_EED2Ev
FNA:56,2,_ZNSt6vectorIcSaIcEED2Ev
FNA:56,0,_ZNSt6vectorIhSaIhEED2Ev
FNL:57,833,840
FNA:57,4,_ZNSt6vectorINSt7__cxx1112basic_stringIcSt11char_traitsIcESaIcEEESaIS5_EEaSEOS7_
FNL:58,998,999
FNA:58,289,_ZNSt6vectorIN8nlohmann16json_abi_v3_11_310basic_jsonISt3mapS_NSt7__cxx1112basic_stringIcSt11char_traitsIcESaIcEEEblmdSaNS1_14adl_serializerES_IhSaIhEEvEESaISD_EE5beginEv
FNA:58,70,_ZNSt6vectorINSt7__cxx1112basic_stringIcSt11char_traitsIcESaIcEEESaIS5_EE5beginEv
FNA:58,4,_ZNSt6vectorIPN8nlohmann16json_abi_v3_11_310basic_jsonISt3mapS_NSt7__cxx1112basic_stringIcSt11char_traitsIcESaIcEEEblmdSaNS1_14adl_serializerES_IhSaIhEEvEESaISE_EE5beginEv
FNA:58,10,_ZNSt6vectorIcSaIcEE5beginEv
FNF:59
FNH:59
DA:105,328
DA:106,328
DA:107,328
DA:119,24
DA:121,24
DA:122,24
DA:123,24
DA:124,24
DA:128,8
DA:132,8
DA:133,8
DA:134,8
DA:135,8
DA:136,8
DA:143,197
DA:148,197
DA:149,197
DA:152,123
DA:153,123
DA:154,123
DA:307,692
DA:308,692
DA:312,458
DA:313,458
DA:317,4
DA:318,8
DA:321,197
DA:327,49
DA:328,49
DA:339,74
DA:340,74
DA:341,74
DA:373,338
DA:375,338
DA:376,338
DA:377,338
DA:384,249
DA:387,393
DA:392,434
DA:395,434
DA:396,159
DA:397,434
DA:403,74
DA:405,74
DA:406,74
DA:407,74
DA:408,74
DA:534,131
DA:539,131
DA:561,197
DA:572,4
DA:573,4
DA:631,74
DA:633,148
DA:635,74
DA:636,74
DA:637,74
DA:638,74
DA:639,74
DA:736,45
DA:738,45
DA:751,45
DA:752,45
DA:753,45
DA:800,338
DA:802,338
DA:803,338
DA:805,338
DA:833,4
DA:835,4
DA:838,4
DA:839,4
DA:998,373
DA:999,373
DA:1008,1109
DA:1009,1109
DA:1018,873
DA:1019,873
DA:1028,1109
DA:1029,1109
DA:1038,7
DA:1039,7
DA:1058,18
DA:1059,18
DA:1079,6
DA:1080,6
DA:1089,5
DA:1090,5
DA:1117,921
DA:1119,921
DA:1120,921
DA:1121,0
DA:1122,921
DA:1128,380
DA:1129,380
DA:1143,22
DA:1145,22
DA:1146,22
DA:1147,0
DA:1148,0
DA:1149,22
DA:1208,213
DA:1210,213
DA:1211,213
DA:1212,213
DA:1213,0
DA:1214,213
DA:1223,1023
DA:1224,2046
DA:1261,117
DA:1263,117
DA:1264,117
DA:1280,47
DA:1282,47
DA:1283,47
DA:1368,519
DA:1370,519
DA:1371,1557
DA:1416,50
DA:1418,50
DA:1421,26
DA:1423,26
DA:1427,24
DA:1428,50
DA:1433,261
DA:1434,261
DA:1457,168
DA:1459,168
DA:1460,168
DA:1461,168
DA:1463,168
DA:1528,2
DA:1529,2
DA:1792,1
DA:1793,3
DA:1863,96
DA:1864,96
DA:1875,85
DA:1876,85
DA:1877,85
DA:1880,85
DA:1882,85
DA:1883,51
DA:1884,85
DA:1971,45
DA:1974,45
DA:1975,45
DA:1976,45
DA:1981,45
DA:1985,45
DA:1986,45
DA:1987,45
DA:1989,45
DA:1990,45
DA:1991,45
DA:2129,1
DA:2131,1
DA:2133,1
DA:2136,1
DA:2137,2
DA:2140,1
DA:2144,4
DA:2148,1
DA:2149,1
DA:2197,85
DA:2199,85
DA:2200,0
DA:2202,85
DA:2203,85
DA:2208,45
DA:2210,45
DA:2211,0
DA:2213,45
DA:2217,425
DA:2222,425
DA:2224,425
DA:2225,425
DA:2234,96
DA:2236,96
DA:2238,29
DA:2239,29
DA:2240,29
DA:2243,96
DA:2260,4
DA:2262,4
DA:2263,4
DA:2264,4
DA:2265,4
DA:2266,4
LF:189
LH:183
end_of_record
TN:
SF:/usr/include/c++/15/bits/unique_ptr.h
FNL:0,167,167
FNA:0,128,_ZNSt15__uniq_ptr_implINSt7__cxx1112basic_stringIcSt11char_traitsIcESaIcEEESt14default_deleteIS5_EEC2Ev
FNL:1,173,174
FNA:1,0,_ZNSt15__uniq_ptr_implIN8nlohmann16json_abi_v3_11_327byte_container_with_subtypeISt6vectorIhSaIhEEEEZNS1_10basic_jsonISt3mapS3_NSt7__cxx1112basic_stringIcSt11char_traitsIcESaIcEEEblmdSaNS1_14adl_serializerES5_vE6createIS6_JEEEPT_DpOT0_EUlPS6_E_EC2IRKSO_EESN_OSI_
FNA:1,0,_ZNSt15__uniq_ptr_implIN8nlohmann16json_abi_v3_11_327byte_container_with_subtypeISt6vectorIhSaIhEEEEZNS1_10basic_jsonISt3mapS3_NSt7__cxx1112basic_stringIcSt11char_traitsIcESaIcEEEblmdSaNS1_14adl_serializerES5_vE6createIS6_JRKS6_EEEPT_DpOT0_EUlPS6_E_EC2IRKSQ_EESP_OSK_
FNA:1,0,_ZNSt15__uniq_ptr_implINSt7__cxx1112basic_stringIcSt11char_traitsIcESaIcEEEZN8nlohmann16json_abi_v3_11_310basic_jsonISt3mapSt6vectorS5_blmdSaNS7_14adl_serializerESA_IhSaIhEEvE6createIS5_JRA1_KcEEEPT_DpOT0_EUlPS5_E_EC2IRKSP_EESO_OSJ_
FNA:1,55,_ZNSt15__uniq_ptr_implINSt7__cxx1112basic_stringIcSt11char_traitsIcESaIcEEEZN8nlohmann16json_abi_v3_11_310basic_jsonISt3mapSt6vectorS5_blmdSaNS7_14adl_serializerESA_IhSaIhEEvE6createIS5_JRKS5_EEEPT_DpOT0_EUlPS5_E_EC2IRKSO_EESN_OSI_
FNA:1,19,_ZNSt15__uniq_ptr_implISt3mapINSt7__cxx1112basic_stringIcSt11char_traitsIcESaIcEEEN8nlohmann16json_abi_v3_11_310basic_jsonIS0_St6vectorS6_blmdSaNS8_14adl_serializerESA_IhSaIhEEvEESt4lessIvESaISt4pairIKS6_SE_EEEZNSE_6createISL_JEEEPT_DpOT0_EUlPSL_E_EC2IRKST_EESS_OSN_
FNA:1,9,_ZNSt15__uniq_ptr_implISt3mapINSt7__cxx1112basic_stringIcSt11char_traitsIcESaIcEEEN8nlohmann16json_abi_v3_11_310basic_jsonIS0_St6vectorS6_blmdSaNS8_14adl_serializerESA_IhSaIhEEvEESt4lessIvESaISt4pairIKS6_SE_EEEZNSE_6createISL_JRKSL_EEEPT_DpOT0_EUlPSL_E_EC2IRKSV_EESU_OSP_
FNA:1,2,_ZNSt15__uniq_ptr_implISt6vectorIN8nlohmann16json_abi_v3_11_310basic_jsonISt3mapS0_NSt7__cxx1112basic_stringIcSt11char_traitsIcESaIcEEEblmdSaNS2_14adl_serializerES0_IhSaIhEEvEESaISE_EEZNSE_6createISG_JEEEPT_DpOT0_EUlPSG_E_EC2IRKSO_EESN_OSI_
FNA:1,2,_ZNSt15__uniq_ptr_implISt6vectorIN8nlohmann16json_abi_v3_11_310basic_jsonISt3mapS0_NSt7__cxx1112basic_stringIcSt11char_traitsIcESaIcEEEblmdSaNS2_14adl_serializerES0_IhSaIhEEvEESaISE_EEZNSE_6createISG_JN9__gnu_cxx17__normal_iteratorIPKSA_S0_ISA_SaISA_EEEESO_EEEPT_DpOT0_EUlPSG_E_EC2IRKSV_EESU_OSP_
FNA:1,42,_ZNSt15__uniq_ptr_implISt6vectorIN8nlohmann16json_abi_v3_11_310basic_jsonISt3mapS0_NSt7__cxx1112basic_stringIcSt11char_traitsIcESaIcEEEblmdSaNS2_14adl_serializerES0_IhSaIhEEvEESaISE_EEZNSE_6createISG_JPKNS2_6detail8json_refISE_EESM_EEEPT_DpOT0_EUlPSG_E_EC2IRKST_EESS_OSN_
FNA:1,74,_ZNSt15__uniq_ptr_implISt6vectorIN8nlohmann16json_abi_v3_11_310basic_jsonISt3mapS0_NSt7__cxx1112basic_stringIcSt11char_traitsIcESaIcEEEblmdSaNS2_14adl_serializerES0_IhSaIhEEvEESaISE_EEZNSE_6createISG_JRKSG_EEEPT_DpOT0_EUlPSG_E_EC2IRKSQ_EESP_OSK_
FNL:2,190,190
FNA:2,0,_ZNSt15__uniq_ptr_implIN8nlohmann16json_abi_v3_11_327byte_container_with_subtypeISt6vectorIhSaIhEEEEZNS1_10basic_jsonISt3mapS3_NSt7__cxx1112basic_stringIcSt11char_traitsIcESaIcEEEblmdSaNS1_14adl_serializerES5_vE6createIS6_JEEEPT_DpOT0_EUlPS6_E_E6_M_ptrEv
FNA:2,0,_ZNSt15__uniq_ptr_implIN8nlohmann16json_abi_v3_11_327byte_container_with_subtypeISt6vectorIhSaIhEEEEZNS1_10basic_jsonISt3mapS3_NSt7__cxx1112basic_stringIcSt11char_traitsIcESaIcEEEblmdSaNS1_14adl_serializerES5_vE6createIS6_JRKS6_EEEPT_DpOT0_EUlPS6_E_E6_M_ptrEv
FNA:2,273,_ZNSt15__uniq_ptr_implINSt7__cxx1112basic_stringIcSt11char_traitsIcESaIcEEESt14default_deleteIS5_EE6_M_ptrEv
FNA:2,0,_ZNSt15__uniq_ptr_implINSt7__cxx1112basic_stringIcSt11char_traitsIcESaIcEEEZN8nlohmann16json_abi_v3_11_310basic_jsonISt3mapSt6vectorS5_blmdSaNS7_14adl_serializerESA_IhSaIhEEvE6createIS5_JRA1_KcEEEPT_DpOT0_EUlPS5_E_E6_M_ptrEv
FNA:2,165,_ZNSt15__uniq_ptr_implINSt7__cxx1112basic_stringIcSt11char_traitsIcESaIcEEEZN8nlohmann16json_abi_v3_11_310basic_jsonISt3mapSt6vectorS5_blmdSaNS7_14adl_serializerESA_IhSaIhEEvE6createIS5_JRKS5_EEEPT_DpOT0_EUlPS5_E_E6_M_ptrEv
FNA:2,5,_ZNSt15__uniq_ptr_implINSt7__cxx1118basic_stringstreamIcSt11char_traitsIcESaIcEEESt14default_deleteIS5_EE6_M_ptrEv
FNA:2,57,_ZNSt15__uniq_ptr_implISt3mapINSt7__cxx1112basic_stringIcSt11char_traitsIcESaIcEEEN8nlohmann16json_abi_v3_11_310basic_jsonIS0_St6vectorS6_blmdSaNS8_14adl_serializerESA_IhSaIhEEvEESt4lessIvESaISt4pairIKS6_SE_EEEZNSE_6createISL_JEEEPT_DpOT0_EUlPSL_E_E6_M_ptrEv
FNA:2,27,_ZNSt15__uniq_ptr_implISt3mapINSt7__cxx1112basic_stringIcSt11char_traitsIcESaIcEEEN8nlohmann16json_abi_v3_11_310basic_jsonIS0_St6vectorS6_blmdSaNS8_14adl_serializerESA_IhSaIhEEvEESt4lessIvESaISt4pairIKS6_SE_EEEZNSE_6createISL_JRKSL_EEEPT_DpOT0_EUlPSL_E_E6_M_ptrEv
FNA:2,6,_ZNSt15__uniq_ptr_implISt6vectorIN8nlohmann16json_abi_v3_11_310basic_jsonISt3mapS0_NSt7__cxx1112basic_stringIcSt11char_traitsIcESaIcEEEblmdSaNS2_14adl_serializerES0_IhSaIhEEvEESaISE_EEZNSE_6createISG_JEEEPT_DpOT0_EUlPSG_E_E6_M_ptrEv
FNA:2,6,_ZNSt15__uniq_ptr_implISt6vectorIN8nlohmann16json_abi_v3_11_310basic_jsonISt3mapS0_NSt7__cxx1112basic_stringIcSt11char_traitsIcESaIcEEEblmdSaNS2_14adl_serializerES0_IhSaIhEEvEESaISE_EEZNSE_6createISG_JN9__gnu_cxx17__normal_iteratorIPKSA_S0_ISA_SaISA_EEEESO_EEEPT_DpOT0_EUlPSG_E_E6_M_ptrEv
FNA:2,126,_ZNSt15__uniq_ptr_implISt6vectorIN8nlohmann16json_abi_v3_11_310basic_jsonISt3mapS0_NSt7__cxx1112basic_stringIcSt11char_traitsIcESaIcEEEblmdSaNS2_14adl_serializerES0_IhSaIhEEvEESaISE_EEZNSE_6createISG_JPKNS2_6detail8json_refISE_EESM_EEEPT_DpOT0_EUlPSG_E_E6_M_ptrEv
FNA:2,222,_ZNSt15__uniq_ptr_implISt6vectorIN8nlohmann16json_abi_v3_11_310basic_jsonISt3mapS0_NSt7__cxx1112basic_stringIcSt11char_traitsIcESaIcEEEblmdSaNS2_14adl_serializerES0_IhSaIhEEvEESaISE_EEZNSE_6createISG_JRKSG_EEEPT_DpOT0_EUlPSG_E_E6_M_ptrEv
FNL:3,192,192
FNA:3,0,_ZNKSt15__uniq_ptr_implIN8nlohmann16json_abi_v3_11_327byte_container_with_subtypeISt6vectorIhSaIhEEEEZNS1_10basic_jsonISt3mapS3_NSt7__cxx1112basic_stringIcSt11char_traitsIcESaIcEEEblmdSaNS1_14adl_serializerES5_vE6createIS6_JEEEPT_DpOT0_EUlPS6_E_E6_M_ptrEv
FNA:3,0,_ZNKSt15__uniq_ptr_implIN8nlohmann16json_abi_v3_11_327byte_container_with_subtypeISt6vectorIhSaIhEEEEZNS1_10basic_jsonISt3mapS3_NSt7__cxx1112basic_stringIcSt11char_traitsIcESaIcEEEblmdSaNS1_14adl_serializerES5_vE6createIS6_JRKS6_EEEPT_DpOT0_EUlPS6_E_E6_M_ptrEv
FNA:3,0,_ZNKSt15__uniq_ptr_implINSt7__cxx1112basic_stringIcSt11char_traitsIcESaIcEEESt14default_deleteIS5_EE6_M_ptrEv
FNA:3,0,_ZNKSt15__uniq_ptr_implINSt7__cxx1112basic_stringIcSt11char_traitsIcESaIcEEEZN8nlohmann16json_abi_v3_11_310basic_jsonISt3mapSt6vectorS5_blmdSaNS7_14adl_serializerESA_IhSaIhEEvE6createIS5_JRA1_KcEEEPT_DpOT0_EUlPS5_E_E6_M_ptrEv
FNA:3,110,_ZNKSt15__uniq_ptr_implINSt7__cxx1112basic_stringIcSt11char_traitsIcESaIcEEEZN8nlohmann16json_abi_v3_11_310basic_jsonISt3mapSt6vectorS5_blmdSaNS7_14adl_serializerESA_IhSaIhEEvE6createIS5_JRKS5_EEEPT_DpOT0_EUlPS5_E_E6_M_ptrEv
FNA:3,38,_ZNKSt15__uniq_ptr_implISt3mapINSt7__cxx1112basic_stringIcSt11char_traitsIcESaIcEEEN8nlohmann16json_abi_v3_11_310basic_jsonIS0_St6vectorS6_blmdSaNS8_14adl_serializerESA_IhSaIhEEvEESt4lessIvESaISt4pairIKS6_SE_EEEZNSE_6createISL_JEEEPT_DpOT0_EUlPSL_E_E6_M_ptrEv
FNA:3,18,_ZNKSt15__uniq_ptr_implISt3mapINSt7__cxx1112basic_stringIcSt11char_traitsIcESaIcEEEN8nlohmann16json_abi_v3_11_310basic_jsonIS0_St6vectorS6_blmdSaNS8_14adl_serializerESA_IhSaIhEEvEESt4lessIvESaISt4pairIKS6_SE_EEEZNSE_6createISL_JRKSL_EEEPT_DpOT0_EUlPSL_E_E6_M_ptrEv
FNA:3,4,_ZNKSt15__uniq_ptr_implISt6vectorIN8nlohmann16json_abi_v3_11_310basic_jsonISt3mapS0_NSt7__cxx1112basic_stringIcSt11char_traitsIcESaIcEEEblmdSaNS2_14adl_serializerES0_IhSaIhEEvEESaISE_EEZNSE_6createISG_JEEEPT_DpOT0_EUlPSG_E_E6_M_ptrEv
FNA:3,4,_ZNKSt15__uniq_ptr_implISt6vectorIN8nlohmann16json_abi_v3_11_310basic_jsonISt3mapS0_NSt7__cxx1112basic_stringIcSt11char_traitsIcESaIcEEEblmdSaNS2_14adl_serializerES0_IhSaIhEEvEESaISE_EEZNSE_6createISG_JN9__gnu_cxx17__normal_iteratorIPKSA_S0_ISA_SaISA_EEEESO_EEEPT_DpOT0_EUlPSG_E_E6_M_ptrEv
FNA:3,84,_ZNKSt15__uniq_ptr_implISt6vectorIN8nlohmann16json_abi_v3_11_310basic_jsonISt3mapS0_NSt7__cxx1112basic_stringIcSt11char_traitsIcESaIcEEEblmdSaNS2_14adl_serializerES0_IhSaIhEEvEESaISE_EEZNSE_6createISG_JPKNS2_6detail8json_refISE_EESM_EEEPT_DpOT0_EUlPSG_E_E6_M_ptrEv
FNA:3,148,_ZNKSt15__uniq_ptr_implISt6vectorIN8nlohmann16json_abi_v3_11_310basic_jsonISt3mapS0_NSt7__cxx1112basic_stringIcSt11char_traitsIcESaIcEEEblmdSaNS2_14adl_serializerES0_IhSaIhEEvEESaISE_EEZNSE_6createISG_JRKSG_EEEPT_DpOT0_EUlPSG_E_E6_M_ptrEv
FNL:4,194,194
FNA:4,0,_ZNSt15__uniq_ptr_implIN8nlohmann16json_abi_v3_11_327byte_container_with_subtypeISt6vectorIhSaIhEEEEZNS1_10basic_jsonISt3mapS3_NSt7__cxx1112basic_stringIcSt11char_traitsIcESaIcEEEblmdSaNS1_14adl_serializerES5_vE6createIS6_JEEEPT_DpOT0_EUlPS6_E_E10_M_deleterEv
FNA:4,0,_ZNSt15__uniq_ptr_implIN8nlohmann16json_abi_v3_11_327byte_container_with_subtypeISt6vectorIhSaIhEEEEZNS1_10basic_jsonISt3mapS3_NSt7__cxx1112basic_stringIcSt11char_traitsIcESaIcEEEblmdSaNS1_14adl_serializerES5_vE6createIS6_JRKS6_EEEPT_DpOT0_EUlPS6_E_E10_M_deleterEv
FNA:4,0,_ZNSt15__uniq_ptr_implINSt7__cxx1112basic_stringIcSt11char_traitsIcESaIcEEESt14default_deleteIS5_EE10_M_deleterEv
FNA:4,0,_ZNSt15__uniq_ptr_implINSt7__cxx1112basic_stringIcSt11char_traitsIcESaIcEEEZN8nlohmann16json_abi_v3_11_310basic_jsonISt3mapSt6vectorS5_blmdSaNS7_14adl_serializerESA_IhSaIhEEvE6createIS5_JRA1_KcEEEPT_DpOT0_EUlPS5_E_E10_M_deleterEv
FNA:4,0,_ZNSt15__uniq_ptr_implINSt7__cxx1112basic_stringIcSt11char_traitsIcESaIcEEEZN8nlohmann16json_abi_v3_11_310basic_jsonISt3mapSt6vectorS5_blmdSaNS7_14adl_serializerESA_IhSaIhEEvE6createIS5_JRKS5_EEEPT_DpOT0_EUlPS5_E_E10_M_deleterEv
FNA:4,5,_ZNSt15__uniq_ptr_implINSt7__cxx1118basic_stringstreamIcSt11char_traitsIcESaIcEEESt14default_deleteIS5_EE10_M_deleterEv
FNA:4,0,_ZNSt15__uniq_ptr_implISt3mapINSt7__cxx1112basic_stringIcSt11char_traitsIcESaIcEEEN8nlohmann16json_abi_v3_11_310basic_jsonIS0_St6vectorS6_blmdSaNS8_14adl_serializerESA_IhSaIhEEvEESt4lessIvESaISt4pairIKS6_SE_EEEZNSE_6createISL_JEEEPT_DpOT0_EUlPSL_E_E10_M_deleterEv
FNA:4,0,_ZNSt15__uniq_ptr_implISt3mapINSt7__cxx1112basic_stringIcSt11char_traitsIcESaIcEEEN8nlohmann16json_abi_v3_11_310basic_jsonIS0_St6vectorS6_blmdSaNS8_14adl_serializerESA_IhSaIhEEvEESt4lessIvESaISt4pairIKS6_SE_EEEZNSE_6createISL_JRKSL_EEEPT_DpOT0_EUlPSL_E_E10_M_deleterEv
FNA:4,0,_ZNSt15__uniq_ptr_implISt6vectorIN8nlohmann16json_abi_v3_11_310basic_jsonISt3mapS0_NSt7__cxx1112basic_stringIcSt11char_traitsIcESaIcEEEblmdSaNS2_14adl_serializerES0_IhSaIhEEvEESaISE_EEZNSE_6createISG_JEEEPT_DpOT0_EUlPSG_E_E10_M_deleterEv
FNA:4,0,_ZNSt15__uniq_ptr_implISt6vectorIN8nlohmann16json_abi_v3_11_310basic_jsonISt3mapS0_NSt7__cxx1112basic_stringIcSt11char_traitsIcESaIcEEEblmdSaNS2_14adl_serializerES0_IhSaIhEEvEESaISE_EEZNSE_6createISG_JN9__gnu_cxx17__normal_iteratorIPKSA_S0_ISA_SaISA_EEEESO_EEEPT_DpOT0_EUlPSG_E_E10_M_deleterEv
FNA:4,0,_ZNSt15__uniq_ptr_implISt6vectorIN8nlohmann16json_abi_v3_11_310basic_jsonISt3mapS0_NSt7__cxx1112basic_stringIcSt11char_traitsIcESaIcEEEblmdSaNS2_14adl_serializerES0_IhSaIhEEvEESaISE_EEZNSE_6createISG_JPKNS2_6detail8json_refISE_EESM_EEEPT_DpOT0_EUlPSG_E_E10_M_deleterEv
FNA:4,0,_ZNSt15__uniq_ptr_implISt6vectorIN8nlohmann16json_abi_v3_11_310basic_jsonISt3mapS0_NSt7__cxx1112basic_stringIcSt11char_traitsIcESaIcEEEblmdSaNS2_14adl_serializerES0_IhSaIhEEvEESaISE_EEZNSE_6createISG_JRKSG_EEEPT_DpOT0_EUlPSG_E_E10_M_deleterEv
FNL:5,208,213
FNA:5,0,_ZNSt15__uniq_ptr_implIN8nlohmann16json_abi_v3_11_327byte_container_with_subtypeISt6vectorIhSaIhEEEEZNS1_10basic_jsonISt3mapS3_NSt7__cxx1112basic_stringIcSt11char_traitsIcESaIcEEEblmdSaNS1_14adl_serializerES5_vE6createIS6_JEEEPT_DpOT0_EUlPS6_E_E7releaseEv
FNA:5,0,_ZNSt15__uniq_ptr_implIN8nlohmann16json_abi_v3_11_327byte_container_with_subtypeISt6vectorIhSaIhEEEEZNS1_10basic_jsonISt3mapS3_NSt7__cxx1112basic_stringIcSt11char_traitsIcESaIcEEEblmdSaNS1_14adl_serializerES5_vE6createIS6_JRKS6_EEEPT_DpOT0_EUlPS6_E_E7releaseEv
FNA:5,0,_ZNSt15__uniq_ptr_implINSt7__cxx1112basic_stringIcSt11char_traitsIcESaIcEEEZN8nlohmann16json_abi_v3_11_310basic_jsonISt3mapSt6vectorS5_blmdSaNS7_14adl_serializerESA_IhSaIhEEvE6createIS5_JRA1_KcEEEPT_DpOT0_EUlPS5_E_E7releaseEv
FNA:5,55,_ZNSt15__uniq_ptr_implINSt7__cxx1112basic_stringIcSt11char_traitsIcESaIcEEEZN8nlohmann16json_abi_v3_11_310basic_jsonISt3mapSt6vectorS5_blmdSaNS7_14adl_serializerESA_IhSaIhEEvE6createIS5_JRKS5_EEEPT_DpOT0_EUlPS5_E_E7releaseEv
FNA:5,19,_ZNSt15__uniq_ptr_implISt3mapINSt7__cxx1112basic_stringIcSt11char_traitsIcESaIcEEEN8nlohmann16json_abi_v3_11_310basic_jsonIS0_St6vectorS6_blmdSaNS8_14adl_serializerESA_IhSaIhEEvEESt4lessIvESaISt4pairIKS6_SE_EEEZNSE_6createISL_JEEEPT_DpOT0_EUlPSL_E_E7releaseEv
FNA:5,9,_ZNSt15__uniq_ptr_implISt3mapINSt7__cxx1112basic_stringIcSt11char_traitsIcESaIcEEEN8nlohmann16json_abi_v3_11_310basic_jsonIS0_St6vectorS6_blmdSaNS8_14adl_serializerESA_IhSaIhEEvEESt4lessIvESaISt4pairIKS6_SE_EEEZNSE_6createISL_JRKSL_EEEPT_DpOT0_EUlPSL_E_E7releaseEv
FNA:5,2,_ZNSt15__uniq_ptr_implISt6vectorIN8nlohmann16json_abi_v3_11_310basic_jsonISt3mapS0_NSt7__cxx1112basic_stringIcSt11char_traitsIcESaIcEEEblmdSaNS2_14adl_serializerES0_IhSaIhEEvEESaISE_EEZNSE_6createISG_JEEEPT_DpOT0_EUlPSG_E_E7releaseEv
FNA:5,2,_ZNSt15__uniq_ptr_implISt6vectorIN8nlohmann16json_abi_v3_11_310basic_jsonISt3mapS0_NSt7__cxx1112basic_stringIcSt11char_traitsIcESaIcEEEblmdSaNS2_14adl_serializerES0_IhSaIhEEvEESaISE_EEZNSE_6createISG_JN9__gnu_cxx17__normal_iteratorIPKSA_S0_ISA_SaISA_EEEESO_EEEPT_DpOT0_EUlPSG_E_E7releaseEv
FNA:5,42,_ZNSt15__uniq_ptr_implISt6vectorIN8nlohmann16json_abi_v3_11_310basic_jsonISt3mapS0_NSt7__cxx1112basic_stringIcSt11char_traitsIcESaIcEEEblmdSaNS2_14adl_serializerES0_IhSaIhEEvEESaISE_EEZNSE_6createISG_JPKNS2_6detail8json_refISE_EESM_EEEPT_DpOT0_EUlPSG_E_E7releaseEv
FNA:5,74,_ZNSt15__uniq_ptr_implISt6vectorIN8nlohmann16json_abi_v3_11_310basic_jsonISt3mapS0_NSt7__cxx1112basic_stringIcSt11char_traitsIcESaIcEEEblmdSaNS2_14adl_serializerES0_IhSaIhEEvEESaISE_EEZNSE_6createISG_JRKSG_EEEPT_DpOT0_EUlPSG_E_E7releaseEv
FNL:6,297,299
FNA:6,128,_ZNSt10unique_ptrINSt7__cxx1112basic_stringIcSt11char_traitsIcESaIcEEESt14default_deleteIS5_EEC2IS7_vEEv
FNL:7,324,325
FNA:7,0,_ZNSt10unique_ptrIN8nlohmann16json_abi_v3_11_327byte_container_with_subtypeISt6vectorIhSaIhEEEEZNS1_10basic_jsonISt3mapS3_NSt7__cxx1112basic_stringIcSt11char_traitsIcESaIcEEEblmdSaNS1_14adl_serializerES5_vE6createIS6_JEEEPT_DpOT0_EUlPS6_E_EC2ISO_vEESN_RKSO_
FNA:7,0,_ZNSt10unique_ptrIN8nlohmann16json_abi_v3_11_327byte_container_with_subtypeISt6vectorIhSaIhEEEEZNS1_10basic_jsonISt3mapS3_NSt7__cxx1112basic_stringIcSt11char_traitsIcESaIcEEEblmdSaNS1_14adl_serializerES5_vE6createIS6_JRKS6_EEEPT_DpOT0_EUlPS6_E_EC2ISQ_vEESP_RKSQ_
FNA:7,0,_ZNSt10unique_ptrINSt7__cxx1112basic_stringIcSt11char_traitsIcESaIcEEEZN8nlohmann16json_abi_v3_11_310basic_jsonISt3mapSt6vectorS5_blmdSaNS7_14adl_serializerESA_IhSaIhEEvE6createIS5_JRA1_KcEEEPT_DpOT0_EUlPS5_E_EC2ISP_vEESO_RKSP_
FNA:7,55,_ZNSt10unique_ptrINSt7__cxx1112basic_stringIcSt11char_traitsIcESaIcEEEZN8nlohmann16json_abi_v3_11_310basic_jsonISt3mapSt6vectorS5_blmdSaNS7_14adl_serializerESA_IhSaIhEEvE6createIS5_JRKS5_EEEPT_DpOT0_EUlPS5_E_EC2ISO_vEESN_RKSO_
FNA:7,19,_ZNSt10unique_ptrISt3mapINSt7__cxx1112basic_stringIcSt11char_traitsIcESaIcEEEN8nlohmann16json_abi_v3_11_310basic_jsonIS0_St6vectorS6_blmdSaNS8_14adl_serializerESA_IhSaIhEEvEESt4lessIvESaISt4pairIKS6_SE_EEEZNSE_6createISL_JEEEPT_DpOT0_EUlPSL_E_EC2IST_vEESS_RKST_
FNA:7,9,_ZNSt10unique_ptrISt3mapINSt7__cxx1112basic_stringIcSt11char_traitsIcESaIcEEEN8nlohmann16json_abi_v3_11_310basic_jsonIS0_St6vectorS6_blmdSaNS8_14adl_serializerESA_IhSaIhEEvEESt4lessIvESaISt4pairIKS6_SE_EEEZNSE_6createISL_JRKSL_EEEPT_DpOT0_EUlPSL_E_EC2ISV_vEESU_RKSV_
FNA:7,2,_ZNSt10unique_ptrISt6vectorIN8nlohmann16json_abi_v3_11_310basic_jsonISt3mapS0_NSt7__cxx1112basic_stringIcSt11char_traitsIcESaIcEEEblmdSaNS2_14adl_serializerES0_IhSaIhEEvEESaISE_EEZNSE_6createISG_JEEEPT_DpOT0_EUlPSG_E_EC2ISO_vEESN_RKSO_
FNA:7,2,_ZNSt10unique_ptrISt6vectorIN8nlohmann16json_abi_v3_11_310basic_jsonISt3mapS0_NSt7__cxx1112basic_stringIcSt11char_traitsIcESaIcEEEblmdSaNS2_14adl_serializerES0_IhSaIhEEvEESaISE_EEZNSE_6createISG_JN9__gnu_cxx17__normal_iteratorIPKSA_S0_ISA_SaISA_EEEESO_EEEPT_DpOT0_EUlPSG_E_EC2ISV_vEESU_RKSV_
FNA:7,42,_ZNSt10unique_ptrISt6vectorIN8nlohmann16json_abi_v3_11_310basic_jsonISt3mapS0_NSt7__cxx1112basic_stringIcSt11char_traitsIcESaIcEEEblmdSaNS2_14adl_serializerES0_IhSaIhEEvEESaISE_EEZNSE_6createISG_JPKNS2_6detail8json_refISE_EESM_EEEPT_DpOT0_EUlPSG_E_EC2IST_vEESS_RKST_
FNA:7,74,_ZNSt10unique_ptrISt6vectorIN8nlohmann16json_abi_v3_11_310basic_jsonISt3mapS0_NSt7__cxx1112basic_stringIcSt11char_traitsIcESaIcEEEblmdSaNS2_14adl_serializerES0_IhSaIhEEvEESaISE_EEZNSE_6createISG_JRKSG_EEEPT_DpOT0_EUlPSG_E_EC2ISQ_vEESP_RKSQ_
FNL:8,392,400
FNA:8,0,_ZNSt10unique_ptrIN8nlohmann16json_abi_v3_11_327byte_container_with_subtypeISt6vectorIhSaIhEEEEZNS1_10basic_jsonISt3mapS3_NSt7__cxx1112basic_stringIcSt11char_traitsIcESaIcEEEblmdSaNS1_14adl_serializerES5_vE6createIS6_JEEEPT_DpOT0_EUlPS6_E_ED2Ev
FNA:8,0,_ZNSt10unique_ptrIN8nlohmann16json_abi_v3_11_327byte_container_with_subtypeISt6vectorIhSaIhEEEEZNS1_10basic_jsonISt3mapS3_NSt7__cxx1112basic_stringIcSt11char_traitsIcESaIcEEEblmdSaNS1_14adl_serializerES5_vE6createIS6_JRKS6_EEEPT_DpOT0_EUlPS6_E_ED2Ev
FNA:8,273,_ZNSt10unique_ptrINSt7__cxx1112basic_stringIcSt11char_traitsIcESaIcEEESt14default_deleteIS5_EED2Ev
FNA:8,0,_ZNSt10unique_ptrINSt7__cxx1112basic_stringIcSt11char_traitsIcESaIcEEEZN8nlohmann16json_abi_v3_11_310basic_jsonISt3mapSt6vectorS5_blmdSaNS7_14adl_serializerESA_IhSaIhEEvE6createIS5_JRA1_KcEEEPT_DpOT0_EUlPS5_E_ED2Ev
FNA:8,55,_ZNSt10unique_ptrINSt7__cxx1112basic_stringIcSt11char_traitsIcESaIcEEEZN8nlohmann16json_abi_v3_11_310basic_jsonISt3mapSt6vectorS5_blmdSaNS7_14adl_serializerESA_IhSaIhEEvE6createIS5_JRKS5_EEEPT_DpOT0_EUlPS5_E_ED2Ev
FNA:8,5,_ZNSt10unique_ptrINSt7__cxx1118basic_stringstreamIcSt11char_traitsIcESaIcEEESt14default_deleteIS5_EED2Ev
FNA:8,19,_ZNSt10unique_ptrISt3mapINSt7__cxx1112basic_stringIcSt11char_traitsIcESaIcEEEN8nlohmann16json_abi_v3_11_310basic_jsonIS0_St6vectorS6_blmdSaNS8_14adl_serializerESA_IhSaIhEEvEESt4lessIvESaISt4pairIKS6_SE_EEEZNSE_6createISL_JEEEPT_DpOT0_EUlPSL_E_ED2Ev
FNA:8,9,_ZNSt10unique_ptrISt3mapINSt7__cxx1112basic_stringIcSt11char_traitsIcESaIcEEEN8nlohmann16json_abi_v3_11_310basic_jsonIS0_St6vectorS6_blmdSaNS8_14adl_serializerESA_IhSaIhEEvEESt4lessIvESaISt4pairIKS6_SE_EEEZNSE_6createISL_JRKSL_EEEPT_DpOT0_EUlPSL_E_ED2Ev
FNA:8,2,_ZNSt10unique_ptrISt6vectorIN8nlohmann16json_abi_v3_11_310basic_jsonISt3mapS0_NSt7__cxx1112basic_stringIcSt11char_traitsIcESaIcEEEblmdSaNS2_14adl_serializerES0_IhSaIhEEvEESaISE_EEZNSE_6createISG_JEEEPT_DpOT0_EUlPSG_E_ED2Ev
FNA:8,2,_ZNSt10unique_ptrISt6vectorIN8nlohmann16json_abi_v3_11_310basic_jsonISt3mapS0_NSt7__cxx1112basic_stringIcSt11char_traitsIcESaIcEEEblmdSaNS2_14adl_serializerES0_IhSaIhEEvEESaISE_EEZNSE_6createISG_JN9__gnu_cxx17__normal_iteratorIPKSA_S0_ISA_SaISA_EEEESO_EEEPT_DpOT0_EUlPSG_E_ED2Ev
FNA:8,42,_ZNSt10unique_ptrISt6vectorIN8nlohmann16json_abi_v3_11_310basic_jsonISt3mapS0_NSt7__cxx1112basic_stringIcSt11char_traitsIcESaIcEEEblmdSaNS2_14adl_serializerES0_IhSaIhEEvEESaISE_EEZNSE_6createISG_JPKNS2_6detail8json_refISE_EESM_EEEPT_DpOT0_EUlPSG_E_ED2Ev
FNA:8,74,_ZNSt10unique_ptrISt6vectorIN8nlohmann16json_abi_v3_11_310basic_jsonISt3mapS0_NSt7__cxx1112basic_stringIcSt11char_traitsIcESaIcEEEblmdSaNS2_14adl_serializerES0_IhSaIhEEvEESaISE_EEZNSE_6createISG_JRKSG_EEEPT_DpOT0_EUlPSG_E_ED2Ev
FNL:9,462,466
FNA:9,0,_ZNKSt10unique_ptrINSt7__cxx1112basic_stringIcSt11char_traitsIcESaIcEEESt14default_deleteIS5_EEptEv
FNL:10,471,472
FNA:10,0,_ZNKSt10unique_ptrIN8nlohmann16json_abi_v3_11_327byte_container_with_subtypeISt6vectorIhSaIhEEEEZNS1_10basic_jsonISt3mapS3_NSt7__cxx1112basic_stringIcSt11char_traitsIcESaIcEEEblmdSaNS1_14adl_serializerES5_vE6createIS6_JEEEPT_DpOT0_EUlPS6_E_E3getEv
FNA:10,0,_ZNKSt10unique_ptrIN8nlohmann16json_abi_v3_11_327byte_container_with_subtypeISt6vectorIhSaIhEEEEZNS1_10basic_jsonISt3mapS3_NSt7__cxx1112basic_stringIcSt11char_traitsIcESaIcEEEblmdSaNS1_14adl_serializerES5_vE6createIS6_JRKS6_EEEPT_DpOT0_EUlPS6_E_E3getEv
FNA:10,0,_ZNKSt10unique_ptrINSt7__cxx1112basic_stringIcSt11char_traitsIcESaIcEEESt14default_deleteIS5_EE3getEv
FNA:10,0,_ZNKSt10unique_ptrINSt7__cxx1112basic_stringIcSt11char_traitsIcESaIcEEEZN8nlohmann16json_abi_v3_11_310basic_jsonISt3mapSt6vectorS5_blmdSaNS7_14adl_serializerESA_IhSaIhEEvE6createIS5_JRA1_KcEEEPT_DpOT0_EUlPS5_E_E3getEv
FNA:10,110,_ZNKSt10unique_ptrINSt7__cxx1112basic_stringIcSt11char_traitsIcESaIcEEEZN8nlohmann16json_abi_v3_11_310basic_jsonISt3mapSt6vectorS5_blmdSaNS7_14adl_serializerESA_IhSaIhEEvE6createIS5_JRKS5_EEEPT_DpOT0_EUlPS5_E_E3getEv
FNA:10,38,_ZNKSt10unique_ptrISt3mapINSt7__cxx1112basic_stringIcSt11char_traitsIcESaIcEEEN8nlohmann16json_abi_v3_11_310basic_jsonIS0_St6vectorS6_blmdSaNS8_14adl_serializerESA_IhSaIhEEvEESt4lessIvESaISt4pairIKS6_SE_EEEZNSE_6createISL_JEEEPT_DpOT0_EUlPSL_E_E3getEv
FNA:10,18,_ZNKSt10unique_ptrISt3mapINSt7__cxx1112basic_stringIcSt11char_traitsIcESaIcEEEN8nlohmann16json_abi_v3_11_310basic_jsonIS0_St6vectorS6_blmdSaNS8_14adl_serializerESA_IhSaIhEEvEESt4lessIvESaISt4pairIKS6_SE_EEEZNSE_6createISL_JRKSL_EEEPT_DpOT0_EUlPSL_E_E3getEv
FNA:10,4,_ZNKSt10unique_ptrISt6vectorIN8nlohmann16json_abi_v3_11_310basic_jsonISt3mapS0_NSt7__cxx1112basic_stringIcSt11char_traitsIcESaIcEEEblmdSaNS2_14adl_serializerES0_IhSaIhEEvEESaISE_EEZNSE_6createISG_JEEEPT_DpOT0_EUlPSG_E_E3getEv
FNA:10,4,_ZNKSt10unique_ptrISt6vectorIN8nlohmann16json_abi_v3_11_310basic_jsonISt3mapS0_NSt7__cxx1112basic_stringIcSt11char_traitsIcESaIcEEEblmdSaNS2_14adl_serializerES0_IhSaIhEEvEESaISE_EEZNSE_6createISG_JN9__gnu_cxx17__normal_iteratorIPKSA_S0_ISA_SaISA_EEEESO_EEEPT_DpOT0_EUlPSG_E_E3getEv
FNA:10,84,_ZNKSt10unique_ptrISt6vectorIN8nlohmann16json_abi_v3_11_310basic_jsonISt3mapS0_NSt7__cxx1112basic_stringIcSt11char_traitsIcESaIcEEEblmdSaNS2_14adl_serializerES0_IhSaIhEEvEESaISE_EEZNSE_6createISG_JPKNS2_6detail8json_refISE_EESM_EEEPT_DpOT0_EUlPSG_E_E3getEv
FNA:10,148,_ZNKSt10unique_ptrISt6vectorIN8nlohmann16json_abi_v3_11_310basic_jsonISt3mapS0_NSt7__cxx1112basic_stringIcSt11char_traitsIcESaIcEEEblmdSaNS2_14adl_serializerES0_IhSaIhEEvEESaISE_EEZNSE_6createISG_JRKSG_EEEPT_DpOT0_EUlPSG_E_E3getEv
FNL:11,477,478
FNA:11,0,_ZNSt10unique_ptrIN8nlohmann16json_abi_v3_11_327byte_container_with_subtypeISt6vectorIhSaIhEEEEZNS1_10basic_jsonISt3mapS3_NSt7__cxx1112basic_stringIcSt11char_traitsIcESaIcEEEblmdSaNS1_14adl_serializerES5_vE6createIS6_JEEEPT_DpOT0_EUlPS6_E_E11get_deleterEv
FNA:11,0,_ZNSt10unique_ptrIN8nlohmann16json_abi_v3_11_327byte_container_with_subtypeISt6vectorIhSaIhEEEEZNS1_10basic_jsonISt3mapS3_NSt7__cxx1112basic_stringIcSt11char_traitsIcESaIcEEEblmdSaNS1_14adl_serializerES5_vE6createIS6_JRKS6_EEEPT_DpOT0_EUlPS6_E_E11get_deleterEv
FNA:11,0,_ZNSt10unique_ptrINSt7__cxx1112basic_stringIcSt11char_traitsIcESaIcEEESt14default_deleteIS5_EE11get_deleterEv
FNA:11,0,_ZNSt10unique_ptrINSt7__cxx1112basic_stringIcSt11char_traitsIcESaIcEEEZN8nlohmann16json_abi_v3_11_310basic_jsonISt3mapSt6vectorS5_blmdSaNS7_14adl_serializerESA_IhSaIhEEvE6createIS5_JRA1_KcEEEPT_DpOT0_EUlPS5_E_E11get_deleterEv
FNA:11,0,_ZNSt10unique_ptrINSt7__cxx1112basic_stringIcSt11char_traitsIcESaIcEEEZN8nlohmann16json_abi_v3_11_310basic_jsonISt3mapSt6vectorS5_blmdSaNS7_14adl_serializerESA_IhSaIhEEvE6createIS5_JRKS5_EEEPT_DpOT0_EUlPS5_E_E11get_deleterEv
FNA:11,5,_ZNSt10unique_ptrINSt7__cxx1118basic_stringstreamIcSt11char_traitsIcESaIcEEESt14default_deleteIS5_EE11get_deleterEv
FNA:11,0,_ZNSt10unique_ptrISt3mapINSt7__cxx1112basic_stringIcSt11char_traitsIcESaIcEEEN8nlohmann16json_abi_v3_11_310basic_jsonIS0_St6vectorS6_blmdSaNS8_14adl_serializerESA_IhSaIhEEvEESt4lessIvESaISt4pairIKS6_SE_EEEZNSE_6createISL_JEEEPT_DpOT0_EUlPSL_E_E11get_deleterEv
FNA:11,0,_ZNSt10unique_ptrISt3mapINSt7__cxx1112basic_stringIcSt11char_traitsIcESaIcEEEN8nlohmann16json_abi_v3_11_310basic_jsonIS0_St6vectorS6_blmdSaNS8_14adl_serializerESA_IhSaIhEEvEESt4lessIvESaISt4pairIKS6_SE_EEEZNSE_6createISL_JRKSL_EEEPT_DpOT0_EUlPSL_E_E11get_deleterEv
FNA:11,0,_ZNSt10unique_ptrISt6vectorIN8nlohmann16json_abi_v3_11_310basic_jsonISt3mapS0_NSt7__cxx1112basic_stringIcSt11char_traitsIcESaIcEEEblmdSaNS2_14adl_serializerES0_IhSaIhEEvEESaISE_EEZNSE_6createISG_JEEEPT_DpOT0_EUlPSG_E_E11get_deleterEv
FNA:11,0,_ZNSt10unique_ptrISt6vectorIN8nlohmann16json_abi_v3_11_310basic_jsonISt3mapS0_NSt7__cxx1112basic_stringIcSt11char_traitsIcESaIcEEEblmdSaNS2_14adl_serializerES0_IhSaIhEEvEESaISE_EEZNSE_6createISG_JN9__gnu_cxx17__normal_iteratorIPKSA_S0_ISA_SaISA_EEEESO_EEEPT_DpOT0_EUlPSG_E_E11get_deleterEv
FNA:11,0,_ZNSt10unique_ptrISt6vectorIN8nlohmann16json_abi_v3_11_310basic_jsonISt3mapS0_NSt7__cxx1112basic_stringIcSt11char_traitsIcESaIcEEEblmdSaNS2_14adl_serializerES0_IhSaIhEEvEESaISE_EEZNSE_6createISG_JPKNS2_6detail8json_refISE_EESM_EEEPT_DpOT0_EUlPSG_E_E11get_deleterEv
FNA:11,0,_ZNSt10unique_ptrISt6vectorIN8nlohmann16json_abi_v3_11_310basic_jsonISt3mapS0_NSt7__cxx1112basic_stringIcSt11char_traitsIcESaIcEEEblmdSaNS2_14adl_serializerES0_IhSaIhEEvEESaISE_EEZNSE_6createISG_JRKSG_EEEPT_DpOT0_EUlPSG_E_E11get_deleterEv
FNL:12,488,489
FNA:12,0,_ZNKSt10unique_ptrIN8nlohmann16json_abi_v3_11_327byte_container_with_subtypeISt6vectorIhSaIhEEEEZNS1_10basic_jsonISt3mapS3_NSt7__cxx1112basic_stringIcSt11char_traitsIcESaIcEEEblmdSaNS1_14adl_serializerES5_vE6createIS6_JEEEPT_DpOT0_EUlPS6_E_EcvbEv
FNA:12,0,_ZNKSt10unique_ptrIN8nlohmann16json_abi_v3_11_327byte_container_with_subtypeISt6vectorIhSaIhEEEEZNS1_10basic_jsonISt3mapS3_NSt7__cxx1112basic_stringIcSt11char_traitsIcESaIcEEEblmdSaNS1_14adl_serializerES5_vE6createIS6_JRKS6_EEEPT_DpOT0_EUlPS6_E_EcvbEv
FNA:12,0,_ZNKSt10unique_ptrINSt7__cxx1112basic_stringIcSt11char_traitsIcESaIcEEESt14default_deleteIS5_EEcvbEv
FNA:12,0,_ZNKSt10unique_ptrINSt7__cxx1112basic_stringIcSt11char_traitsIcESaIcEEEZN8nlohmann16json_abi_v3_11_310basic_jsonISt3mapSt6vectorS5_blmdSaNS7_14adl_serializerESA_IhSaIhEEvE6createIS5_JRA1_KcEEEPT_DpOT0_EUlPS5_E_EcvbEv
FNA:12,55,_ZNKSt10unique_ptrINSt7__cxx1112basic_stringIcSt11char_traitsIcESaIcEEEZN8nlohmann16json_abi_v3_11_310basic_jsonISt3mapSt6vectorS5_blmdSaNS7_14adl_serializerESA_IhSaIhEEvE6createIS5_JRKS5_EEEPT_DpOT0_EUlPS5_E_EcvbEv
FNA:12,19,_ZNKSt10unique_ptrISt3mapINSt7__cxx1112basic_stringIcSt11char_traitsIcESaIcEEEN8nlohmann16json_abi_v3_11_310basic_jsonIS0_St6vectorS6_blmdSaNS8_14adl_serializerESA_IhSaIhEEvEESt4lessIvESaISt4pairIKS6_SE_EEEZNSE_6createISL_JEEEPT_DpOT0_EUlPSL_E_EcvbEv
FNA:12,9,_ZNKSt10unique_ptrISt3mapINSt7__cxx1112basic_stringIcSt11char_traitsIcESaIcEEEN8nlohmann16json_abi_v3_11_310basic_jsonIS0_St6vectorS6_blmdSaNS8_14adl_serializerESA_IhSaIhEEvEESt4lessIvESaISt4pairIKS6_SE_EEEZNSE_6createISL_JRKSL_EEEPT_DpOT0_EUlPSL_E_EcvbEv
FNA:12,2,_ZNKSt10unique_ptrISt6vectorIN8nlohmann16json_abi_v3_11_310basic_jsonISt3mapS0_NSt7__cxx1112basic_stringIcSt11char_traitsIcESaIcEEEblmdSaNS2_14adl_serializerES0_IhSaIhEEvEESaISE_EEZNSE_6createISG_JEEEPT_DpOT0_EUlPSG_E_EcvbEv
FNA:12,2,_ZNKSt10unique_ptrISt6vectorIN8nlohmann16json_abi_v3_11_310basic_jsonISt3mapS0_NSt7__cxx1112basic_stringIcSt11char_traitsIcESaIcEEEblmdSaNS2_14adl_serializerES0_IhSaIhEEvEESaISE_EEZNSE_6createISG_JN9__gnu_cxx17__normal_iteratorIPKSA_S0_ISA_SaISA_EEEESO_EEEPT_DpOT0_EUlPSG_E_EcvbEv
FNA:12,42,_ZNKSt10unique_ptrISt6vectorIN8nlohmann16json_abi_v3_11_310basic_jsonISt3mapS0_NSt7__cxx1112basic_stringIcSt11char_traitsIcESaIcEEEblmdSaNS2_14adl_serializerES0_IhSaIhEEvEESaISE_EEZNSE_6createISG_JPKNS2_6detail8json_refISE_EESM_EEEPT_DpOT0_EUlPSG_E_EcvbEv
FNA:12,74,_ZNKSt10unique_ptrISt6vectorIN8nlohmann16json_abi_v3_11_310basic_jsonISt3mapS0_NSt7__cxx1112basic_stringIcSt11char_traitsIcESaIcEEEblmdSaNS2_14adl_serializerES0_IhSaIhEEvEESaISE_EEZNSE_6createISG_JRKSG_EEEPT_DpOT0_EUlPSG_E_EcvbEv
FNL:13,496,497
FNA:13,0,_ZNSt10unique_ptrIN8nlohmann16json_abi_v3_11_327byte_container_with_subtypeISt6vectorIhSaIhEEEEZNS1_10basic_jsonISt3mapS3_NSt7__cxx1112basic_stringIcSt11char_traitsIcESaIcEEEblmdSaNS1_14adl_serializerES5_vE6createIS6_JEEEPT_DpOT0_EUlPS6_E_E7releaseEv
FNA:13,0,_ZNSt10unique_ptrIN8nlohmann16json_abi_v3_11_327byte_container_with_subtypeISt6vectorIhSaIhEEEEZNS1_10basic_jsonISt3mapS3_NSt7__cxx1112basic_stringIcSt11char_traitsIcESaIcEEEblmdSaNS1_14adl_serializerES5_vE6createIS6_JRKS6_EEEPT_DpOT0_EUlPS6_E_E7releaseEv
FNA:13,0,_ZNSt10unique_ptrINSt7__cxx1112basic_stringIcSt11char_traitsIcESaIcEEEZN8nlohmann16json_abi_v3_11_310basic_jsonISt3mapSt6vectorS5_blmdSaNS7_14adl_serializerESA_IhSaIhEEvE6createIS5_JRA1_KcEEEPT_DpOT0_EUlPS5_E_E7releaseEv
FNA:13,55,_ZNSt10unique_ptrINSt7__cxx1112basic_stringIcSt11char_traitsIcESaIcEEEZN8nlohmann16json_abi_v3_11_310basic_jsonISt3mapSt6vectorS5_blmdSaNS7_14adl_serializerESA_IhSaIhEEvE6createIS5_JRKS5_EEEPT_DpOT0_EUlPS5_E_E7releaseEv
FNA:13,19,_ZNSt10unique_ptrISt3mapINSt7__cxx1112basic_stringIcSt11char_traitsIcESaIcEEEN8nlohmann16json_abi_v3_11_310basic_jsonIS0_St6vectorS6_blmdSaNS8_14adl_serializerESA_IhSaIhEEvEESt4lessIvESaISt4pairIKS6_SE_EEEZNSE_6createISL_JEEEPT_DpOT0_EUlPSL_E_E7releaseEv
FNA:13,9,_ZNSt10unique_ptrISt3mapINSt7__cxx1112basic_stringIcSt11char_traitsIcESaIcEEEN8nlohmann16json_abi_v3_11_310basic_jsonIS0_St6vectorS6_blmdSaNS8_14adl_serializerESA_IhSaIhEEvEESt4lessIvESaISt4pairIKS6_SE_EEEZNSE_6createISL_JRKSL_EEEPT_DpOT0_EUlPSL_E_E7releaseEv
FNA:13,2,_ZNSt10unique_ptrISt6vectorIN8nlohmann16json_abi_v3_11_310basic_jsonISt3mapS0_NSt7__cxx1112basic_stringIcSt11char_traitsIcESaIcEEEblmdSaNS2_14adl_serializerES0_IhSaIhEEvEESaISE_EEZNSE_6createISG_JEEEPT_DpOT0_EUlPSG_E_E7releaseEv
FNA:13,2,_ZNSt10unique_ptrISt6vectorIN8nlohmann16json_abi_v3_11_310basic_jsonISt3mapS0_NSt7__cxx1112basic_stringIcSt11char_traitsIcESaIcEEEblmdSaNS2_14adl_serializerES0_IhSaIhEEvEESaISE_EEZNSE_6createISG_JN9__gnu_cxx17__normal_iteratorIPKSA_S0_ISA_SaISA_EEEESO_EEEPT_DpOT0_EUlPSG_E_E7releaseEv
FNA:13,42,_ZNSt10unique_ptrISt6vectorIN8nlohmann16json_abi_v3_11_310basic_jsonISt3mapS0_NSt7__cxx1112basic_stringIcSt11char_traitsIcESaIcEEEblmdSaNS2_14adl_serializerES0_IhSaIhEEvEESaISE_EEZNSE_6createISG_JPKNS2_6detail8json_refISE_EESM_EEEPT_DpOT0_EUlPSG_E_E7releaseEv
FNA:13,74,_ZNSt10unique_ptrISt6vectorIN8nlohmann16json_abi_v3_11_310basic_jsonISt3mapS0_NSt7__cxx1112basic_stringIcSt11char_traitsIcESaIcEEEblmdSaNS2_14adl_serializerES0_IhSaIhEEvEESaISE_EEZNSE_6createISG_JRKSG_EEEPT_DpOT0_EUlPSG_E_E7releaseEv
FNL:14,86,93
FNA:14,0,_ZNKSt14default_deleteINSt7__cxx1112basic_stringIcSt11char_traitsIcESaIcEEEEclEPS5_
FNA:14,5,_ZNKSt14default_deleteINSt7__cxx1118basic_stringstreamIcSt11char_traitsIcESaIcEEEEclEPS5_
FNL:15,877,878
FNA:15,0,_ZStneIN8nlohmann16json_abi_v3_11_327byte_container_with_subtypeISt6vectorIhSaIhEEEEZNS1_10basic_jsonISt3mapS3_NSt7__cxx1112basic_stringIcSt11char_traitsIcESaIcEEEblmdSaNS1_14adl_serializerES5_vE6createIS6_JEEEPT_DpOT0_EUlPS6_E_EbRKSt10unique_ptrISI_T0_EDn
FNA:15,0,_ZStneIN8nlohmann16json_abi_v3_11_327byte_container_with_subtypeISt6vectorIhSaIhEEEEZNS1_10basic_jsonISt3mapS3_NSt7__cxx1112basic_stringIcSt11char_traitsIcESaIcEEEblmdSaNS1_14adl_serializerES5_vE6createIS6_JRKS6_EEEPT_DpOT0_EUlPS6_E_EbRKSt10unique_ptrISK_T0_EDn
FNA:15,0,_ZStneINSt7__cxx1112basic_stringIcSt11char_traitsIcESaIcEEESt14default_deleteIS5_EEbRKSt10unique_ptrIT_T0_EDn
FNA:15,0,_ZStneINSt7__cxx1112basic_stringIcSt11char_traitsIcESaIcEEEZN8nlohmann16json_abi_v3_11_310basic_jsonISt3mapSt6vectorS5_blmdSaNS7_14adl_serializerESA_IhSaIhEEvE6createIS5_JRA1_KcEEEPT_DpOT0_EUlPS5_E_EbRKSt10unique_ptrISJ_T0_EDn
FNA:15,55,_ZStneINSt7__cxx1112basic_stringIcSt11char_traitsIcESaIcEEEZN8nlohmann16json_abi_v3_11_310basic_jsonISt3mapSt6vectorS5_blmdSaNS7_14adl_serializerESA_IhSaIhEEvE6createIS5_JRKS5_EEEPT_DpOT0_EUlPS5_E_EbRKSt10unique_ptrISI_T0_EDn
FNA:15,19,_ZStneISt3mapINSt7__cxx1112basic_stringIcSt11char_traitsIcESaIcEEEN8nlohmann16json_abi_v3_11_310basic_jsonIS0_St6vectorS6_blmdSaNS8_14adl_serializerESA_IhSaIhEEvEESt4lessIvESaISt4pairIKS6_SE_EEEZNSE_6createISL_JEEEPT_DpOT0_EUlPSL_E_EbRKSt10unique_ptrISN_T0_EDn
FNA:15,9,_ZStneISt3mapINSt7__cxx1112basic_stringIcSt11char_traitsIcESaIcEEEN8nlohmann16json_abi_v3_11_310basic_jsonIS0_St6vectorS6_blmdSaNS8_14adl_serializerESA_IhSaIhEEvEESt4lessIvESaISt4pairIKS6_SE_EEEZNSE_6createISL_JRKSL_EEEPT_DpOT0_EUlPSL_E_EbRKSt10unique_ptrISP_T0_EDn
FNA:15,2,_ZStneISt6vectorIN8nlohmann16json_abi_v3_11_310basic_jsonISt3mapS0_NSt7__cxx1112basic_stringIcSt11char_traitsIcESaIcEEEblmdSaNS2_14adl_serializerES0_IhSaIhEEvEESaISE_EEZNSE_6createISG_JEEEPT_DpOT0_EUlPSG_E_EbRKSt10unique_ptrISI_T0_EDn
FNA:15,2,_ZStneISt6vectorIN8nlohmann16json_abi_v3_11_310basic_jsonISt3mapS0_NSt7__cxx1112basic_stringIcSt11char_traitsIcESaIcEEEblmdSaNS2_14adl_serializerES0_IhSaIhEEvEESaISE_EEZNSE_6createISG_JN9__gnu_cxx17__normal_iteratorIPKSA_S0_ISA_SaISA_EEEESO_EEEPT_DpOT0_EUlPSG_E_EbRKSt10unique_ptrISP_T0_EDn
FNA:15,42,_ZStneISt6vectorIN8nlohmann16json_abi_v3_11_310basic_jsonISt3mapS0_NSt7__cxx1112basic_stringIcSt11char_traitsIcESaIcEEEblmdSaNS2_14adl_serializerES0_IhSaIhEEvEESaISE_EEZNSE_6createISG_JPKNS2_6detail8json_refISE_EESM_EEEPT_DpOT0_EUlPSG_E_EbRKSt10unique_ptrISN_T0_EDn
FNA:15,74,_ZStneISt6vectorIN8nlohmann16json_abi_v3_11_310basic_jsonISt3mapS0_NSt7__cxx1112basic_stringIcSt11char_traitsIcESaIcEEEblmdSaNS2_14adl_serializerES0_IhSaIhEEvEESaISE_EEZNSE_6createISG_JRKSG_EEEPT_DpOT0_EUlPSG_E_EbRKSt10unique_ptrISK_T0_EDn
FNF:16
FNH:15
DA:86,5
DA:92,5
DA:93,5
DA:167,128
DA:173,203
DA:174,406
DA:190,887
DA:192,406
DA:194,5
DA:208,203
DA:210,203
DA:211,203
DA:212,203
DA:297,128
DA:298,128
DA:299,128
DA:324,203
DA:325,203
DA:392,481
DA:396,481
DA:397,481
DA:398,10
DA:399,481
DA:400,481
DA:462,0
DA:465,0
DA:471,406
DA:472,406
DA:477,5
DA:478,5
DA:488,203
DA:489,203
DA:496,203
DA:497,203
DA:877,203
DA:878,203
LF:36
LH:34
end_of_record
TN:
SF:/usr/include/c++/15/bits/vector.tcc
FNL:0,111,127
FNA:0,0,_ZNSt6vectorIN8nlohmann16json_abi_v3_11_310basic_jsonISt3mapS_NSt7__cxx1112basic_stringIcSt11char_traitsIcESaIcEEEblmdSaNS1_14adl_serializerES_IhSaIhEEvEESaISD_EE12emplace_backIJDnEEERSD_DpOT_
FNA:0,0,_ZNSt6vectorIN8nlohmann16json_abi_v3_11_310basic_jsonISt3mapS_NSt7__cxx1112basic_stringIcSt11char_traitsIcESaIcEEEblmdSaNS1_14adl_serializerES_IhSaIhEEvEESaISD_EE12emplace_backIJNS1_6detail7value_tEEEERSD_DpOT_
FNA:0,3,_ZNSt6vectorIN8nlohmann16json_abi_v3_11_310basic_jsonISt3mapS_NSt7__cxx1112basic_stringIcSt11char_traitsIcESaIcEEEblmdSaNS1_14adl_serializerES_IhSaIhEEvEESaISD_EE12emplace_backIJRS9_EEERSD_DpOT_
FNA:0,0,_ZNSt6vectorIN8nlohmann16json_abi_v3_11_310basic_jsonISt3mapS_NSt7__cxx1112basic_stringIcSt11char_traitsIcESaIcEEEblmdSaNS1_14adl_serializerES_IhSaIhEEvEESaISD_EE12emplace_backIJRbEEERSD_DpOT_
FNA:0,0,_ZNSt6vectorIN8nlohmann16json_abi_v3_11_310basic_jsonISt3mapS_NSt7__cxx1112basic_stringIcSt11char_traitsIcESaIcEEEblmdSaNS1_14adl_serializerES_IhSaIhEEvEESaISD_EE12emplace_backIJRdEEERSD_DpOT_
FNA:0,0,_ZNSt6vectorIN8nlohmann16json_abi_v3_11_310basic_jsonISt3mapS_NSt7__cxx1112basic_stringIcSt11char_traitsIcESaIcEEEblmdSaNS1_14adl_serializerES_IhSaIhEEvEESaISD_EE12emplace_backIJRlEEERSD_DpOT_
FNA:0,0,_ZNSt6vectorIN8nlohmann16json_abi_v3_11_310basic_jsonISt3mapS_NSt7__cxx1112basic_stringIcSt11char_traitsIcESaIcEEEblmdSaNS1_14adl_serializerES_IhSaIhEEvEESaISD_EE12emplace_backIJRmEEERSD_DpOT_
FNA:0,172,_ZNSt6vectorIN8nlohmann16json_abi_v3_11_310basic_jsonISt3mapS_NSt7__cxx1112basic_stringIcSt11char_traitsIcESaIcEEEblmdSaNS1_14adl_serializerES_IhSaIhEEvEESaISD_EE12emplace_backIJSD_EEERSD_DpOT_
FNA:0,4,_ZNSt6vectorIPN8nlohmann16json_abi_v3_11_310basic_jsonISt3mapS_NSt7__cxx1112basic_stringIcSt11char_traitsIcESaIcEEEblmdSaNS1_14adl_serializerES_IhSaIhEEvEESaISE_EE12emplace_backIJSE_EEERSE_DpOT_
FNA:0,85,_ZNSt6vectorIcSaIcEE12emplace_backIJcEEERcDpOT_
FNL:1,1200,1224
FNA:1,2,_ZNSt6vectorIbSaIbEE13_M_insert_auxESt13_Bit_iteratorb
FNL:2,133,176
FNA:2,17,_ZNSt6vectorINSt7__cxx1112basic_stringIcSt11char_traitsIcESaIcEEESaIS5_EE6insertEN9__gnu_cxx17__normal_iteratorIPKS5_S7_EERSA_
FNL:3,181,190
FNA:3,0,_ZNSt6vectorIN8nlohmann16json_abi_v3_11_310basic_jsonISt3mapS_NSt7__cxx1112basic_stringIcSt11char_traitsIcESaIcEEEblmdSaNS1_14adl_serializerES_IhSaIhEEvEESaISD_EE8_M_eraseEN9__gnu_cxx17__normal_iteratorIPSD_SF_EE
FNA:3,1,_ZNSt6vectorINSt7__cxx1112basic_stringIcSt11char_traitsIcESaIcEEESaIS5_EE8_M_eraseEN9__gnu_cxx17__normal_iteratorIPS5_S7_EE
FNL:4,363,382
FNA:4,2,_ZNSt6vectorINSt7__cxx1112basic_stringIcSt11char_traitsIcESaIcEEESaIS5_EE14_M_insert_rvalEN9__gnu_cxx17__normal_iteratorIPKS5_S7_EEOS5_
FNL:5,420,445
FNA:5,1,_ZNSt6vectorINSt7__cxx1112basic_stringIcSt11char_traitsIcESaIcEEESaIS5_EE13_M_insert_auxIS5_EEvN9__gnu_cxx17__normal_iteratorIPS5_S7_EEOT_
FNL:6,452,550
FNA:6,1,_ZNSt6vectorINSt7__cxx1112basic_stringIcSt11char_traitsIcESaIcEEESaIS5_EE17_M_realloc_insertIJRKS5_EEEvN9__gnu_cxx17__normal_iteratorIPS5_S7_EEDpOT_
FNA:6,0,_ZNSt6vectorINSt7__cxx1112basic_stringIcSt11char_traitsIcESaIcEEESaIS5_EE17_M_realloc_insertIJS5_EEEvN9__gnu_cxx17__normal_iteratorIPS5_S7_EEDpOT_
FNL:7,557,647
FNA:7,0,_ZNSt6vectorIN8nlohmann16json_abi_v3_11_310basic_jsonISt3mapS_NSt7__cxx1112basic_stringIcSt11char_traitsIcESaIcEEEblmdSaNS1_14adl_serializerES_IhSaIhEEvEESaISD_EE17_M_realloc_appendIJDnEEEvDpOT_
FNA:7,0,_ZNSt6vectorIN8nlohmann16json_abi_v3_11_310basic_jsonISt3mapS_NSt7__cxx1112basic_stringIcSt11char_traitsIcESaIcEEEblmdSaNS1_14adl_serializerES_IhSaIhEEvEESaISD_EE17_M_realloc_appendIJNS1_6detail7value_tEEEEvDpOT_
FNA:7,13,_ZNSt6vectorIN8nlohmann16json_abi_v3_11_310basic_jsonISt3mapS_NSt7__cxx1112basic_stringIcSt11char_traitsIcESaIcEEEblmdSaNS1_14adl_serializerES_IhSaIhEEvEESaISD_EE17_M_realloc_appendIJRKSD_EEEvDpOT_
FNA:7,3,_ZNSt6vectorIN8nlohmann16json_abi_v3_11_310basic_jsonISt3mapS_NSt7__cxx1112basic_stringIcSt11char_traitsIcESaIcEEEblmdSaNS1_14adl_serializerES_IhSaIhEEvEESaISD_EE17_M_realloc_appendIJRS9_EEEvDpOT_
FNA:7,0,_ZNSt6vectorIN8nlohmann16json_abi_v3_11_310basic_jsonISt3mapS_NSt7__cxx1112basic_stringIcSt11char_traitsIcESaIcEEEblmdSaNS1_14adl_serializerES_IhSaIhEEvEESaISD_EE17_M_realloc_appendIJRbEEEvDpOT_
FNA:7,0,_ZNSt6vectorIN8nlohmann16json_abi_v3_11_310basic_jsonISt3mapS_NSt7__cxx1112basic_stringIcSt11char_traitsIcESaIcEEEblmdSaNS1_14adl_serializerES_IhSaIhEEvEESaISD_EE17_M_realloc_appendIJRdEEEvDpOT_
FNA:7,0,_ZNSt6vectorIN8nlohmann16json_abi_v3_11_310basic_jsonISt3mapS_NSt7__cxx1112basic_stringIcSt11char_traitsIcESaIcEEEblmdSaNS1_14adl_serializerES_IhSaIhEEvEESaISD_EE17_M_realloc_appendIJRlEEEvDpOT_
FNA:7,0,_ZNSt6vectorIN8nlohmann16json_abi_v3_11_310basic_jsonISt3mapS_NSt7__cxx1112basic_stringIcSt11char_traitsIcESaIcEEEblmdSaNS1_14adl_serializerES_IhSaIhEEvEESaISD_EE17_M_realloc_appendIJRmEEEvDpOT_
FNA:7,27,_ZNSt6vectorIN8nlohmann16json_abi_v3_11_310basic_jsonISt3mapS_NSt7__cxx1112basic_stringIcSt11char_traitsIcESaIcEEEblmdSaNS1_14adl_serializerES_IhSaIhEEvEESaISD_EE17_M_realloc_appendIJSD_EEEvDpOT_
FNA:7,11,_ZNSt6vectorINSt7__cxx1112basic_stringIcSt11char_traitsIcESaIcEEESaIS5_EE17_M_realloc_appendIJRKS5_EEEvDpOT_
FNA:7,0,_ZNSt6vectorIPN8nlohmann16json_abi_v3_11_310basic_jsonISt3mapS_NSt7__cxx1112basic_stringIcSt11char_traitsIcESaIcEEEblmdSaNS1_14adl_serializerES_IhSaIhEEvEESaISE_EE17_M_realloc_appendIJRKSE_EEEvDpOT_
FNA:7,4,_ZNSt6vectorIPN8nlohmann16json_abi_v3_11_310basic_jsonISt3mapS_NSt7__cxx1112basic_stringIcSt11char_traitsIcESaIcEEEblmdSaNS1_14adl_serializerES_IhSaIhEEvEESaISE_EE17_M_realloc_appendIJSE_EEEvDpOT_
FNA:7,10,_ZNSt6vectorIcSaIcEE17_M_realloc_appendIJcEEEvDpOT_
FNL:8,67,100
FNA:8,148,_ZNSt6vectorIN8nlohmann16json_abi_v3_11_310basic_jsonISt3mapS_NSt7__cxx1112basic_stringIcSt11char_traitsIcESaIcEEEblmdSaNS1_14adl_serializerES_IhSaIhEEvEESaISD_EE7reserveEm
FNA:8,18,_ZNSt6vectorINSt7__cxx1112basic_stringIcSt11char_traitsIcESaIcEEESaIS5_EE7reserveEm
FNL:9,757,844
FNA:9,0,_ZNSt6vectorIN8nlohmann16json_abi_v3_11_310basic_jsonISt3mapS_NSt7__cxx1112basic_stringIcSt11char_traitsIcESaIcEEEblmdSaNS1_14adl_serializerES_IhSaIhEEvEESaISD_EE17_M_default_appendEm
FNA:9,22,_ZNSt6vectorINSt7__cxx114listI8HashNodeSaIS2_EEESaIS4_EE17_M_default_appendEm
FNF:10
FNH:10
DA:67,166
DA:70,166
DA:71,0
DA:72,166
DA:74,45
DA:79,45
DA:80,45
DA:81,45
DA:93,45
DA:94,45
DA:95,45
DA:96,45
DA:97,45
DA:98,45
DA:100,166
DA:111,264
DA:114,264
DA:117,220
DA:119,220
DA:123,44
DA:125,264
DA:133,17
DA:140,17
DA:141,17
DA:143,16
DA:144,16
DA:145,0
DA:147,32
DA:150,15
DA:152,15
DA:158,2
DA:161,1
DA:162,2
DA:166,1
DA:170,3
DA:175,17
DA:181,1
DA:184,3
DA:185,2
DA:186,1
DA:187,1
DA:189,1
DA:363,2
DA:366,2
DA:367,2
DA:368,4
DA:371,2
DA:372,2
DA:373,2
DA:377,0
DA:379,0
DA:381,2
DA:420,1
DA:430,1
DA:431,2
DA:432,1
DA:437,2
DA:443,2
DA:445,1
DA:452,1
DA:461,1
DA:462,1
DA:463,0
DA:464,1
DA:465,1
DA:466,1
DA:467,1
DA:468,1
DA:471,1
DA:481,1
DA:482,1
DA:494,1
DA:495,1
DA:496,1
DA:497,1
DA:498,1
DA:541,1
DA:542,1
DA:543,1
DA:547,1
DA:548,1
DA:549,1
DA:550,1
DA:557,68
DA:566,68
DA:567,68
DA:568,0
DA:569,68
DA:570,68
DA:571,68
DA:572,68
DA:573,68
DA:576,68
DA:586,78
DA:587,58
DA:599,68
DA:600,68
DA:601,68
DA:638,68
DA:639,68
DA:640,68
DA:644,68
DA:645,68
DA:646,68
DA:647,68
DA:757,22
DA:760,22
DA:762,22
DA:763,22
DA:764,22
DA:766,22
DA:767,0
DA:769,22
DA:771,6
DA:772,0
DA:775,6
DA:776,6
DA:777,6
DA:784,16
DA:785,16
DA:788,16
DA:789,16
DA:792,16
DA:794,16
DA:795,16
DA:799,16
DA:800,16
DA:833,16
DA:834,16
DA:835,16
DA:839,16
DA:840,16
DA:841,16
DA:844,22
DA:1200,2
DA:1203,2
DA:1205,0
DA:1206,0
DA:1207,0
DA:1208,0
DA:1213,2
DA:1214,2
DA:1215,2
DA:1216,2
DA:1217,2
DA:1218,2
DA:1219,2
DA:1220,2
DA:1221,2
DA:1222,2
DA:1224,2
LF:151
LH:139
end_of_record
TN:
SF:/usr/include/c++/15/cmath
FNL:0,1137,1138
FNA:0,0,_ZSt8isfinited
FNL:1,1236,1237
FNA:1,0,_ZSt7signbitd
FNF:2
FNH:0
DA:1137,0
DA:1138,0
DA:1236,0
DA:1237,0
LF:4
LH:0
end_of_record
TN:
SF:/usr/include/c++/15/ext/aligned_buffer.h
FNL:0,107,110
FNA:0,6,_ZN9__gnu_cxx16__aligned_bufferIN8nlohmann16json_abi_v3_11_36detail21output_string_adapterIcNSt7__cxx1112basic_stringIcSt11char_traitsIcESaIcEEEEEE7_M_addrEv
FNL:1,119,120
FNA:1,6,_ZN9__gnu_cxx16__aligned_bufferIN8nlohmann16json_abi_v3_11_36detail21output_string_adapterIcNSt7__cxx1112basic_stringIcSt11char_traitsIcESaIcEEEEEE6_M_ptrEv
FNL:2,70,71
FNA:2,179,_ZN9__gnu_cxx16__aligned_membufI8HashNodeE7_M_addrEv
FNA:2,360,_ZN9__gnu_cxx16__aligned_membufISt4pairIKNSt7__cxx1112basic_stringIcSt11char_traitsIcESaIcEEEN8nlohmann16json_abi_v3_11_310basic_jsonISt3mapSt6vectorS7_blmdSaNSA_14adl_serializerESD_IhSaIhEEvEEEE7_M_addrEv
FNL:3,74,75
FNA:3,84,_ZNK9__gnu_cxx16__aligned_membufI8HashNodeE7_M_addrEv
FNA:3,265,_ZNK9__gnu_cxx16__aligned_membufISt4pairIKNSt7__cxx1112basic_stringIcSt11char_traitsIcESaIcEEEN8nlohmann16json_abi_v3_11_310basic_jsonISt3mapSt6vectorS7_blmdSaNSA_14adl_serializerESD_IhSaIhEEvEEEE7_M_addrEv
FNL:4,78,79
FNA:4,179,_ZN9__gnu_cxx16__aligned_membufI8HashNodeE6_M_ptrEv
FNA:4,360,_ZN9__gnu_cxx16__aligned_membufISt4pairIKNSt7__cxx1112basic_stringIcSt11char_traitsIcESaIcEEEN8nlohmann16json_abi_v3_11_310basic_jsonISt3mapSt6vectorS7_blmdSaNSA_14adl_serializerESD_IhSaIhEEvEEEE6_M_ptrEv
FNL:5,82,83
FNA:5,84,_ZNK9__gnu_cxx16__aligned_membufI8HashNodeE6_M_ptrEv
FNA:5,265,_ZNK9__gnu_cxx16__aligned_membufISt4pairIKNSt7__cxx1112basic_stringIcSt11char_traitsIcESaIcEEEN8nlohmann16json_abi_v3_11_310basic_jsonISt3mapSt6vectorS7_blmdSaNSA_14adl_serializerESD_IhSaIhEEvEEEE6_M_ptrEv
FNF:6
FNH:6
DA:70,539
DA:71,539
DA:74,349
DA:75,349
DA:78,539
DA:79,539
DA:82,349
DA:83,349
DA:107,6
DA:109,6
DA:119,6
DA:120,6
LF:12
LH:12
end_of_record
TN:
SF:/usr/include/c++/15/ext/alloc_traits.h
FNF:0
FNH:0
DA:100,704
DA:108,24
DA:112,0
DA:120,0
LF:4
LH:2
end_of_record
TN:
SF:/usr/include/c++/15/ext/atomicity.h
FNF:0
FNH:0
DA:54,4
DA:68,0
DA:73,0
DA:86,2
DA:87,2
DA:88,2
DA:94,2
DA:100,2
DA:101,2
DA:103,0
DA:110,2
DA:114,2
LF:12
LH:9
end_of_record
TN:
SF:/usr/include/c++/15/initializer_list
FNL:0,71,71
FNA:0,84,_ZNKSt16initializer_listIN8nlohmann16json_abi_v3_11_36detail8json_refINS1_10basic_jsonISt3mapSt6vectorNSt7__cxx1112basic_stringIcSt11char_traitsIcESaIcEEEblmdSaNS1_14adl_serializerES6_IhSaIhEEvEEEEE4sizeEv
FNA:0,0,_ZNKSt16initializer_listIiE4sizeEv
FNA:0,0,_ZNKSt16initializer_listIjE4sizeEv
FNL:1,75,75
FNA:1,168,_ZNKSt16initializer_listIN8nlohmann16json_abi_v3_11_36detail8json_refINS1_10basic_jsonISt3mapSt6vectorNSt7__cxx1112basic_stringIcSt11char_traitsIcESaIcEEEblmdSaNS1_14adl_serializerES6_IhSaIhEEvEEEEE5beginEv
FNA:1,0,_ZNKSt16initializer_listIiE5beginEv
FNA:1,0,_ZNKSt16initializer_listIjE5beginEv
FNL:2,79,79
FNA:2,84,_ZNKSt16initializer_listIN8nlohmann16json_abi_v3_11_36detail8json_refINS1_10basic_jsonISt3mapSt6vectorNSt7__cxx1112basic_stringIcSt11char_traitsIcESaIcEEEblmdSaNS1_14adl_serializerES6_IhSaIhEEvEEEEE3endEv
FNA:2,0,_ZNKSt16initializer_listIiE3endEv
FNA:2,0,_ZNKSt16initializer_listIjE3endEv
FNF:3
FNH:3
DA:71,84
DA:75,168
DA:79,84
LF:3
LH:3
end_of_record
TN:
SF:/usr/include/c++/15/limits
FNL:0,1211,1211
FNA:0,90,_ZNSt14numeric_limitsIlE3minEv
FNL:1,1214,1214
FNA:1,0,_ZNSt14numeric_limitsIlE3maxEv
FNL:2,1281,1281
FNA:2,0,_ZNSt14numeric_limitsImE3maxEv
FNF:3
FNH:1
DA:1211,90
DA:1214,0
DA:1281,0
LF:3
LH:1
end_of_record
TN:
SF:/usr/include/c++/15/new
FNL:0,206,208
FNA:0,1284,_ZnwmPv
FNL:1,217,219
FNA:1,0,_ZdlPvS_
FNF:2
FNH:1
DA:206,1284
DA:208,1284
DA:217,0
DA:219,0
LF:4
LH:2
end_of_record
TN:
SF:/usr/include/c++/15/tuple
FNL:0,137,137
FNA:0,0,_ZNSt10_Head_baseILm1ESt14default_deleteINSt7__cxx1112basic_stringIcSt11char_traitsIcESaIcEEEELb1EE7_M_headERS8_
FNA:0,5,_ZNSt10_Head_baseILm1ESt14default_deleteINSt7__cxx1118basic_stringstreamIcSt11char_traitsIcESaIcEEEELb1EE7_M_headERS8_
FNL:1,1473,1475
FNA:1,4,_ZNSt5tupleIJRKNSt7__cxx1112basic_stringIcSt11char_traitsIcESaIcEEEEEC2ILb1ELb1EEES7_
FNL:2,1504,1504
FNA:2,4,_ZNSt5tupleIJRKNSt7__cxx1112basic_stringIcSt11char_traitsIcESaIcEEEEEC2EOS8_
FNL:3,202,203
FNA:3,128,_ZNSt10_Head_baseILm0EPNSt7__cxx1112basic_stringIcSt11char_traitsIcESaIcEEELb0EEC2Ev
FNL:4,205,206
FNA:4,4,_ZNSt10_Head_baseILm0ERKNSt7__cxx1112basic_stringIcSt11char_traitsIcESaIcEEELb0EEC2ES7_
FNA:4,0,_ZNSt10_Head_baseILm1EZN8nlohmann16json_abi_v3_11_310basic_jsonISt3mapSt6vectorNSt7__cxx1112basic_stringIcSt11char_traitsIcESaIcEEEblmdSaNS1_14adl_serializerES4_IhSaIhEEvE6createINS1_27byte_container_with_subtypeISD_EEJEEEPT_DpOT0_EUlPSH_E_Lb0EEC2ERKSO_
FNA:4,0,_ZNSt10_Head_baseILm1EZN8nlohmann16json_abi_v3_11_310basic_jsonISt3mapSt6vectorNSt7__cxx1112basic_stringIcSt11char_traitsIcESaIcEEEblmdSaNS1_14adl_serializerES4_IhSaIhEEvE6createINS1_27byte_container_with_subtypeISD_EEJRKSH_EEEPT_DpOT0_EUlPSH_E_Lb0EEC2ERKSQ_
FNA:4,19,_ZNSt10_Head_baseILm1EZN8nlohmann16json_abi_v3_11_310basic_jsonISt3mapSt6vectorNSt7__cxx1112basic_stringIcSt11char_traitsIcESaIcEEEblmdSaNS1_14adl_serializerES4_IhSaIhEEvE6createIS3_ISA_SE_St4lessIvESaISt4pairIKSA_SE_EEEJEEEPT_DpOT0_EUlPSM_E_Lb0EEC2ERKST_
FNA:4,9,_ZNSt10_Head_baseILm1EZN8nlohmann16json_abi_v3_11_310basic_jsonISt3mapSt6vectorNSt7__cxx1112basic_stringIcSt11char_traitsIcESaIcEEEblmdSaNS1_14adl_serializerES4_IhSaIhEEvE6createIS3_ISA_SE_St4lessIvESaISt4pairIKSA_SE_EEEJRKSM_EEEPT_DpOT0_EUlPSM_E_Lb0EEC2ERKSV_
FNA:4,2,_ZNSt10_Head_baseILm1EZN8nlohmann16json_abi_v3_11_310basic_jsonISt3mapSt6vectorNSt7__cxx1112basic_stringIcSt11char_traitsIcESaIcEEEblmdSaNS1_14adl_serializerES4_IhSaIhEEvE6createIS4_ISE_SaISE_EEJEEEPT_DpOT0_EUlPSH_E_Lb0EEC2ERKSO_
FNA:4,2,_ZNSt10_Head_baseILm1EZN8nlohmann16json_abi_v3_11_310basic_jsonISt3mapSt6vectorNSt7__cxx1112basic_stringIcSt11char_traitsIcESaIcEEEblmdSaNS1_14adl_serializerES4_IhSaIhEEvE6createIS4_ISE_SaISE_EEJN9__gnu_cxx17__normal_iteratorIPKSA_S4_ISA_SaISA_EEEESO_EEEPT_DpOT0_EUlPSH_E_Lb0EEC2ERKSV_
FNA:4,42,_ZNSt10_Head_baseILm1EZN8nlohmann16json_abi_v3_11_310basic_jsonISt3mapSt6vectorNSt7__cxx1112basic_stringIcSt11char_traitsIcESaIcEEEblmdSaNS1_14adl_serializerES4_IhSaIhEEvE6createIS4_ISE_SaISE_EEJPKNS1_6detail8json_refISE_EESM_EEEPT_DpOT0_EUlPSH_E_Lb0EEC2ERKST_
FNA:4,74,_ZNSt10_Head_baseILm1EZN8nlohmann16json_abi_v3_11_310basic_jsonISt3mapSt6vectorNSt7__cxx1112basic_stringIcSt11char_traitsIcESaIcEEEblmdSaNS1_14adl_serializerES4_IhSaIhEEvE6createIS4_ISE_SaISE_EEJRKSH_EEEPT_DpOT0_EUlPSH_E_Lb0EEC2ERKSQ_
FNA:4,0,_ZNSt10_Head_baseILm1EZN8nlohmann16json_abi_v3_11_310basic_jsonISt3mapSt6vectorNSt7__cxx1112basic_stringIcSt11char_traitsIcESaIcEEEblmdSaNS1_14adl_serializerES4_IhSaIhEEvE6createISA_JRA1_KcEEEPT_DpOT0_EUlPSA_E_Lb0EEC2ERKSP_
FNA:4,55,_ZNSt10_Head_baseILm1EZN8nlohmann16json_abi_v3_11_310basic_jsonISt3mapSt6vectorNSt7__cxx1112basic_stringIcSt11char_traitsIcESaIcEEEblmdSaNS1_14adl_serializerES4_IhSaIhEEvE6createISA_JRKSA_EEEPT_DpOT0_EUlPSA_E_Lb0EEC2ERKSO_
FNL:5,2090,2092
FNA:5,128,_ZNSt5tupleIJPNSt7__cxx1112basic_stringIcSt11char_traitsIcESaIcEEESt14default_deleteIS5_EEEC2ILb1ELb1EEEv
FNL:6,2118,2121
FNA:6,0,_ZNSt5tupleIJPN8nlohmann16json_abi_v3_11_327byte_container_with_subtypeISt6vectorIhSaIhEEEEZNS1_10basic_jsonISt3mapS3_NSt7__cxx1112basic_stringIcSt11char_traitsIcESaIcEEEblmdSaNS1_14adl_serializerES5_vE6createIS6_JEEEPT_DpOT0_EUlS7_E_EEC2IRS7_RKSO_Lb1EEEOSJ_OT0_
FNA:6,0,_ZNSt5tupleIJPN8nlohmann16json_abi_v3_11_327byte_container_with_subtypeISt6vectorIhSaIhEEEEZNS1_10basic_jsonISt3mapS3_NSt7__cxx1112basic_stringIcSt11char_traitsIcESaIcEEEblmdSaNS1_14adl_serializerES5_vE6createIS6_JRKS6_EEEPT_DpOT0_EUlS7_E_EEC2IRS7_RKSQ_Lb1EEEOSL_OT0_
FNA:6,0,_ZNSt5tupleIJPNSt7__cxx1112basic_stringIcSt11char_traitsIcESaIcEEEZN8nlohmann16json_abi_v3_11_310basic_jsonISt3mapSt6vectorS5_blmdSaNS8_14adl_serializerESB_IhSaIhEEvE6createIS5_JRA1_KcEEEPT_DpOT0_EUlS6_E_EEC2IRS6_RKSP_Lb1EEEOSK_OT0_
FNA:6,55,_ZNSt5tupleIJPNSt7__cxx1112basic_stringIcSt11char_traitsIcESaIcEEEZN8nlohmann16json_abi_v3_11_310basic_jsonISt3mapSt6vectorS5_blmdSaNS8_14adl_serializerESB_IhSaIhEEvE6createIS5_JRKS5_EEEPT_DpOT0_EUlS6_E_EEC2IRS6_RKSO_Lb1EEEOSJ_OT0_
FNA:6,19,_ZNSt5tupleIJPSt3mapINSt7__cxx1112basic_stringIcSt11char_traitsIcESaIcEEEN8nlohmann16json_abi_v3_11_310basic_jsonIS0_St6vectorS6_blmdSaNS8_14adl_serializerESA_IhSaIhEEvEESt4lessIvESaISt4pairIKS6_SE_EEEZNSE_6createISL_JEEEPT_DpOT0_EUlSM_E_EEC2IRSM_RKST_Lb1EEEOSO_OT0_
FNA:6,9,_ZNSt5tupleIJPSt3mapINSt7__cxx1112basic_stringIcSt11char_traitsIcESaIcEEEN8nlohmann16json_abi_v3_11_310basic_jsonIS0_St6vectorS6_blmdSaNS8_14adl_serializerESA_IhSaIhEEvEESt4lessIvESaISt4pairIKS6_SE_EEEZNSE_6createISL_JRKSL_EEEPT_DpOT0_EUlSM_E_EEC2IRSM_RKSV_Lb1EEEOSQ_OT0_
FNA:6,2,_ZNSt5tupleIJPSt6vectorIN8nlohmann16json_abi_v3_11_310basic_jsonISt3mapS0_NSt7__cxx1112basic_stringIcSt11char_traitsIcESaIcEEEblmdSaNS2_14adl_serializerES0_IhSaIhEEvEESaISE_EEZNSE_6createISG_JEEEPT_DpOT0_EUlSH_E_EEC2IRSH_RKSO_Lb1EEEOSJ_OT0_
FNA:6,2,_ZNSt5tupleIJPSt6vectorIN8nlohmann16json_abi_v3_11_310basic_jsonISt3mapS0_NSt7__cxx1112basic_stringIcSt11char_traitsIcESaIcEEEblmdSaNS2_14adl_serializerES0_IhSaIhEEvEESaISE_EEZNSE_6createISG_JN9__gnu_cxx17__normal_iteratorIPKSA_S0_ISA_SaISA_EEEESP_EEEPT_DpOT0_EUlSH_E_EEC2IRSH_RKSV_Lb1EEEOSQ_OT0_
FNA:6,42,_ZNSt5tupleIJPSt6vectorIN8nlohmann16json_abi_v3_11_310basic_jsonISt3mapS0_NSt7__cxx1112basic_stringIcSt11char_traitsIcESaIcEEEblmdSaNS2_14adl_serializerES0_IhSaIhEEvEESaISE_EEZNSE_6createISG_JPKNS2_6detail8json_refISE_EESN_EEEPT_DpOT0_EUlSH_E_EEC2IRSH_RKST_Lb1EEEOSO_OT0_
FNA:6,74,_ZNSt5tupleIJPSt6vectorIN8nlohmann16json_abi_v3_11_310basic_jsonISt3mapS0_NSt7__cxx1112basic_stringIcSt11char_traitsIcESaIcEEEblmdSaNS2_14adl_serializerES0_IhSaIhEEvEESaISE_EEZNSE_6createISG_JRKSG_EEEPT_DpOT0_EUlSH_E_EEC2IRSH_RKSQ_Lb1EEEOSL_OT0_
FNL:7,212,213
FNA:7,0,_ZNSt10_Head_baseILm0EPN8nlohmann16json_abi_v3_11_327byte_container_with_subtypeISt6vectorIhSaIhEEEELb0EEC2IRS7_EEOT_
FNA:7,55,_ZNSt10_Head_baseILm0EPNSt7__cxx1112basic_stringIcSt11char_traitsIcESaIcEEELb0EEC2IRS6_EEOT_
FNA:7,28,_ZNSt10_Head_baseILm0EPSt3mapINSt7__cxx1112basic_stringIcSt11char_traitsIcESaIcEEEN8nlohmann16json_abi_v3_11_310basic_jsonIS0_St6vectorS6_blmdSaNS8_14adl_serializerESA_IhSaIhEEvEESt4lessIvESaISt4pairIKS6_SE_EEELb0EEC2IRSM_EEOT_
FNA:7,120,_ZNSt10_Head_baseILm0EPSt6vectorIN8nlohmann16json_abi_v3_11_310basic_jsonISt3mapS0_NSt7__cxx1112basic_stringIcSt11char_traitsIcESaIcEEEblmdSaNS2_14adl_serializerES0_IhSaIhEEvEESaISE_EELb0EEC2IRSH_EEOT_
FNL:8,2428,2429
FNA:8,0,_ZSt12__get_helperILm0EPN8nlohmann16json_abi_v3_11_327byte_container_with_subtypeISt6vectorIhSaIhEEEEJZNS1_10basic_jsonISt3mapS3_NSt7__cxx1112basic_stringIcSt11char_traitsIcESaIcEEEblmdSaNS1_14adl_serializerES5_vE6createIS6_JEEEPT_DpOT0_EUlS7_E_EERT0_RSt11_Tuple_implIXT_EJSP_DpT1_EE
FNA:8,0,_ZSt12__get_helperILm0EPN8nlohmann16json_abi_v3_11_327byte_container_with_subtypeISt6vectorIhSaIhEEEEJZNS1_10basic_jsonISt3mapS3_NSt7__cxx1112basic_stringIcSt11char_traitsIcESaIcEEEblmdSaNS1_14adl_serializerES5_vE6createIS6_JRKS6_EEEPT_DpOT0_EUlS7_E_EERT0_RSt11_Tuple_implIXT_EJSR_DpT1_EE
FNA:8,273,_ZSt12__get_helperILm0EPNSt7__cxx1112basic_stringIcSt11char_traitsIcESaIcEEEJSt14default_deleteIS5_EEERT0_RSt11_Tuple_implIXT_EJS9_DpT1_EE
FNA:8,0,_ZSt12__get_helperILm0EPNSt7__cxx1112basic_stringIcSt11char_traitsIcESaIcEEEJZN8nlohmann16json_abi_v3_11_310basic_jsonISt3mapSt6vectorS5_blmdSaNS8_14adl_serializerESB_IhSaIhEEvE6createIS5_JRA1_KcEEEPT_DpOT0_EUlS6_E_EERT0_RSt11_Tuple_implIXT_EJSQ_DpT1_EE
FNA:8,165,_ZSt12__get_helperILm0EPNSt7__cxx1112basic_stringIcSt11char_traitsIcESaIcEEEJZN8nlohmann16json_abi_v3_11_310basic_jsonISt3mapSt6vectorS5_blmdSaNS8_14adl_serializerESB_IhSaIhEEvE6createIS5_JRKS5_EEEPT_DpOT0_EUlS6_E_EERT0_RSt11_Tuple_implIXT_EJSP_DpT1_EE
FNA:8,5,_ZSt12__get_helperILm0EPNSt7__cxx1118basic_stringstreamIcSt11char_traitsIcESaIcEEEJSt14default_deleteIS5_EEERT0_RSt11_Tuple_implIXT_EJS9_DpT1_EE
FNA:8,57,_ZSt12__get_helperILm0EPSt3mapINSt7__cxx1112basic_stringIcSt11char_traitsIcESaIcEEEN8nlohmann16json_abi_v3_11_310basic_jsonIS0_St6vectorS6_blmdSaNS8_14adl_serializerESA_IhSaIhEEvEESt4lessIvESaISt4pairIKS6_SE_EEEJZNSE_6createISL_JEEEPT_DpOT0_EUlSM_E_EERT0_RSt11_Tuple_implIXT_EJSU_DpT1_EE
FNA:8,27,_ZSt12__get_helperILm0EPSt3mapINSt7__cxx1112basic_stringIcSt11char_traitsIcESaIcEEEN8nlohmann16json_abi_v3_11_310basic_jsonIS0_St6vectorS6_blmdSaNS8_14adl_serializerESA_IhSaIhEEvEESt4lessIvESaISt4pairIKS6_SE_EEEJZNSE_6createISL_JRKSL_EEEPT_DpOT0_EUlSM_E_EERT0_RSt11_Tuple_implIXT_EJSW_DpT1_EE
FNA:8,6,_ZSt12__get_helperILm0EPSt6vectorIN8nlohmann16json_abi_v3_11_310basic_jsonISt3mapS0_NSt7__cxx1112basic_stringIcSt11char_traitsIcESaIcEEEblmdSaNS2_14adl_serializerES0_IhSaIhEEvEESaISE_EEJZNSE_6createISG_JEEEPT_DpOT0_EUlSH_E_EERT0_RSt11_Tuple_implIXT_EJSP_DpT1_EE
FNA:8,6,_ZSt12__get_helperILm0EPSt6vectorIN8nlohmann16json_abi_v3_11_310basic_jsonISt3mapS0_NSt7__cxx1112basic_stringIcSt11char_traitsIcESaIcEEEblmdSaNS2_14adl_serializerES0_IhSaIhEEvEESaISE_EEJZNSE_6createISG_JN9__gnu_cxx17__normal_iteratorIPKSA_S0_ISA_SaISA_EEEESP_EEEPT_DpOT0_EUlSH_E_EERT0_RSt11_Tuple_implIXT_EJSW_DpT1_EE
FNA:8,126,_ZSt12__get_helperILm0EPSt6vectorIN8nlohmann16json_abi_v3_11_310basic_jsonISt3mapS0_NSt7__cxx1112basic_stringIcSt11char_traitsIcESaIcEEEblmdSaNS2_14adl_serializerES0_IhSaIhEEvEESaISE_EEJZNSE_6createISG_JPKNS2_6detail8json_refISE_EESN_EEEPT_DpOT0_EUlSH_E_EERT0_RSt11_Tuple_implIXT_EJSU_DpT1_EE
FNA:8,222,_ZSt12__get_helperILm0EPSt6vectorIN8nlohmann16json_abi_v3_11_310basic_jsonISt3mapS0_NSt7__cxx1112basic_stringIcSt11char_traitsIcESaIcEEEblmdSaNS2_14adl_serializerES0_IhSaIhEEvEESaISE_EEJZNSE_6createISG_JRKSG_EEEPT_DpOT0_EUlSH_E_EERT0_RSt11_Tuple_implIXT_EJSR_DpT1_EE
FNA:8,4,_ZSt12__get_helperILm0ERKNSt7__cxx1112basic_stringIcSt11char_traitsIcESaIcEEEJEERT0_RSt11_Tuple_implIXT_EJS8_DpT1_EE
FNA:8,0,_ZSt12__get_helperILm1ESt14default_deleteINSt7__cxx1112basic_stringIcSt11char_traitsIcESaIcEEEEJEERT0_RSt11_Tuple_implIXT_EJS8_DpT1_EE
FNA:8,5,_ZSt12__get_helperILm1ESt14default_deleteINSt7__cxx1118basic_stringstreamIcSt11char_traitsIcESaIcEEEEJEERT0_RSt11_Tuple_implIXT_EJS8_DpT1_EE
FNA:8,0,_ZSt12__get_helperILm1EZN8nlohmann16json_abi_v3_11_310basic_jsonISt3mapSt6vectorNSt7__cxx1112basic_stringIcSt11char_traitsIcESaIcEEEblmdSaNS1_14adl_serializerES4_IhSaIhEEvE6createINS1_27byte_container_with_subtypeISD_EEJEEEPT_DpOT0_EUlPSH_E_JEERT0_RSt11_Tuple_implIXT_EJSP_DpT1_EE
FNA:8,0,_ZSt12__get_helperILm1EZN8nlohmann16json_abi_v3_11_310basic_jsonISt3mapSt6vectorNSt7__cxx1112basic_stringIcSt11char_traitsIcESaIcEEEblmdSaNS1_14adl_serializerES4_IhSaIhEEvE6createINS1_27byte_container_with_subtypeISD_EEJRKSH_EEEPT_DpOT0_EUlPSH_E_JEERT0_RSt11_Tuple_implIXT_EJSR_DpT1_EE
FNA:8,0,_ZSt12__get_helperILm1EZN8nlohmann16json_abi_v3_11_310basic_jsonISt3mapSt6vectorNSt7__cxx1112basic_stringIcSt11char_traitsIcESaIcEEEblmdSaNS1_14adl_serializerES4_IhSaIhEEvE6createIS3_ISA_SE_St4lessIvESaISt4pairIKSA_SE_EEEJEEEPT_DpOT0_EUlPSM_E_JEERT0_RSt11_Tuple_implIXT_EJSU_DpT1_EE
FNA:8,0,_ZSt12__get_helperILm1EZN8nlohmann16json_abi_v3_11_310basic_jsonISt3mapSt6vectorNSt7__cxx1112basic_stringIcSt11char_traitsIcESaIcEEEblmdSaNS1_14adl_serializerES4_IhSaIhEEvE6createIS3_ISA_SE_St4lessIvESaISt4pairIKSA_SE_EEEJRKSM_EEEPT_DpOT0_EUlPSM_E_JEERT0_RSt11_Tuple_implIXT_EJSW_DpT1_EE
FNA:8,0,_ZSt12__get_helperILm1EZN8nlohmann16json_abi_v3_11_310basic_jsonISt3mapSt6vectorNSt7__cxx1112basic_stringIcSt11char_traitsIcESaIcEEEblmdSaNS1_14adl_serializerES4_IhSaIhEEvE6createIS4_ISE_SaISE_EEJEEEPT_DpOT0_EUlPSH_E_JEERT0_RSt11_Tuple_implIXT_EJSP_DpT1_EE
FNA:8,0,_ZSt12__get_helperILm1EZN8nlohmann16json_abi_v3_11_310basic_jsonISt3mapSt6vectorNSt7__cxx1112basic_stringIcSt11char_traitsIcESaIcEEEblmdSaNS1_14adl_serializerES4_IhSaIhEEvE6createIS4_ISE_SaISE_EEJN9__gnu_cxx17__normal_iteratorIPKSA_S4_ISA_SaISA_EEEESO_EEEPT_DpOT0_EUlPSH_E_JEERT0_RSt11_Tuple_implIXT_EJSW_DpT1_EE
FNA:8,0,_ZSt12__get_helperILm1EZN8nlohmann16json_abi_v3_11_310basic_jsonISt3mapSt6vectorNSt7__cxx1112basic_stringIcSt11char_traitsIcESaIcEEEblmdSaNS1_14adl_serializerES4_IhSaIhEEvE6createIS4_ISE_SaISE_EEJPKNS1_6detail8json_refISE_EESM_EEEPT_DpOT0_EUlPSH_E_JEERT0_RSt11_Tuple_implIXT_EJSU_DpT1_EE
FNA:8,0,_ZSt12__get_helperILm1EZN8nlohmann16json_abi_v3_11_310basic_jsonISt3mapSt6vectorNSt7__cxx1112basic_stringIcSt11char_traitsIcESaIcEEEblmdSaNS1_14adl_serializerES4_IhSaIhEEvE6createIS4_ISE_SaISE_EEJRKSH_EEEPT_DpOT0_EUlPSH_E_JEERT0_RSt11_Tuple_implIXT_EJSR_DpT1_EE
FNA:8,0,_ZSt12__get_helperILm1EZN8nlohmann16json_abi_v3_11_310basic_jsonISt3mapSt6vectorNSt7__cxx1112basic_stringIcSt11char_traitsIcESaIcEEEblmdSaNS1_14adl_serializerES4_IhSaIhEEvE6createISA_JRA1_KcEEEPT_DpOT0_EUlPSA_E_JEERT0_RSt11_Tuple_implIXT_EJSQ_DpT1_EE
FNA:8,0,_ZSt12__get_helperILm1EZN8nlohmann16json_abi_v3_11_310basic_jsonISt3mapSt6vectorNSt7__cxx1112basic_stringIcSt11char_traitsIcESaIcEEEblmdSaNS1_14adl_serializerES4_IhSaIhEEvE6createISA_JRKSA_EEEPT_DpOT0_EUlPSA_E_JEERT0_RSt11_Tuple_implIXT_EJSP_DpT1_EE
FNL:9,2433,2434
FNA:9,0,_ZSt12__get_helperILm0EPN8nlohmann16json_abi_v3_11_327byte_container_with_subtypeISt6vectorIhSaIhEEEEJZNS1_10basic_jsonISt3mapS3_NSt7__cxx1112basic_stringIcSt11char_traitsIcESaIcEEEblmdSaNS1_14adl_serializerES5_vE6createIS6_JEEEPT_DpOT0_EUlS7_E_EERKT0_RKSt11_Tuple_implIXT_EJSP_DpT1_EE
FNA:9,0,_ZSt12__get_helperILm0EPN8nlohmann16json_abi_v3_11_327byte_container_with_subtypeISt6vectorIhSaIhEEEEJZNS1_10basic_jsonISt3mapS3_NSt7__cxx1112basic_stringIcSt11char_traitsIcESaIcEEEblmdSaNS1_14adl_serializerES5_vE6createIS6_JRKS6_EEEPT_DpOT0_EUlS7_E_EERKT0_RKSt11_Tuple_implIXT_EJSR_DpT1_EE
FNA:9,0,_ZSt12__get_helperILm0EPNSt7__cxx1112basic_stringIcSt11char_traitsIcESaIcEEEJSt14default_deleteIS5_EEERKT0_RKSt11_Tuple_implIXT_EJS9_DpT1_EE
FNA:9,0,_ZSt12__get_helperILm0EPNSt7__cxx1112basic_stringIcSt11char_traitsIcESaIcEEEJZN8nlohmann16json_abi_v3_11_310basic_jsonISt3mapSt6vectorS5_blmdSaNS8_14adl_serializerESB_IhSaIhEEvE6createIS5_JRA1_KcEEEPT_DpOT0_EUlS6_E_EERKT0_RKSt11_Tuple_implIXT_EJSQ_DpT1_EE
FNA:9,110,_ZSt12__get_helperILm0EPNSt7__cxx1112basic_stringIcSt11char_traitsIcESaIcEEEJZN8nlohmann16json_abi_v3_11_310basic_jsonISt3mapSt6vectorS5_blmdSaNS8_14adl_serializerESB_IhSaIhEEvE6createIS5_JRKS5_EEEPT_DpOT0_EUlS6_E_EERKT0_RKSt11_Tuple_implIXT_EJSP_DpT1_EE
FNA:9,38,_ZSt12__get_helperILm0EPSt3mapINSt7__cxx1112basic_stringIcSt11char_traitsIcESaIcEEEN8nlohmann16json_abi_v3_11_310basic_jsonIS0_St6vectorS6_blmdSaNS8_14adl_serializerESA_IhSaIhEEvEESt4lessIvESaISt4pairIKS6_SE_EEEJZNSE_6createISL_JEEEPT_DpOT0_EUlSM_E_EERKT0_RKSt11_Tuple_implIXT_EJSU_DpT1_EE
FNA:9,18,_ZSt12__get_helperILm0EPSt3mapINSt7__cxx1112basic_stringIcSt11char_traitsIcESaIcEEEN8nlohmann16json_abi_v3_11_310basic_jsonIS0_St6vectorS6_blmdSaNS8_14adl_serializerESA_IhSaIhEEvEESt4lessIvESaISt4pairIKS6_SE_EEEJZNSE_6createISL_JRKSL_EEEPT_DpOT0_EUlSM_E_EERKT0_RKSt11_Tuple_implIXT_EJSW_DpT1_EE
FNA:9,4,_ZSt12__get_helperILm0EPSt6vectorIN8nlohmann16json_abi_v3_11_310basic_jsonISt3mapS0_NSt7__cxx1112basic_stringIcSt11char_traitsIcESaIcEEEblmdSaNS2_14adl_serializerES0_IhSaIhEEvEESaISE_EEJZNSE_6createISG_JEEEPT_DpOT0_EUlSH_E_EERKT0_RKSt11_Tuple_implIXT_EJSP_DpT1_EE
FNA:9,4,_ZSt12__get_helperILm0EPSt6vectorIN8nlohmann16json_abi_v3_11_310basic_jsonISt3mapS0_NSt7__cxx1112basic_stringIcSt11char_traitsIcESaIcEEEblmdSaNS2_14adl_serializerES0_IhSaIhEEvEESaISE_EEJZNSE_6createISG_JN9__gnu_cxx17__normal_iteratorIPKSA_S0_ISA_SaISA_EEEESP_EEEPT_DpOT0_EUlSH_E_EERKT0_RKSt11_Tuple_implIXT_EJSW_DpT1_EE
FNA:9,84,_ZSt12__get_helperILm0EPSt6vectorIN8nlohmann16json_abi_v3_11_310basic_jsonISt3mapS0_NSt7__cxx1112basic_stringIcSt11char_traitsIcESaIcEEEblmdSaNS2_14adl_serializerES0_IhSaIhEEvEESaISE_EEJZNSE_6createISG_JPKNS2_6detail8json_refISE_EESN_EEEPT_DpOT0_EUlSH_E_EERKT0_RKSt11_Tuple_implIXT_EJSU_DpT1_EE
FNA:9,148,_ZSt12__get_helperILm0EPSt6vectorIN8nlohmann16json_abi_v3_11_310basic_jsonISt3mapS0_NSt7__cxx1112basic_stringIcSt11char_traitsIcESaIcEEEblmdSaNS2_14adl_serializerES0_IhSaIhEEvEESaISE_EEJZNSE_6createISG_JRKSG_EEEPT_DpOT0_EUlSH_E_EERKT0_RKSt11_Tuple_implIXT_EJSR_DpT1_EE
FNL:10,2444,2445
FNA:10,0,_ZSt3getILm0EJPN8nlohmann16json_abi_v3_11_327byte_container_with_subtypeISt6vectorIhSaIhEEEEZNS1_10basic_jsonISt3mapS3_NSt7__cxx1112basic_stringIcSt11char_traitsIcESaIcEEEblmdSaNS1_14adl_serializerES5_vE6createIS6_JEEEPT_DpOT0_EUlS7_E_EERNSt13tuple_elementIXT_ESt5tupleIJDpSL_EEE4typeERSS_
FNA:10,0,_ZSt3getILm0EJPN8nlohmann16json_abi_v3_11_327byte_container_with_subtypeISt6vectorIhSaIhEEEEZNS1_10basic_jsonISt3mapS3_NSt7__cxx1112basic_stringIcSt11char_traitsIcESaIcEEEblmdSaNS1_14adl_serializerES5_vE6createIS6_JRKS6_EEEPT_DpOT0_EUlS7_E_EERNSt13tuple_elementIXT_ESt5tupleIJDpSN_EEE4typeERSU_
FNA:10,273,_ZSt3getILm0EJPNSt7__cxx1112basic_stringIcSt11char_traitsIcESaIcEEESt14default_deleteIS5_EEERNSt13tuple_elementIXT_ESt5tupleIJDpT0_EEE4typeERSD_
FNA:10,0,_ZSt3getILm0EJPNSt7__cxx1112basic_stringIcSt11char_traitsIcESaIcEEEZN8nlohmann16json_abi_v3_11_310basic_jsonISt3mapSt6vectorS5_blmdSaNS8_14adl_serializerESB_IhSaIhEEvE6createIS5_JRA1_KcEEEPT_DpOT0_EUlS6_E_EERNSt13tuple_elementIXT_ESt5tupleIJDpSM_EEE4typeERST_
FNA:10,165,_ZSt3getILm0EJPNSt7__cxx1112basic_stringIcSt11char_traitsIcESaIcEEEZN8nlohmann16json_abi_v3_11_310basic_jsonISt3mapSt6vectorS5_blmdSaNS8_14adl_serializerESB_IhSaIhEEvE6createIS5_JRKS5_EEEPT_DpOT0_EUlS6_E_EERNSt13tuple_elementIXT_ESt5tupleIJDpSL_EEE4typeERSS_
FNA:10,5,_ZSt3getILm0EJPNSt7__cxx1118basic_stringstreamIcSt11char_traitsIcESaIcEEESt14default_deleteIS5_EEERNSt13tuple_elementIXT_ESt5tupleIJDpT0_EEE4typeERSD_
FNA:10,57,_ZSt3getILm0EJPSt3mapINSt7__cxx1112basic_stringIcSt11char_traitsIcESaIcEEEN8nlohmann16json_abi_v3_11_310basic_jsonIS0_St6vectorS6_blmdSaNS8_14adl_serializerESA_IhSaIhEEvEESt4lessIvESaISt4pairIKS6_SE_EEEZNSE_6createISL_JEEEPT_DpOT0_EUlSM_E_EERNSt13tuple_elementIXT_ESt5tupleIJDpSQ_EEE4typeERSX_
FNA:10,27,_ZSt3getILm0EJPSt3mapINSt7__cxx1112basic_stringIcSt11char_traitsIcESaIcEEEN8nlohmann16json_abi_v3_11_310basic_jsonIS0_St6vectorS6_blmdSaNS8_14adl_serializerESA_IhSaIhEEvEESt4lessIvESaISt4pairIKS6_SE_EEEZNSE_6createISL_JRKSL_EEEPT_DpOT0_EUlSM_E_EERNSt13tuple_elementIXT_ESt5tupleIJDpSS_EEE4typeERSZ_
FNA:10,6,_ZSt3getILm0EJPSt6vectorIN8nlohmann16json_abi_v3_11_310basic_jsonISt3mapS0_NSt7__cxx1112basic_stringIcSt11char_traitsIcESaIcEEEblmdSaNS2_14adl_serializerES0_IhSaIhEEvEESaISE_EEZNSE_6createISG_JEEEPT_DpOT0_EUlSH_E_EERNSt13tuple_elementIXT_ESt5tupleIJDpSL_EEE4typeERSS_
FNA:10,6,_ZSt3getILm0EJPSt6vectorIN8nlohmann16json_abi_v3_11_310basic_jsonISt3mapS0_NSt7__cxx1112basic_stringIcSt11char_traitsIcESaIcEEEblmdSaNS2_14adl_serializerES0_IhSaIhEEvEESaISE_EEZNSE_6createISG_JN9__gnu_cxx17__normal_iteratorIPKSA_S0_ISA_SaISA_EEEESP_EEEPT_DpOT0_EUlSH_E_EERNSt13tuple_elementIXT_ESt5tupleIJDpSS_EEE4typeERSZ_
FNA:10,126,_ZSt3getILm0EJPSt6vectorIN8nlohmann16json_abi_v3_11_310basic_jsonISt3mapS0_NSt7__cxx1112basic_stringIcSt11char_traitsIcESaIcEEEblmdSaNS2_14adl_serializerES0_IhSaIhEEvEESaISE_EEZNSE_6createISG_JPKNS2_6detail8json_refISE_EESN_EEEPT_DpOT0_EUlSH_E_EERNSt13tuple_elementIXT_ESt5tupleIJDpSQ_EEE4typeERSX_
FNA:10,222,_ZSt3getILm0EJPSt6vectorIN8nlohmann16json_abi_v3_11_310basic_jsonISt3mapS0_NSt7__cxx1112basic_stringIcSt11char_traitsIcESaIcEEEblmdSaNS2_14adl_serializerES0_IhSaIhEEvEESaISE_EEZNSE_6createISG_JRKSG_EEEPT_DpOT0_EUlSH_E_EERNSt13tuple_elementIXT_ESt5tupleIJDpSN_EEE4typeERSU_
FNA:10,4,_ZSt3getILm0EJRKNSt7__cxx1112basic_stringIcSt11char_traitsIcESaIcEEEEERNSt13tuple_elementIXT_ESt5tupleIJDpT0_EEE4typeERSC_
FNA:10,0,_ZSt3getILm1EJPN8nlohmann16json_abi_v3_11_327byte_container_with_subtypeISt6vectorIhSaIhEEEEZNS1_10basic_jsonISt3mapS3_NSt7__cxx1112basic_stringIcSt11char_traitsIcESaIcEEEblmdSaNS1_14adl_serializerES5_vE6createIS6_JEEEPT_DpOT0_EUlS7_E_EERNSt13tuple_elementIXT_ESt5tupleIJDpSL_EEE4typeERSS_
FNA:10,0,_ZSt3getILm1EJPN8nlohmann16json_abi_v3_11_327byte_container_with_subtypeISt6vectorIhSaIhEEEEZNS1_10basic_jsonISt3mapS3_NSt7__cxx1112basic_stringIcSt11char_traitsIcESaIcEEEblmdSaNS1_14adl_serializerES5_vE6createIS6_JRKS6_EEEPT_DpOT0_EUlS7_E_EERNSt13tuple_elementIXT_ESt5tupleIJDpSN_EEE4typeERSU_
FNA:10,0,_ZSt3getILm1EJPNSt7__cxx1112basic_stringIcSt11char_traitsIcESaIcEEESt14default_deleteIS5_EEERNSt13tuple_elementIXT_ESt5tupleIJDpT0_EEE4typeERSD_
FNA:10,0,_ZSt3getILm1EJPNSt7__cxx1112basic_stringIcSt11char_traitsIcESaIcEEEZN8nlohmann16json_abi_v3_11_310basic_jsonISt3mapSt6vectorS5_blmdSaNS8_14adl_serializerESB_IhSaIhEEvE6createIS5_JRA1_KcEEEPT_DpOT0_EUlS6_E_EERNSt13tuple_elementIXT_ESt5tupleIJDpSM_EEE4typeERST_
FNA:10,0,_ZSt3getILm1EJPNSt7__cxx1112basic_stringIcSt11char_traitsIcESaIcEEEZN8nlohmann16json_abi_v3_11_310basic_jsonISt3mapSt6vectorS5_blmdSaNS8_14adl_serializerESB_IhSaIhEEvE6createIS5_JRKS5_EEEPT_DpOT0_EUlS6_E_EERNSt13tuple_elementIXT_ESt5tupleIJDpSL_EEE4typeERSS_
FNA:10,5,_ZSt3getILm1EJPNSt7__cxx1118basic_stringstreamIcSt11char_traitsIcESaIcEEESt14default_deleteIS5_EEERNSt13tuple_elementIXT_ESt5tupleIJDpT0_EEE4typeERSD_
FNA:10,0,_ZSt3getILm1EJPSt3mapINSt7__cxx1112basic_stringIcSt11char_traitsIcESaIcEEEN8nlohmann16json_abi_v3_11_310basic_jsonIS0_St6vectorS6_blmdSaNS8_14adl_serializerESA_IhSaIhEEvEESt4lessIvESaISt4pairIKS6_SE_EEEZNSE_6createISL_JEEEPT_DpOT0_EUlSM_E_EERNSt13tuple_elementIXT_ESt5tupleIJDpSQ_EEE4typeERSX_
FNA:10,0,_ZSt3getILm1EJPSt3mapINSt7__cxx1112basic_stringIcSt11char_traitsIcESaIcEEEN8nlohmann16json_abi_v3_11_310basic_jsonIS0_St6vectorS6_blmdSaNS8_14adl_serializerESA_IhSaIhEEvEESt4lessIvESaISt4pairIKS6_SE_EEEZNSE_6createISL_JRKSL_EEEPT_DpOT0_EUlSM_E_EERNSt13tuple_elementIXT_ESt5tupleIJDpSS_EEE4typeERSZ_
FNA:10,0,_ZSt3getILm1EJPSt6vectorIN8nlohmann16json_abi_v3_11_310basic_jsonISt3mapS0_NSt7__cxx1112basic_stringIcSt11char_traitsIcESaIcEEEblmdSaNS2_14adl_serializerES0_IhSaIhEEvEESaISE_EEZNSE_6createISG_JEEEPT_DpOT0_EUlSH_E_EERNSt13tuple_elementIXT_ESt5tupleIJDpSL_EEE4typeERSS_
FNA:10,0,_ZSt3getILm1EJPSt6vectorIN8nlohmann16json_abi_v3_11_310basic_jsonISt3mapS0_NSt7__cxx1112basic_stringIcSt11char_traitsIcESaIcEEEblmdSaNS2_14adl_serializerES0_IhSaIhEEvEESaISE_EEZNSE_6createISG_JN9__gnu_cxx17__normal_iteratorIPKSA_S0_ISA_SaISA_EEEESP_EEEPT_DpOT0_EUlSH_E_EERNSt13tuple_elementIXT_ESt5tupleIJDpSS_EEE4typeERSZ_
FNA:10,0,_ZSt3getILm1EJPSt6vectorIN8nlohmann16json_abi_v3_11_310basic_jsonISt3mapS0_NSt7__cxx1112basic_stringIcSt11char_traitsIcESaIcEEEblmdSaNS2_14adl_serializerES0_IhSaIhEEvEESaISE_EEZNSE_6createISG_JPKNS2_6detail8json_refISE_EESN_EEEPT_DpOT0_EUlSH_E_EERNSt13tuple_elementIXT_ESt5tupleIJDpSQ_EEE4typeERSX_
FNA:10,0,_ZSt3getILm1EJPSt6vectorIN8nlohmann16json_abi_v3_11_310basic_jsonISt3mapS0_NSt7__cxx1112basic_stringIcSt11char_traitsIcESaIcEEEblmdSaNS2_14adl_serializerES0_IhSaIhEEvEESaISE_EEZNSE_6createISG_JRKSG_EEEPT_DpOT0_EUlSH_E_EERNSt13tuple_elementIXT_ESt5tupleIJDpSN_EEE4typeERSU_
FNL:11,2450,2451
FNA:11,0,_ZSt3getILm0EJPN8nlohmann16json_abi_v3_11_327byte_container_with_subtypeISt6vectorIhSaIhEEEEZNS1_10basic_jsonISt3mapS3_NSt7__cxx1112basic_stringIcSt11char_traitsIcESaIcEEEblmdSaNS1_14adl_serializerES5_vE6createIS6_JEEEPT_DpOT0_EUlS7_E_EERKNSt13tuple_elementIXT_ESt5tupleIJDpSL_EEE4typeERKSS_
FNA:11,0,_ZSt3getILm0EJPN8nlohmann16json_abi_v3_11_327byte_container_with_subtypeISt6vectorIhSaIhEEEEZNS1_10basic_jsonISt3mapS3_NSt7__cxx1112basic_stringIcSt11char_traitsIcESaIcEEEblmdSaNS1_14adl_serializerES5_vE6createIS6_JRKS6_EEEPT_DpOT0_EUlS7_E_EERKNSt13tuple_elementIXT_ESt5tupleIJDpSN_EEE4typeERKSU_
FNA:11,0,_ZSt3getILm0EJPNSt7__cxx1112basic_stringIcSt11char_traitsIcESaIcEEESt14default_deleteIS5_EEERKNSt13tuple_elementIXT_ESt5tupleIJDpT0_EEE4typeERKSD_
FNA:11,0,_ZSt3getILm0EJPNSt7__cxx1112basic_stringIcSt11char_traitsIcESaIcEEEZN8nlohmann16json_abi_v3_11_310basic_jsonISt3mapSt6vectorS5_blmdSaNS8_14adl_serializerESB_IhSaIhEEvE6createIS5_JRA1_KcEEEPT_DpOT0_EUlS6_E_EERKNSt13tuple_elementIXT_ESt5tupleIJDpSM_EEE4typeERKST_
FNA:11,110,_ZSt3getILm0EJPNSt7__cxx1112basic_stringIcSt11char_traitsIcESaIcEEEZN8nlohmann16json_abi_v3_11_310basic_jsonISt3mapSt6vectorS5_blmdSaNS8_14adl_serializerESB_IhSaIhEEvE6createIS5_JRKS5_EEEPT_DpOT0_EUlS6_E_EERKNSt13tuple_elementIXT_ESt5tupleIJDpSL_EEE4typeERKSS_
FNA:11,38,_ZSt3getILm0EJPSt3mapINSt7__cxx1112basic_stringIcSt11char_traitsIcESaIcEEEN8nlohmann16json_abi_v3_11_310basic_jsonIS0_St6vectorS6_blmdSaNS8_14adl_serializerESA_IhSaIhEEvEESt4lessIvESaISt4pairIKS6_SE_EEEZNSE_6createISL_JEEEPT_DpOT0_EUlSM_E_EERKNSt13tuple_elementIXT_ESt5tupleIJDpSQ_EEE4typeERKSX_
FNA:11,18,_ZSt3getILm0EJPSt3mapINSt7__cxx1112basic_stringIcSt11char_traitsIcESaIcEEEN8nlohmann16json_abi_v3_11_310basic_jsonIS0_St6vectorS6_blmdSaNS8_14adl_serializerESA_IhSaIhEEvEESt4lessIvESaISt4pairIKS6_SE_EEEZNSE_6createISL_JRKSL_EEEPT_DpOT0_EUlSM_E_EERKNSt13tuple_elementIXT_ESt5tupleIJDpSS_EEE4typeERKSZ_
FNA:11,4,_ZSt3getILm0EJPSt6vectorIN8nlohmann16json_abi_v3_11_310basic_jsonISt3mapS0_NSt7__cxx1112basic_stringIcSt11char_traitsIcESaIcEEEblmdSaNS2_14adl_serializerES0_IhSaIhEEvEESaISE_EEZNSE_6createISG_JEEEPT_DpOT0_EUlSH_E_EERKNSt13tuple_elementIXT_ESt5tupleIJDpSL_EEE4typeERKSS_
FNA:11,4,_ZSt3getILm0EJPSt6vectorIN8nlohmann16json_abi_v3_11_310basic_jsonISt3mapS0_NSt7__cxx1112basic_stringIcSt11char_traitsIcESaIcEEEblmdSaNS2_14adl_serializerES0_IhSaIhEEvEESaISE_EEZNSE_6createISG_JN9__gnu_cxx17__normal_iteratorIPKSA_S0_ISA_SaISA_EEEESP_EEEPT_DpOT0_EUlSH_E_EERKNSt13tuple_elementIXT_ESt5tupleIJDpSS_EEE4typeERKSZ_
FNA:11,84,_ZSt3getILm0EJPSt6vectorIN8nlohmann16json_abi_v3_11_310basic_jsonISt3mapS0_NSt7__cxx1112basic_stringIcSt11char_traitsIcESaIcEEEblmdSaNS2_14adl_serializerES0_IhSaIhEEvEESaISE_EEZNSE_6createISG_JPKNS2_6detail8json_refISE_EESN_EEEPT_DpOT0_EUlSH_E_EERKNSt13tuple_elementIXT_ESt5tupleIJDpSQ_EEE4typeERKSX_
FNA:11,148,_ZSt3getILm0EJPSt6vectorIN8nlohmann16json_abi_v3_11_310basic_jsonISt3mapS0_NSt7__cxx1112basic_stringIcSt11char_traitsIcESaIcEEEblmdSaNS2_14adl_serializerES0_IhSaIhEEvEESaISE_EEZNSE_6createISG_JRKSG_EEEPT_DpOT0_EUlSH_E_EERKNSt13tuple_elementIXT_ESt5tupleIJDpSN_EEE4typeERKSU_
FNL:12,246,246
FNA:12,0,_ZNSt10_Head_baseILm0EPN8nlohmann16json_abi_v3_11_327byte_container_with_subtypeISt6vectorIhSaIhEEEELb0EE7_M_headERS8_
FNA:12,438,_ZNSt10_Head_baseILm0EPNSt7__cxx1112basic_stringIcSt11char_traitsIcESaIcEEELb0EE7_M_headERS7_
FNA:12,5,_ZNSt10_Head_baseILm0EPNSt7__cxx1118basic_stringstreamIcSt11char_traitsIcESaIcEEELb0EE7_M_headERS7_
FNA:12,84,_ZNSt10_Head_baseILm0EPSt3mapINSt7__cxx1112basic_stringIcSt11char_traitsIcESaIcEEEN8nlohmann16json_abi_v3_11_310basic_jsonIS0_St6vectorS6_blmdSaNS8_14adl_serializerESA_IhSaIhEEvEESt4lessIvESaISt4pairIKS6_SE_EEELb0EE7_M_headERSN_
FNA:12,360,_ZNSt10_Head_baseILm0EPSt6vectorIN8nlohmann16json_abi_v3_11_310basic_jsonISt3mapS0_NSt7__cxx1112basic_stringIcSt11char_traitsIcESaIcEEEblmdSaNS2_14adl_serializerES0_IhSaIhEEvEESaISE_EELb0EE7_M_headERSI_
FNA:12,4,_ZNSt10_Head_baseILm0ERKNSt7__cxx1112basic_stringIcSt11char_traitsIcESaIcEEELb0EE7_M_headERS8_
FNA:12,0,_ZNSt10_Head_baseILm1EZN8nlohmann16json_abi_v3_11_310basic_jsonISt3mapSt6vectorNSt7__cxx1112basic_stringIcSt11char_traitsIcESaIcEEEblmdSaNS1_14adl_serializerES4_IhSaIhEEvE6createINS1_27byte_container_with_subtypeISD_EEJEEEPT_DpOT0_EUlPSH_E_Lb0EE7_M_headERSP_
FNA:12,0,_ZNSt10_Head_baseILm1EZN8nlohmann16json_abi_v3_11_310basic_jsonISt3mapSt6vectorNSt7__cxx1112basic_stringIcSt11char_traitsIcESaIcEEEblmdSaNS1_14adl_serializerES4_IhSaIhEEvE6createINS1_27byte_container_with_subtypeISD_EEJRKSH_EEEPT_DpOT0_EUlPSH_E_Lb0EE7_M_headERSR_
FNA:12,0,_ZNSt10_Head_baseILm1EZN8nlohmann16json_abi_v3_11_310basic_jsonISt3mapSt6vectorNSt7__cxx1112basic_stringIcSt11char_traitsIcESaIcEEEblmdSaNS1_14adl_serializerES4_IhSaIhEEvE6createIS3_ISA_SE_St4lessIvESaISt4pairIKSA_SE_EEEJEEEPT_DpOT0_EUlPSM_E_Lb0EE7_M_headERSU_
FNA:12,0,_ZNSt10_Head_baseILm1EZN8nlohmann16json_abi_v3_11_310basic_jsonISt3mapSt6vectorNSt7__cxx1112basic_stringIcSt11char_traitsIcESaIcEEEblmdSaNS1_14adl_serializerES4_IhSaIhEEvE6createIS3_ISA_SE_St4lessIvESaISt4pairIKSA_SE_EEEJRKSM_EEEPT_DpOT0_EUlPSM_E_Lb0EE7_M_headERSW_
FNA:12,0,_ZNSt10_Head_baseILm1EZN8nlohmann16json_abi_v3_11_310basic_jsonISt3mapSt6vectorNSt7__cxx1112basic_stringIcSt11char_traitsIcESaIcEEEblmdSaNS1_14adl_serializerES4_IhSaIhEEvE6createIS4_ISE_SaISE_EEJEEEPT_DpOT0_EUlPSH_E_Lb0EE7_M_headERSP_
FNA:12,0,_ZNSt10_Head_baseILm1EZN8nlohmann16json_abi_v3_11_310basic_jsonISt3mapSt6vectorNSt7__cxx1112basic_stringIcSt11char_traitsIcESaIcEEEblmdSaNS1_14adl_serializerES4_IhSaIhEEvE6createIS4_ISE_SaISE_EEJN9__gnu_cxx17__normal_iteratorIPKSA_S4_ISA_SaISA_EEEESO_EEEPT_DpOT0_EUlPSH_E_Lb0EE7_M_headERSW_
FNA:12,0,_ZNSt10_Head_baseILm1EZN8nlohmann16json_abi_v3_11_310basic_jsonISt3mapSt6vectorNSt7__cxx1112basic_stringIcSt11char_traitsIcESaIcEEEblmdSaNS1_14adl_serializerES4_IhSaIhEEvE6createIS4_ISE_SaISE_EEJPKNS1_6detail8json_refISE_EESM_EEEPT_DpOT0_EUlPSH_E_Lb0EE7_M_headERSU_
FNA:12,0,_ZNSt10_Head_baseILm1EZN8nlohmann16json_abi_v3_11_310basic_jsonISt3mapSt6vectorNSt7__cxx1112basic_stringIcSt11char_traitsIcESaIcEEEblmdSaNS1_14adl_serializerES4_IhSaIhEEvE6createIS4_ISE_SaISE_EEJRKSH_EEEPT_DpOT0_EUlPSH_E_Lb0EE7_M_headERSR_
FNA:12,0,_ZNSt10_Head_baseILm1EZN8nlohmann16json_abi_v3_11_310basic_jsonISt3mapSt6vectorNSt7__cxx1112basic_stringIcSt11char_traitsIcESaIcEEEblmdSaNS1_14adl_serializerES4_IhSaIhEEvE6createISA_JRA1_KcEEEPT_DpOT0_EUlPSA_E_Lb0EE7_M_headERSQ_
FNA:12,0,_ZNSt10_Head_baseILm1EZN8nlohmann16json_abi_v3_11_310basic_jsonISt3mapSt6vectorNSt7__cxx1112basic_stringIcSt11char_traitsIcESaIcEEEblmdSaNS1_14adl_serializerES4_IhSaIhEEvE6createISA_JRKSA_EEEPT_DpOT0_EUlPSA_E_Lb0EE7_M_headERSP_
FNL:13,249,249
FNA:13,0,_ZNSt10_Head_baseILm0EPN8nlohmann16json_abi_v3_11_327byte_container_with_subtypeISt6vectorIhSaIhEEEELb0EE7_M_headERKS8_
FNA:13,110,_ZNSt10_Head_baseILm0EPNSt7__cxx1112basic_stringIcSt11char_traitsIcESaIcEEELb0EE7_M_headERKS7_
FNA:13,56,_ZNSt10_Head_baseILm0EPSt3mapINSt7__cxx1112basic_stringIcSt11char_traitsIcESaIcEEEN8nlohmann16json_abi_v3_11_310basic_jsonIS0_St6vectorS6_blmdSaNS8_14adl_serializerESA_IhSaIhEEvEESt4lessIvESaISt4pairIKS6_SE_EEELb0EE7_M_headERKSN_
FNA:13,240,_ZNSt10_Head_baseILm0EPSt6vectorIN8nlohmann16json_abi_v3_11_310basic_jsonISt3mapS0_NSt7__cxx1112basic_stringIcSt11char_traitsIcESaIcEEEblmdSaNS2_14adl_serializerES0_IhSaIhEEvEESaISE_EELb0EE7_M_headERKSI_
FNL:14,2871,2877
FNA:14,4,_ZNSt4pairIKNSt7__cxx1112basic_stringIcSt11char_traitsIcESaIcEEEN8nlohmann16json_abi_v3_11_310basic_jsonISt3mapSt6vectorS5_blmdSaNS8_14adl_serializerESB_IhSaIhEEvEEEC2IJRS6_EJEEESt21piecewise_construct_tSt5tupleIJDpT_EESK_IJDpT0_EE
FNL:15,2883,2888
FNA:15,4,_ZNSt4pairIKNSt7__cxx1112basic_stringIcSt11char_traitsIcESaIcEEEN8nlohmann16json_abi_v3_11_310basic_jsonISt3mapSt6vectorS5_blmdSaNS8_14adl_serializerESB_IhSaIhEEvEEEC2IJRS6_EJLm0EEJEJEEERSt5tupleIJDpT_EERSJ_IJDpT1_EESt12_Index_tupleIJXspT0_EEESS_IJXspT2_EEE
FNL:16,291,291
FNA:16,0,_ZNSt11_Tuple_implILm0EJPN8nlohmann16json_abi_v3_11_327byte_container_with_subtypeISt6vectorIhSaIhEEEEZNS1_10basic_jsonISt3mapS3_NSt7__cxx1112basic_stringIcSt11char_traitsIcESaIcEEEblmdSaNS1_14adl_serializerES5_vE6createIS6_JEEEPT_DpOT0_EUlS7_E_EE7_M_headERSP_
FNA:16,0,_ZNSt11_Tuple_implILm0EJPN8nlohmann16json_abi_v3_11_327byte_container_with_subtypeISt6vectorIhSaIhEEEEZNS1_10basic_jsonISt3mapS3_NSt7__cxx1112basic_stringIcSt11char_traitsIcESaIcEEEblmdSaNS1_14adl_serializerES5_vE6createIS6_JRKS6_EEEPT_DpOT0_EUlS7_E_EE7_M_headERSR_
FNA:16,273,_ZNSt11_Tuple_implILm0EJPNSt7__cxx1112basic_stringIcSt11char_traitsIcESaIcEEESt14default_deleteIS5_EEE7_M_headERS9_
FNA:16,0,_ZNSt11_Tuple_implILm0EJPNSt7__cxx1112basic_stringIcSt11char_traitsIcESaIcEEEZN8nlohmann16json_abi_v3_11_310basic_jsonISt3mapSt6vectorS5_blmdSaNS8_14adl_serializerESB_IhSaIhEEvE6createIS5_JRA1_KcEEEPT_DpOT0_EUlS6_E_EE7_M_headERSQ_
FNA:16,165,_ZNSt11_Tuple_implILm0EJPNSt7__cxx1112basic_stringIcSt11char_traitsIcESaIcEEEZN8nlohmann16json_abi_v3_11_310basic_jsonISt3mapSt6vectorS5_blmdSaNS8_14adl_serializerESB_IhSaIhEEvE6createIS5_JRKS5_EEEPT_DpOT0_EUlS6_E_EE7_M_headERSP_
FNA:16,5,_ZNSt11_Tuple_implILm0EJPNSt7__cxx1118basic_stringstreamIcSt11char_traitsIcESaIcEEESt14default_deleteIS5_EEE7_M_headERS9_
FNA:16,57,_ZNSt11_Tuple_implILm0EJPSt3mapINSt7__cxx1112basic_stringIcSt11char_traitsIcESaIcEEEN8nlohmann16json_abi_v3_11_310basic_jsonIS0_St6vectorS6_blmdSaNS8_14adl_serializerESA_IhSaIhEEvEESt4lessIvESaISt4pairIKS6_SE_EEEZNSE_6createISL_JEEEPT_DpOT0_EUlSM_E_EE7_M_headERSU_
FNA:16,27,_ZNSt11_Tuple_implILm0EJPSt3mapINSt7__cxx1112basic_stringIcSt11char_traitsIcESaIcEEEN8nlohmann16json_abi_v3_11_310basic_jsonIS0_St6vectorS6_blmdSaNS8_14adl_serializerESA_IhSaIhEEvEESt4lessIvESaISt4pairIKS6_SE_EEEZNSE_6createISL_JRKSL_EEEPT_DpOT0_EUlSM_E_EE7_M_headERSW_
FNA:16,6,_ZNSt11_Tuple_implILm0EJPSt6vectorIN8nlohmann16json_abi_v3_11_310basic_jsonISt3mapS0_NSt7__cxx1112basic_stringIcSt11char_traitsIcESaIcEEEblmdSaNS2_14adl_serializerES0_IhSaIhEEvEESaISE_EEZNSE_6createISG_JEEEPT_DpOT0_EUlSH_E_EE7_M_headERSP_
FNA:16,6,_ZNSt11_Tuple_implILm0EJPSt6vectorIN8nlohmann16json_abi_v3_11_310basic_jsonISt3mapS0_NSt7__cxx1112basic_stringIcSt11char_traitsIcESaIcEEEblmdSaNS2_14adl_serializerES0_IhSaIhEEvEESaISE_EEZNSE_6createISG_JN9__gnu_cxx17__normal_iteratorIPKSA_S0_ISA_SaISA_EEEESP_EEEPT_DpOT0_EUlSH_E_EE7_M_headERSW_
FNA:16,126,_ZNSt11_Tuple_implILm0EJPSt6vectorIN8nlohmann16json_abi_v3_11_310basic_jsonISt3mapS0_NSt7__cxx1112basic_stringIcSt11char_traitsIcESaIcEEEblmdSaNS2_14adl_serializerES0_IhSaIhEEvEESaISE_EEZNSE_6createISG_JPKNS2_6detail8json_refISE_EESN_EEEPT_DpOT0_EUlSH_E_EE7_M_headERSU_
FNA:16,222,_ZNSt11_Tuple_implILm0EJPSt6vectorIN8nlohmann16json_abi_v3_11_310basic_jsonISt3mapS0_NSt7__cxx1112basic_stringIcSt11char_traitsIcESaIcEEEblmdSaNS2_14adl_serializerES0_IhSaIhEEvEESaISE_EEZNSE_6createISG_JRKSG_EEEPT_DpOT0_EUlSH_E_EE7_M_headERSR_
FNL:17,294,294
FNA:17,0,_ZNSt11_Tuple_implILm0EJPN8nlohmann16json_abi_v3_11_327byte_container_with_subtypeISt6vectorIhSaIhEEEEZNS1_10basic_jsonISt3mapS3_NSt7__cxx1112basic_stringIcSt11char_traitsIcESaIcEEEblmdSaNS1_14adl_serializerES5_vE6createIS6_JEEEPT_DpOT0_EUlS7_E_EE7_M_headERKSP_
FNA:17,0,_ZNSt11_Tuple_implILm0EJPN8nlohmann16json_abi_v3_11_327byte_container_with_subtypeISt6vectorIhSaIhEEEEZNS1_10basic_jsonISt3mapS3_NSt7__cxx1112basic_stringIcSt11char_traitsIcESaIcEEEblmdSaNS1_14adl_serializerES5_vE6createIS6_JRKS6_EEEPT_DpOT0_EUlS7_E_EE7_M_headERKSR_
FNA:17,0,_ZNSt11_Tuple_implILm0EJPNSt7__cxx1112basic_stringIcSt11char_traitsIcESaIcEEESt14default_deleteIS5_EEE7_M_headERKS9_
FNA:17,0,_ZNSt11_Tuple_implILm0EJPNSt7__cxx1112basic_stringIcSt11char_traitsIcESaIcEEEZN8nlohmann16json_abi_v3_11_310basic_jsonISt3mapSt6vectorS5_blmdSaNS8_14adl_serializerESB_IhSaIhEEvE6createIS5_JRA1_KcEEEPT_DpOT0_EUlS6_E_EE7_M_headERKSQ_
FNA:17,110,_ZNSt11_Tuple_implILm0EJPNSt7__cxx1112basic_stringIcSt11char_traitsIcESaIcEEEZN8nlohmann16json_abi_v3_11_310basic_jsonISt3mapSt6vectorS5_blmdSaNS8_14adl_serializerESB_IhSaIhEEvE6createIS5_JRKS5_EEEPT_DpOT0_EUlS6_E_EE7_M_headERKSP_
FNA:17,38,_ZNSt11_Tuple_implILm0EJPSt3mapINSt7__cxx1112basic_stringIcSt11char_traitsIcESaIcEEEN8nlohmann16json_abi_v3_11_310basic_jsonIS0_St6vectorS6_blmdSaNS8_14adl_serializerESA_IhSaIhEEvEESt4lessIvESaISt4pairIKS6_SE_EEEZNSE_6createISL_JEEEPT_DpOT0_EUlSM_E_EE7_M_headERKSU_
FNA:17,18,_ZNSt11_Tuple_implILm0EJPSt3mapINSt7__cxx1112basic_stringIcSt11char_traitsIcESaIcEEEN8nlohmann16json_abi_v3_11_310basic_jsonIS0_St6vectorS6_blmdSaNS8_14adl_serializerESA_IhSaIhEEvEESt4lessIvESaISt4pairIKS6_SE_EEEZNSE_6createISL_JRKSL_EEEPT_DpOT0_EUlSM_E_EE7_M_headERKSW_
FNA:17,4,_ZNSt11_Tuple_implILm0EJPSt6vectorIN8nlohmann16json_abi_v3_11_310basic_jsonISt3mapS0_NSt7__cxx1112basic_stringIcSt11char_traitsIcESaIcEEEblmdSaNS2_14adl_serializerES0_IhSaIhEEvEESaISE_EEZNSE_6createISG_JEEEPT_DpOT0_EUlSH_E_EE7_M_headERKSP_
FNA:17,4,_ZNSt11_Tuple_implILm0EJPSt6vectorIN8nlohmann16json_abi_v3_11_310basic_jsonISt3mapS0_NSt7__cxx1112basic_stringIcSt11char_traitsIcESaIcEEEblmdSaNS2_14adl_serializerES0_IhSaIhEEvEESaISE_EEZNSE_6createISG_JN9__gnu_cxx17__normal_iteratorIPKSA_S0_ISA_SaISA_EEEESP_EEEPT_DpOT0_EUlSH_E_EE7_M_headERKSW_
FNA:17,84,_ZNSt11_Tuple_implILm0EJPSt6vectorIN8nlohmann16json_abi_v3_11_310basic_jsonISt3mapS0_NSt7__cxx1112basic_stringIcSt11char_traitsIcESaIcEEEblmdSaNS2_14adl_serializerES0_IhSaIhEEvEESaISE_EEZNSE_6createISG_JPKNS2_6detail8json_refISE_EESN_EEEPT_DpOT0_EUlSH_E_EE7_M_headERKSU_
FNA:17,148,_ZNSt11_Tuple_implILm0EJPSt6vectorIN8nlohmann16json_abi_v3_11_310basic_jsonISt3mapS0_NSt7__cxx1112basic_stringIcSt11char_traitsIcESaIcEEEblmdSaNS2_14adl_serializerES0_IhSaIhEEvEESaISE_EEZNSE_6createISG_JRKSG_EEEPT_DpOT0_EUlSH_E_EE7_M_headERKSR_
FNL:18,302,303
FNA:18,128,_ZNSt11_Tuple_implILm0EJPNSt7__cxx1112basic_stringIcSt11char_traitsIcESaIcEEESt14default_deleteIS5_EEEC2Ev
FNL:19,313,316
FNA:19,0,_ZNSt11_Tuple_implILm0EJPN8nlohmann16json_abi_v3_11_327byte_container_with_subtypeISt6vectorIhSaIhEEEEZNS1_10basic_jsonISt3mapS3_NSt7__cxx1112basic_stringIcSt11char_traitsIcESaIcEEEblmdSaNS1_14adl_serializerES5_vE6createIS6_JEEEPT_DpOT0_EUlS7_E_EEC2IRS7_JRKSO_EvEEOSJ_SN_
FNA:19,0,_ZNSt11_Tuple_implILm0EJPN8nlohmann16json_abi_v3_11_327byte_container_with_subtypeISt6vectorIhSaIhEEEEZNS1_10basic_jsonISt3mapS3_NSt7__cxx1112basic_stringIcSt11char_traitsIcESaIcEEEblmdSaNS1_14adl_serializerES5_vE6createIS6_JRKS6_EEEPT_DpOT0_EUlS7_E_EEC2IRS7_JRKSQ_EvEEOSL_SP_
FNA:19,0,_ZNSt11_Tuple_implILm0EJPNSt7__cxx1112basic_stringIcSt11char_traitsIcESaIcEEEZN8nlohmann16json_abi_v3_11_310basic_jsonISt3mapSt6vectorS5_blmdSaNS8_14adl_serializerESB_IhSaIhEEvE6createIS5_JRA1_KcEEEPT_DpOT0_EUlS6_E_EEC2IRS6_JRKSP_EvEEOSK_SO_
FNA:19,55,_ZNSt11_Tuple_implILm0EJPNSt7__cxx1112basic_stringIcSt11char_traitsIcESaIcEEEZN8nlohmann16json_abi_v3_11_310basic_jsonISt3mapSt6vectorS5_blmdSaNS8_14adl_serializerESB_IhSaIhEEvE6createIS5_JRKS5_EEEPT_DpOT0_EUlS6_E_EEC2IRS6_JRKSO_EvEEOSJ_SN_
FNA:19,19,_ZNSt11_Tuple_implILm0EJPSt3mapINSt7__cxx1112basic_stringIcSt11char_traitsIcESaIcEEEN8nlohmann16json_abi_v3_11_310basic_jsonIS0_St6vectorS6_blmdSaNS8_14adl_serializerESA_IhSaIhEEvEESt4lessIvESaISt4pairIKS6_SE_EEEZNSE_6createISL_JEEEPT_DpOT0_EUlSM_E_EEC2IRSM_JRKST_EvEEOSO_SS_
FNA:19,9,_ZNSt11_Tuple_implILm0EJPSt3mapINSt7__cxx1112basic_stringIcSt11char_traitsIcESaIcEEEN8nlohmann16json_abi_v3_11_310basic_jsonIS0_St6vectorS6_blmdSaNS8_14adl_serializerESA_IhSaIhEEvEESt4lessIvESaISt4pairIKS6_SE_EEEZNSE_6createISL_JRKSL_EEEPT_DpOT0_EUlSM_E_EEC2IRSM_JRKSV_EvEEOSQ_SU_
FNA:19,2,_ZNSt11_Tuple_implILm0EJPSt6vectorIN8nlohmann16json_abi_v3_11_310basic_jsonISt3mapS0_NSt7__cxx1112basic_stringIcSt11char_traitsIcESaIcEEEblmdSaNS2_14adl_serializerES0_IhSaIhEEvEESaISE_EEZNSE_6createISG_JEEEPT_DpOT0_EUlSH_E_EEC2IRSH_JRKSO_EvEEOSJ_SN_
FNA:19,2,_ZNSt11_Tuple_implILm0EJPSt6vectorIN8nlohmann16json_abi_v3_11_310basic_jsonISt3mapS0_NSt7__cxx1112basic_stringIcSt11char_traitsIcESaIcEEEblmdSaNS2_14adl_serializerES0_IhSaIhEEvEESaISE_EEZNSE_6createISG_JN9__gnu_cxx17__normal_iteratorIPKSA_S0_ISA_SaISA_EEEESP_EEEPT_DpOT0_EUlSH_E_EEC2IRSH_JRKSV_EvEEOSQ_SU_
FNA:19,42,_ZNSt11_Tuple_implILm0EJPSt6vectorIN8nlohmann16json_abi_v3_11_310basic_jsonISt3mapS0_NSt7__cxx1112basic_stringIcSt11char_traitsIcESaIcEEEblmdSaNS2_14adl_serializerES0_IhSaIhEEvEESaISE_EEZNSE_6createISG_JPKNS2_6detail8json_refISE_EESN_EEEPT_DpOT0_EUlSH_E_EEC2IRSH_JRKST_EvEEOSO_SS_
FNA:19,74,_ZNSt11_Tuple_implILm0EJPSt6vectorIN8nlohmann16json_abi_v3_11_310basic_jsonISt3mapS0_NSt7__cxx1112basic_stringIcSt11char_traitsIcESaIcEEEblmdSaNS2_14adl_serializerES0_IhSaIhEEvEESaISE_EEZNSE_6createISG_JRKSG_EEEPT_DpOT0_EUlSH_E_EEC2IRSH_JRKSQ_EvEEOSL_SP_
FNL:20,554,554
FNA:20,4,_ZNSt11_Tuple_implILm0EJRKNSt7__cxx1112basic_stringIcSt11char_traitsIcESaIcEEEEE7_M_headERS8_
FNA:20,0,_ZNSt11_Tuple_implILm1EJSt14default_deleteINSt7__cxx1112basic_stringIcSt11char_traitsIcESaIcEEEEEE7_M_headERS8_
FNA:20,5,_ZNSt11_Tuple_implILm1EJSt14default_deleteINSt7__cxx1118basic_stringstreamIcSt11char_traitsIcESaIcEEEEEE7_M_headERS8_
FNA:20,0,_ZNSt11_Tuple_implILm1EJZN8nlohmann16json_abi_v3_11_310basic_jsonISt3mapSt6vectorNSt7__cxx1112basic_stringIcSt11char_traitsIcESaIcEEEblmdSaNS1_14adl_serializerES4_IhSaIhEEvE6createINS1_27byte_container_with_subtypeISD_EEJEEEPT_DpOT0_EUlPSH_E_EE7_M_headERSP_
FNA:20,0,_ZNSt11_Tuple_implILm1EJZN8nlohmann16json_abi_v3_11_310basic_jsonISt3mapSt6vectorNSt7__cxx1112basic_stringIcSt11char_traitsIcESaIcEEEblmdSaNS1_14adl_serializerES4_IhSaIhEEvE6createINS1_27byte_container_with_subtypeISD_EEJRKSH_EEEPT_DpOT0_EUlPSH_E_EE7_M_headERSR_
FNA:20,0,_ZNSt11_Tuple_implILm1EJZN8nlohmann16json_abi_v3_11_310basic_jsonISt3mapSt6vectorNSt7__cxx1112basic_stringIcSt11char_traitsIcESaIcEEEblmdSaNS1_14adl_serializerES4_IhSaIhEEvE6createIS3_ISA_SE_St4lessIvESaISt4pairIKSA_SE_EEEJEEEPT_DpOT0_EUlPSM_E_EE7_M_headERSU_
FNA:20,0,_ZNSt11_Tuple_implILm1EJZN8nlohmann16json_abi_v3_11_310basic_jsonISt3mapSt6vectorNSt7__cxx1112basic_stringIcSt11char_traitsIcESaIcEEEblmdSaNS1_14adl_serializerES4_IhSaIhEEvE6createIS3_ISA_SE_St4lessIvESaISt4pairIKSA_SE_EEEJRKSM_EEEPT_DpOT0_EUlPSM_E_EE7_M_headERSW_
FNA:20,0,_ZNSt11_Tuple_implILm1EJZN8nlohmann16json_abi_v3_11_310basic_jsonISt3mapSt6vectorNSt7__cxx1112basic_stringIcSt11char_traitsIcESaIcEEEblmdSaNS1_14adl_serializerES4_IhSaIhEEvE6createIS4_ISE_SaISE_EEJEEEPT_DpOT0_EUlPSH_E_EE7_M_headERSP_
FNA:20,0,_ZNSt11_Tuple_implILm1EJZN8nlohmann16json_abi_v3_11_310basic_jsonISt3mapSt6vectorNSt7__cxx1112basic_stringIcSt11char_traitsIcESaIcEEEblmdSaNS1_14adl_serializerES4_IhSaIhEEvE6createIS4_ISE_SaISE_EEJN9__gnu_cxx17__normal_iteratorIPKSA_S4_ISA_SaISA_EEEESO_EEEPT_DpOT0_EUlPSH_E_EE7_M_headERSW_
FNA:20,0,_ZNSt11_Tuple_implILm1EJZN8nlohmann16json_abi_v3_11_310basic_jsonISt3mapSt6vectorNSt7__cxx1112basic_stringIcSt11char_traitsIcESaIcEEEblmdSaNS1_14adl_serializerES4_IhSaIhEEvE6createIS4_ISE_SaISE_EEJPKNS1_6detail8json_refISE_EESM_EEEPT_DpOT0_EUlPSH_E_EE7_M_headERSU_
FNA:20,0,_ZNSt11_Tuple_implILm1EJZN8nlohmann16json_abi_v3_11_310basic_jsonISt3mapSt6vectorNSt7__cxx1112basic_stringIcSt11char_traitsIcESaIcEEEblmdSaNS1_14adl_serializerES4_IhSaIhEEvE6createIS4_ISE_SaISE_EEJRKSH_EEEPT_DpOT0_EUlPSH_E_EE7_M_headERSR_
FNA:20,0,_ZNSt11_Tuple_implILm1EJZN8nlohmann16json_abi_v3_11_310basic_jsonISt3mapSt6vectorNSt7__cxx1112basic_stringIcSt11char_traitsIcESaIcEEEblmdSaNS1_14adl_serializerES4_IhSaIhEEvE6createISA_JRA1_KcEEEPT_DpOT0_EUlPSA_E_EE7_M_headERSQ_
FNA:20,0,_ZNSt11_Tuple_implILm1EJZN8nlohmann16json_abi_v3_11_310basic_jsonISt3mapSt6vectorNSt7__cxx1112basic_stringIcSt11char_traitsIcESaIcEEEblmdSaNS1_14adl_serializerES4_IhSaIhEEvE6createISA_JRKSA_EEEPT_DpOT0_EUlPSA_E_EE7_M_headERSP_
FNL:21,560,561
FNA:21,128,_ZNSt11_Tuple_implILm1EJSt14default_deleteINSt7__cxx1112basic_stringIcSt11char_traitsIcESaIcEEEEEEC2Ev
FNL:22,564,566
FNA:22,4,_ZNSt11_Tuple_implILm0EJRKNSt7__cxx1112basic_stringIcSt11char_traitsIcESaIcEEEEEC2ES7_
FNA:22,0,_ZNSt11_Tuple_implILm1EJZN8nlohmann16json_abi_v3_11_310basic_jsonISt3mapSt6vectorNSt7__cxx1112basic_stringIcSt11char_traitsIcESaIcEEEblmdSaNS1_14adl_serializerES4_IhSaIhEEvE6createINS1_27byte_container_with_subtypeISD_EEJEEEPT_DpOT0_EUlPSH_E_EEC2ERKSO_
FNA:22,0,_ZNSt11_Tuple_implILm1EJZN8nlohmann16json_abi_v3_11_310basic_jsonISt3mapSt6vectorNSt7__cxx1112basic_stringIcSt11char_traitsIcESaIcEEEblmdSaNS1_14adl_serializerES4_IhSaIhEEvE6createINS1_27byte_container_with_subtypeISD_EEJRKSH_EEEPT_DpOT0_EUlPSH_E_EEC2ERKSQ_
FNA:22,19,_ZNSt11_Tuple_implILm1EJZN8nlohmann16json_abi_v3_11_310basic_jsonISt3mapSt6vectorNSt7__cxx1112basic_stringIcSt11char_traitsIcESaIcEEEblmdSaNS1_14adl_serializerES4_IhSaIhEEvE6createIS3_ISA_SE_St4lessIvESaISt4pairIKSA_SE_EEEJEEEPT_DpOT0_EUlPSM_E_EEC2ERKST_
FNA:22,9,_ZNSt11_Tuple_implILm1EJZN8nlohmann16json_abi_v3_11_310basic_jsonISt3mapSt6vectorNSt7__cxx1112basic_stringIcSt11char_traitsIcESaIcEEEblmdSaNS1_14adl_serializerES4_IhSaIhEEvE6createIS3_ISA_SE_St4lessIvESaISt4pairIKSA_SE_EEEJRKSM_EEEPT_DpOT0_EUlPSM_E_EEC2ERKSV_
FNA:22,2,_ZNSt11_Tuple_implILm1EJZN8nlohmann16json_abi_v3_11_310basic_jsonISt3mapSt6vectorNSt7__cxx1112basic_stringIcSt11char_traitsIcESaIcEEEblmdSaNS1_14adl_serializerES4_IhSaIhEEvE6createIS4_ISE_SaISE_EEJEEEPT_DpOT0_EUlPSH_E_EEC2ERKSO_
FNA:22,2,_ZNSt11_Tuple_implILm1EJZN8nlohmann16json_abi_v3_11_310basic_jsonISt3mapSt6vectorNSt7__cxx1112basic_stringIcSt11char_traitsIcESaIcEEEblmdSaNS1_14adl_serializerES4_IhSaIhEEvE6createIS4_ISE_SaISE_EEJN9__gnu_cxx17__normal_iteratorIPKSA_S4_ISA_SaISA_EEEESO_EEEPT_DpOT0_EUlPSH_E_EEC2ERKSV_
FNA:22,42,_ZNSt11_Tuple_implILm1EJZN8nlohmann16json_abi_v3_11_310basic_jsonISt3mapSt6vectorNSt7__cxx1112basic_stringIcSt11char_traitsIcESaIcEEEblmdSaNS1_14adl_serializerES4_IhSaIhEEvE6createIS4_ISE_SaISE_EEJPKNS1_6detail8json_refISE_EESM_EEEPT_DpOT0_EUlPSH_E_EEC2ERKST_
FNA:22,74,_ZNSt11_Tuple_implILm1EJZN8nlohmann16json_abi_v3_11_310basic_jsonISt3mapSt6vectorNSt7__cxx1112basic_stringIcSt11char_traitsIcESaIcEEEblmdSaNS1_14adl_serializerES4_IhSaIhEEvE6createIS4_ISE_SaISE_EEJRKSH_EEEPT_DpOT0_EUlPSH_E_EEC2ERKSQ_
FNA:22,0,_ZNSt11_Tuple_implILm1EJZN8nlohmann16json_abi_v3_11_310basic_jsonISt3mapSt6vectorNSt7__cxx1112basic_stringIcSt11char_traitsIcESaIcEEEblmdSaNS1_14adl_serializerES4_IhSaIhEEvE6createISA_JRA1_KcEEEPT_DpOT0_EUlPSA_E_EEC2ERKSP_
FNA:22,55,_ZNSt11_Tuple_implILm1EJZN8nlohmann16json_abi_v3_11_310basic_jsonISt3mapSt6vectorNSt7__cxx1112basic_stringIcSt11char_traitsIcESaIcEEEblmdSaNS1_14adl_serializerES4_IhSaIhEEvE6createISA_JRKSA_EEEPT_DpOT0_EUlPSA_E_EEC2ERKSO_
FNL:23,584,587
FNA:23,4,_ZNSt11_Tuple_implILm0EJRKNSt7__cxx1112basic_stringIcSt11char_traitsIcESaIcEEEEEC2EOS8_
FNL:24,93,94
FNA:24,128,_ZNSt10_Head_baseILm1ESt14default_deleteINSt7__cxx1112basic_stringIcSt11char_traitsIcESaIcEEEELb1EEC2Ev
FNF:25
FNH:25
DA:93,128
DA:94,128
DA:137,5
DA:202,128
DA:203,128
DA:205,207
DA:206,207
DA:212,203
DA:213,203
DA:246,891
DA:249,406
DA:291,887
DA:294,406
DA:302,128
DA:303,128
DA:313,203
DA:315,609
DA:316,203
DA:554,9
DA:560,128
DA:561,128
DA:564,207
DA:565,207
DA:566,207
DA:584,4
DA:586,4
DA:587,4
DA:1473,4
DA:1475,4
DA:1504,4
DA:2090,128
DA:2092,128
DA:2118,203
DA:2120,609
DA:2121,203
DA:2428,896
DA:2429,896
DA:2433,406
DA:2434,406
DA:2444,896
DA:2445,896
DA:2450,406
DA:2451,406
DA:2871,4
DA:2876,4
DA:2877,4
DA:2883,4
DA:2886,8
DA:2887,4
DA:2888,4
LF:50
LH:50
end_of_record
TN:
SF:/usr/include/c++/15/typeinfo
FNL:0,104,105
FNA:0,0,_ZNKSt9type_info4nameEv
FNL:1,197,214
FNA:1,0,_ZNKSt9type_infoeqERKS_
FNF:2
FNH:0
DA:104,0
DA:105,0
DA:197,0
DA:199,0
DA:200,0
DA:202,0
DA:203,0
DA:210,0
LF:8
LH:0
end_of_record
TN:
SF:/usr/include/gtest/gtest-assertion-result.h
FNL:0,162,168
FNA:0,128,_ZN7testing15AssertionResultC2IbEERKT_PNSt9enable_ifIXntsrSt14is_convertibleIS2_S0_E5valueEvE4typeE
FNL:1,181,181
FNA:1,273,_ZNK7testing15AssertionResultcvbEv
FNL:2,190,192
FNA:2,0,_ZNK7testing15AssertionResult7messageEv
FNL:3,194,194
FNA:3,0,_ZNK7testing15AssertionResult15failure_messageEv
FNF:4
FNH:2
DA:162,128
DA:168,128
DA:181,273
DA:190,0
DA:191,0
DA:194,0
LF:6
LH:3
end_of_record
TN:
SF:/usr/include/gtest/gtest-message.h
FNF:0
FNH:0
LF:0
LH:0
end_of_record
TN:
SF:/usr/include/gtest/gtest-printers.h
FNL:0,1064,1066
FNA:0,0,_ZN7testing8internal21UniversalTersePrinterINSt7__cxx1112basic_stringIcSt11char_traitsIcESaIcEEEE5PrintERKS7_PSo
FNA:0,0,_ZN7testing8internal21UniversalTersePrinterIiE5PrintERKiPSo
FNL:1,1092,1098
FNA:1,0,_ZN7testing8internal21UniversalTersePrinterIPKcE5PrintES3_PSo
FNL:2,1183,1188
FNA:2,0,_ZN7testing8internal14UniversalPrintINSt7__cxx1112basic_stringIcSt11char_traitsIcESaIcEEEEEvRKT_PSo
FNA:2,0,_ZN7testing8internal14UniversalPrintIiEEvRKT_PSo
FNL:3,1223,1227
FNA:3,0,_ZN7testing13PrintToStringINSt7__cxx1112basic_stringIcSt11char_traitsIcESaIcEEEEES6_RKT_
FNA:3,0,_ZN7testing13PrintToStringIPKcEENSt7__cxx1112basic_stringIcSt11char_traitsIcESaIcEEERKT_
FNA:3,0,_ZN7testing13PrintToStringIiEENSt7__cxx1112basic_stringIcSt11char_traitsIcESaIcEEERKT_
FNL:4,248,253
FNA:4,0,_ZN7testing8internal52internal_stream_operator_without_lexical_name_lookup13StreamPrinter10PrintValueIivEEDTcvvlsdefp0_fp_ERKT_PSo
FNL:5,352,363
FNA:5,0,_ZN7testing8internal17PrintWithFallbackIiEEvRKT_PSo
FNL:6,383,385
FNA:6,0,_ZN7testing8internal19FormatForComparisonINSt7__cxx1112basic_stringIcSt11char_traitsIcESaIcEEEA10_cE6FormatERKS7_
FNA:6,0,_ZN7testing8internal19FormatForComparisonINSt7__cxx1112basic_stringIcSt11char_traitsIcESaIcEEEA1_cE6FormatERKS7_
FNA:6,0,_ZN7testing8internal19FormatForComparisonINSt7__cxx1112basic_stringIcSt11char_traitsIcESaIcEEEA2_cE6FormatERKS7_
FNA:6,0,_ZN7testing8internal19FormatForComparisonINSt7__cxx1112basic_stringIcSt11char_traitsIcESaIcEEEA4_cE6FormatERKS7_
FNA:6,0,_ZN7testing8internal19FormatForComparisonINSt7__cxx1112basic_stringIcSt11char_traitsIcESaIcEEEA5_cE6FormatERKS7_
FNA:6,0,_ZN7testing8internal19FormatForComparisonINSt7__cxx1112basic_stringIcSt11char_traitsIcESaIcEEEA6_cE6FormatERKS7_
FNA:6,0,_ZN7testing8internal19FormatForComparisonINSt7__cxx1112basic_stringIcSt11char_traitsIcESaIcEEEA7_cE6FormatERKS7_
FNA:6,0,_ZN7testing8internal19FormatForComparisonINSt7__cxx1112basic_stringIcSt11char_traitsIcESaIcEEEA9_cE6FormatERKS7_
FNA:6,0,_ZN7testing8internal19FormatForComparisonINSt7__cxx1112basic_stringIcSt11char_traitsIcESaIcEEES7_E6FormatERKS7_
FNA:6,0,_ZN7testing8internal19FormatForComparisonIiiE6FormatB5cxx11ERKi
FNL:7,392,394
FNA:7,0,_ZN7testing8internal19FormatForComparisonIA10_cNSt7__cxx1112basic_stringIcSt11char_traitsIcESaIcEEEE6FormatEPKc
FNA:7,0,_ZN7testing8internal19FormatForComparisonIA1_cNSt7__cxx1112basic_stringIcSt11char_traitsIcESaIcEEEE6FormatEPKc
FNA:7,0,_ZN7testing8internal19FormatForComparisonIA2_cNSt7__cxx1112basic_stringIcSt11char_traitsIcESaIcEEEE6FormatEPKc
FNA:7,0,_ZN7testing8internal19FormatForComparisonIA4_cNSt7__cxx1112basic_stringIcSt11char_traitsIcESaIcEEEE6FormatEPKc
FNA:7,0,_ZN7testing8internal19FormatForComparisonIA5_cNSt7__cxx1112basic_stringIcSt11char_traitsIcESaIcEEEE6FormatEPKc
FNA:7,0,_ZN7testing8internal19FormatForComparisonIA6_cNSt7__cxx1112basic_stringIcSt11char_traitsIcESaIcEEEE6FormatEPKc
FNA:7,0,_ZN7testing8internal19FormatForComparisonIA7_cNSt7__cxx1112basic_stringIcSt11char_traitsIcESaIcEEEE6FormatEPKc
FNA:7,0,_ZN7testing8internal19FormatForComparisonIA9_cNSt7__cxx1112basic_stringIcSt11char_traitsIcESaIcEEEE6FormatEPKc
FNL:8,437,437
FNA:8,0,_ZN7testing8internal19FormatForComparisonIPKcNSt7__cxx1112basic_stringIcSt11char_traitsIcESaIcEEEE6FormatES3_
FNL:9,463,466
FNA:9,0,_ZN7testing8internal33FormatForComparisonFailureMessageIA10_cNSt7__cxx1112basic_stringIcSt11char_traitsIcESaIcEEEEES8_RKT_RKT0_
FNA:9,0,_ZN7testing8internal33FormatForComparisonFailureMessageIA1_cNSt7__cxx1112basic_stringIcSt11char_traitsIcESaIcEEEEES8_RKT_RKT0_
FNA:9,0,_ZN7testing8internal33FormatForComparisonFailureMessageIA2_cNSt7__cxx1112basic_stringIcSt11char_traitsIcESaIcEEEEES8_RKT_RKT0_
FNA:9,0,_ZN7testing8internal33FormatForComparisonFailureMessageIA4_cNSt7__cxx1112basic_stringIcSt11char_traitsIcESaIcEEEEES8_RKT_RKT0_
FNA:9,0,_ZN7testing8internal33FormatForComparisonFailureMessageIA5_cNSt7__cxx1112basic_stringIcSt11char_traitsIcESaIcEEEEES8_RKT_RKT0_
FNA:9,0,_ZN7testing8internal33FormatForComparisonFailureMessageIA6_cNSt7__cxx1112basic_stringIcSt11char_traitsIcESaIcEEEEES8_RKT_RKT0_
FNA:9,0,_ZN7testing8internal33FormatForComparisonFailureMessageIA7_cNSt7__cxx1112basic_stringIcSt11char_traitsIcESaIcEEEEES8_RKT_RKT0_
FNA:9,0,_ZN7testing8internal33FormatForComparisonFailureMessageIA9_cNSt7__cxx1112basic_stringIcSt11char_traitsIcESaIcEEEEES8_RKT_RKT0_
FNA:9,0,_ZN7testing8internal33FormatForComparisonFailureMessageINSt7__cxx1112basic_stringIcSt11char_traitsIcESaIcEEEA10_cEES7_RKT_RKT0_
FNA:9,0,_ZN7testing8internal33FormatForComparisonFailureMessageINSt7__cxx1112basic_stringIcSt11char_traitsIcESaIcEEEA1_cEES7_RKT_RKT0_
FNA:9,0,_ZN7testing8internal33FormatForComparisonFailureMessageINSt7__cxx1112basic_stringIcSt11char_traitsIcESaIcEEEA2_cEES7_RKT_RKT0_
FNA:9,0,_ZN7testing8internal33FormatForComparisonFailureMessageINSt7__cxx1112basic_stringIcSt11char_traitsIcESaIcEEEA4_cEES7_RKT_RKT0_
FNA:9,0,_ZN7testing8internal33FormatForComparisonFailureMessageINSt7__cxx1112basic_stringIcSt11char_traitsIcESaIcEEEA5_cEES7_RKT_RKT0_
FNA:9,0,_ZN7testing8internal33FormatForComparisonFailureMessageINSt7__cxx1112basic_stringIcSt11char_traitsIcESaIcEEEA6_cEES7_RKT_RKT0_
FNA:9,0,_ZN7testing8internal33FormatForComparisonFailureMessageINSt7__cxx1112basic_stringIcSt11char_traitsIcESaIcEEEA7_cEES7_RKT_RKT0_
FNA:9,0,_ZN7testing8internal33FormatForComparisonFailureMessageINSt7__cxx1112basic_stringIcSt11char_traitsIcESaIcEEEA9_cEES7_RKT_RKT0_
FNA:9,0,_ZN7testing8internal33FormatForComparisonFailureMessageINSt7__cxx1112basic_stringIcSt11char_traitsIcESaIcEEES7_EES7_RKT_RKT0_
FNA:9,0,_ZN7testing8internal33FormatForComparisonFailureMessageIiiEENSt7__cxx1112basic_stringIcSt11char_traitsIcESaIcEEERKT_RKT0_
FNL:10,490,492
FNA:10,0,_ZN7testing8internal7PrintToIiEEvRKT_PSo
FNL:11,700,702
FNA:11,0,_ZN7testing8internal7PrintToERKNSt7__cxx1112basic_stringIcSt11char_traitsIcESaIcEEEPSo
FNL:12,874,884
FNA:12,0,_ZN7testing8internal16UniversalPrinterINSt7__cxx1112basic_stringIcSt11char_traitsIcESaIcEEEE5PrintERKS7_PSo
FNA:12,0,_ZN7testing8internal16UniversalPrinterIiE5PrintERKiPSo
FNF:13
FNH:0
DA:248,0
DA:252,0
DA:253,0
DA:352,0
DA:362,0
DA:363,0
DA:383,0
DA:384,0
DA:392,0
DA:393,0
DA:437,0
DA:463,0
DA:465,0
DA:490,0
DA:491,0
DA:492,0
DA:700,0
DA:701,0
DA:702,0
DA:874,0
DA:883,0
DA:884,0
DA:1064,0
DA:1065,0
DA:1066,0
DA:1092,0
DA:1093,0
DA:1094,0
DA:1096,0
DA:1098,0
DA:1183,0
DA:1187,0
DA:1188,0
DA:1223,0
DA:1224,0
DA:1225,0
DA:1226,0
DA:1227,0
LF:38
LH:0
end_of_record
TN:
SF:/usr/include/gtest/gtest.h
FNL:0,1374,1380
FNA:0,0,_ZN7testing8internal18CmpHelperEQFailureINSt7__cxx1112basic_stringIcSt11char_traitsIcESaIcEEEA10_cEENS_15AssertionResultEPKcSB_RKT_RKT0_
FNA:0,0,_ZN7testing8internal18CmpHelperEQFailureINSt7__cxx1112basic_stringIcSt11char_traitsIcESaIcEEEA1_cEENS_15AssertionResultEPKcSB_RKT_RKT0_
FNA:0,0,_ZN7testing8internal18CmpHelperEQFailureINSt7__cxx1112basic_stringIcSt11char_traitsIcESaIcEEEA2_cEENS_15AssertionResultEPKcSB_RKT_RKT0_
FNA:0,0,_ZN7testing8internal18CmpHelperEQFailureINSt7__cxx1112basic_stringIcSt11char_traitsIcESaIcEEEA4_cEENS_15AssertionResultEPKcSB_RKT_RKT0_
FNA:0,0,_ZN7testing8internal18CmpHelperEQFailureINSt7__cxx1112basic_stringIcSt11char_traitsIcESaIcEEEA5_cEENS_15AssertionResultEPKcSB_RKT_RKT0_
FNA:0,0,_ZN7testing8internal18CmpHelperEQFailureINSt7__cxx1112basic_stringIcSt11char_traitsIcESaIcEEEA6_cEENS_15AssertionResultEPKcSB_RKT_RKT0_
FNA:0,0,_ZN7testing8internal18CmpHelperEQFailureINSt7__cxx1112basic_stringIcSt11char_traitsIcESaIcEEEA7_cEENS_15AssertionResultEPKcSB_RKT_RKT0_
FNA:0,0,_ZN7testing8internal18CmpHelperEQFailureINSt7__cxx1112basic_stringIcSt11char_traitsIcESaIcEEEA9_cEENS_15AssertionResultEPKcSB_RKT_RKT0_
FNA:0,0,_ZN7testing8internal18CmpHelperEQFailureINSt7__cxx1112basic_stringIcSt11char_traitsIcESaIcEEES7_EENS_15AssertionResultEPKcSA_RKT_RKT0_
FNA:0,0,_ZN7testing8internal18CmpHelperEQFailureIiiEENS_15AssertionResultEPKcS4_RKT_RKT0_
FNL:1,1391,1399
FNA:1,2,_ZN7testing8internal11CmpHelperEQINSt7__cxx1112basic_stringIcSt11char_traitsIcESaIcEEEA10_cEENS_15AssertionResultEPKcSB_RKT_RKT0_
FNA:1,2,_ZN7testing8internal11CmpHelperEQINSt7__cxx1112basic_stringIcSt11char_traitsIcESaIcEEEA1_cEENS_15AssertionResultEPKcSB_RKT_RKT0_
FNA:1,16,_ZN7testing8internal11CmpHelperEQINSt7__cxx1112basic_stringIcSt11char_traitsIcESaIcEEEA2_cEENS_15AssertionResultEPKcSB_RKT_RKT0_
FNA:1,3,_ZN7testing8internal11CmpHelperEQINSt7__cxx1112basic_stringIcSt11char_traitsIcESaIcEEEA4_cEENS_15AssertionResultEPKcSB_RKT_RKT0_
FNA:1,10,_ZN7testing8internal11CmpHelperEQINSt7__cxx1112basic_stringIcSt11char_traitsIcESaIcEEEA5_cEENS_15AssertionResultEPKcSB_RKT_RKT0_
FNA:1,31,_ZN7testing8internal11CmpHelperEQINSt7__cxx1112basic_stringIcSt11char_traitsIcESaIcEEEA6_cEENS_15AssertionResultEPKcSB_RKT_RKT0_
FNA:1,12,_ZN7testing8internal11CmpHelperEQINSt7__cxx1112basic_stringIcSt11char_traitsIcESaIcEEEA7_cEENS_15AssertionResultEPKcSB_RKT_RKT0_
FNA:1,1,_ZN7testing8internal11CmpHelperEQINSt7__cxx1112basic_stringIcSt11char_traitsIcESaIcEEEA9_cEENS_15AssertionResultEPKcSB_RKT_RKT0_
FNA:1,20,_ZN7testing8internal11CmpHelperEQINSt7__cxx1112basic_stringIcSt11char_traitsIcESaIcEEES7_EENS_15AssertionResultEPKcSA_RKT_RKT0_
FNA:1,48,_ZN7testing8internal11CmpHelperEQIiiEENS_15AssertionResultEPKcS4_RKT_RKT0_
FNL:2,1410,1414
FNA:2,2,_ZN7testing8internal8EqHelper7CompareINSt7__cxx1112basic_stringIcSt11char_traitsIcESaIcEEEA10_cLPv0EEENS_15AssertionResultEPKcSD_RKT_RKT0_
FNA:2,2,_ZN7testing8internal8EqHelper7CompareINSt7__cxx1112basic_stringIcSt11char_traitsIcESaIcEEEA1_cLPv0EEENS_15AssertionResultEPKcSD_RKT_RKT0_
FNA:2,16,_ZN7testing8internal8EqHelper7CompareINSt7__cxx1112basic_stringIcSt11char_traitsIcESaIcEEEA2_cLPv0EEENS_15AssertionResultEPKcSD_RKT_RKT0_
FNA:2,3,_ZN7testing8internal8EqHelper7CompareINSt7__cxx1112basic_stringIcSt11char_traitsIcESaIcEEEA4_cLPv0EEENS_15AssertionResultEPKcSD_RKT_RKT0_
FNA:2,10,_ZN7testing8internal8EqHelper7CompareINSt7__cxx1112basic_stringIcSt11char_traitsIcESaIcEEEA5_cLPv0EEENS_15AssertionResultEPKcSD_RKT_RKT0_
FNA:2,31,_ZN7testing8internal8EqHelper7CompareINSt7__cxx1112basic_stringIcSt11char_traitsIcESaIcEEEA6_cLPv0EEENS_15AssertionResultEPKcSD_RKT_RKT0_
FNA:2,12,_ZN7testing8internal8EqHelper7CompareINSt7__cxx1112basic_stringIcSt11char_traitsIcESaIcEEEA7_cLPv0EEENS_15AssertionResultEPKcSD_RKT_RKT0_
FNA:2,1,_ZN7testing8internal8EqHelper7CompareINSt7__cxx1112basic_stringIcSt11char_traitsIcESaIcEEEA9_cLPv0EEENS_15AssertionResultEPKcSD_RKT_RKT0_
FNA:2,20,_ZN7testing8internal8EqHelper7CompareINSt7__cxx1112basic_stringIcSt11char_traitsIcESaIcEEES8_LPv0EEENS_15AssertionResultEPKcSC_RKT_RKT0_
FNA:2,48,_ZN7testing8internal8EqHelper7CompareIiiLPv0EEENS_15AssertionResultEPKcS6_RKT_RKT0_
FNL:3,255,255
FNA:3,0,_ZN7testing4Test14SetUpTestSuiteEv
FNL:4,263,263
FNA:4,0,_ZN7testing4Test17TearDownTestSuiteEv
FNL:5,268,268
FNA:5,0,_ZN7testing4Test16TearDownTestCaseEv
FNL:6,269,269
FNA:6,0,_ZN7testing4Test13SetUpTestCaseEv
FNL:7,356,356
FNA:7,0,_ZN7testing4Test5SetupEv
FNF:8
FNH:2
DA:255,0
DA:263,0
DA:268,0
DA:269,0
DA:356,0
DA:1374,0
DA:1378,0
DA:1379,0
DA:1391,145
DA:1394,145
DA:1395,145
DA:1398,0
DA:1410,145
DA:1413,145
LF:14
LH:5
end_of_record
TN:
SF:/usr/include/gtest/internal/gtest-internal.h
FNL:0,429,429
FNA:0,0,_ZN7testing8internal15TestFactoryBaseD0Ev
FNA:0,68,_ZN7testing8internal15TestFactoryBaseD2Ev
FNL:1,436,436
FNA:1,68,_ZN7testing8internal15TestFactoryBaseC2Ev
FNL:2,448,448
FNA:2,1,_ZN7testing8internal15TestFactoryImplI18StackTest_Pop_TestE10CreateTestEv
FNA:2,1,_ZN7testing8internal15TestFactoryImplI19StackTest_Push_TestE10CreateTestEv
FNA:2,1,_ZN7testing8internal15TestFactoryImplI20ArrayTest_Print_TestE10CreateTestEv
FNA:2,1,_ZN7testing8internal15TestFactoryImplI20QueueTest_Print_TestE10CreateTestEv
FNA:2,1,_ZN7testing8internal15TestFactoryImplI20StackTest_Print_TestE10CreateTestEv
FNA:2,1,_ZN7testing8internal15TestFactoryImplI21ArrayTest_Insert_TestE10CreateTestEv
FNA:2,1,_ZN7testing8internal15TestFactoryImplI21ArrayTest_Remove_TestE10CreateTestEv
FNA:2,1,_ZN7testing8internal15TestFactoryImplI21ArrayTest_SetGet_TestE10CreateTestEv
FNA:2,1,_ZN7testing8internal15TestFactoryImplI22QueueTest_Dequeue_TestE10CreateTestEv
FNA:2,1,_ZN7testing8internal15TestFactoryImplI22QueueTest_Enqueue_TestE10CreateTestEv
FNA:2,1,_ZN7testing8internal15TestFactoryImplI23DoublyListTest_Get_TestE10CreateTestEv
FNA:2,1,_ZN7testing8internal15TestFactoryImplI23StackTest_Contains_TestE10CreateTestEv
FNA:2,1,_ZN7testing8internal15TestFactoryImplI25DoublyListTest_Print_TestE10CreateTestEv
FNA:2,1,_ZN7testing8internal15TestFactoryImplI26DoublyListTest_Insert_TestE10CreateTestEv
FNA:2,1,_ZN7testing8internal15TestFactoryImplI26DoublyListTest_Remove_TestE10CreateTestEv
FNA:2,1,_ZN7testing8internal15TestFactoryImplI27ArrayTest_InsertErrors_TestE10CreateTestEv
FNA:2,1,_ZN7testing8internal15TestFactoryImplI27ForwardListTest_Insert_TestE10CreateTestEv
FNA:2,1,_ZN7testing8internal15TestFactoryImplI27ForwardListTest_Remove_TestE10CreateTestEv
FNA:2,1,_ZN7testing8internal15TestFactoryImplI28ArrayTest_Serialization_TestE10CreateTestEv
FNA:2,1,_ZN7testing8internal15TestFactoryImplI28QueueTest_Serialization_TestE10CreateTestEv
FNA:2,1,_ZN7testing8internal15TestFactoryImplI28RedBlackTreeTest_Insert_TestE10CreateTestEv
FNA:2,1,_ZN7testing8internal15TestFactoryImplI29ForwardListTest_PopFront_TestE10CreateTestEv
FNA:2,1,_ZN7testing8internal15TestFactoryImplI30ChainHashTableTest_HasKey_TestE10CreateTestEv
FNA:2,1,_ZN7testing8internal15TestFactoryImplI30ChainHashTableTest_Remove_TestE10CreateTestEv
FNA:2,1,_ZN7testing8internal15TestFactoryImplI30ForwardListTest_PushFront_TestE10CreateTestEv
FNA:2,1,_ZN7testing8internal15TestFactoryImplI31RedBlackTreeTest_EdgeCases_TestE10CreateTestEv
FNA:2,1,_ZN7testing8internal15TestFactoryImplI32ArrayTest_TextSerialization_TestE10CreateTestEv
FNA:2,1,_ZN7testing8internal15TestFactoryImplI32DoublyListTest_PopFrontBack_TestE10CreateTestEv
FNA:2,1,_ZN7testing8internal15TestFactoryImplI32QueueTest_ComplexOperations_TestE10CreateTestEv
FNA:2,1,_ZN7testing8internal15TestFactoryImplI32QueueTest_TextSerialization_TestE10CreateTestEv
FNA:2,1,_ZN7testing8internal15TestFactoryImplI32StackTest_TextSerialization_TestE10CreateTestEv
FNA:2,1,_ZN7testing8internal15TestFactoryImplI33DoublyListTest_PushFrontBack_TestE10CreateTestEv
FNA:2,1,_ZN7testing8internal15TestFactoryImplI33DoublyListTest_Serialization_TestE10CreateTestEv
FNA:2,1,_ZN7testing8internal15TestFactoryImplI34ArrayTest_BinarySerialization_TestE10CreateTestEv
FNA:2,1,_ZN7testing8internal15TestFactoryImplI34ForwardListTest_Serialization_TestE10CreateTestEv
FNA:2,1,_ZN7testing8internal15TestFactoryImplI34QueueTest_BinarySerialization_TestE10CreateTestEv
FNA:2,1,_ZN7testing8internal15TestFactoryImplI34StackTest_BinarySerialization_TestE10CreateTestEv
FNA:2,1,_ZN7testing8internal15TestFactoryImplI35ChainHashTableTest_UpdateValue_TestE10CreateTestEv
FNA:2,1,_ZN7testing8internal15TestFactoryImplI35StackTest_SerializeDeserialize_TestE10CreateTestEv
FNA:2,1,_ZN7testing8internal15TestFactoryImplI37ChainHashTableTest_InsertAndFind_TestE10CreateTestEv
FNA:2,1,_ZN7testing8internal15TestFactoryImplI37DoublyListTest_TextSerialization_TestE10CreateTestEv
FNA:2,1,_ZN7testing8internal15TestFactoryImplI38ArrayTest_EmptyArraySerialization_TestE10CreateTestEv
FNA:2,1,_ZN7testing8internal15TestFactoryImplI38ForwardListTest_TextSerialization_TestE10CreateTestEv
FNA:2,1,_ZN7testing8internal15TestFactoryImplI38QueueTest_EmptyQueueSerialization_TestE10CreateTestEv
FNA:2,1,_ZN7testing8internal15TestFactoryImplI38RedBlackTreeTest_RotationCoverage_TestE10CreateTestEv
FNA:2,1,_ZN7testing8internal15TestFactoryImplI38StackTest_EmptyStackSerialization_TestE10CreateTestEv
FNA:2,1,_ZN7testing8internal15TestFactoryImplI39DoublyListTest_BinarySerialization_TestE10CreateTestEv
FNA:2,1,_ZN7testing8internal15TestFactoryImplI39RedBlackTreeTest_ComplexInsertions_TestE10CreateTestEv
FNA:2,1,_ZN7testing8internal15TestFactoryImplI39RedBlackTreeTest_TextSerialization_TestE10CreateTestEv
FNA:2,1,_ZN7testing8internal15TestFactoryImplI40ForwardListTest_BinarySerialization_TestE10CreateTestEv
FNA:2,1,_ZN7testing8internal15TestFactoryImplI40RedBlackTreeTest_ExtensiveRotations_TestE10CreateTestEv
FNA:2,1,_ZN7testing8internal15TestFactoryImplI41ArrayTest_ConstructorAndInitialState_TestE10CreateTestEv
FNA:2,1,_ZN7testing8internal15TestFactoryImplI41ChainHashTableTest_CollisionHandling_TestE10CreateTestEv
FNA:2,1,_ZN7testing8internal15TestFactoryImplI41ChainHashTableTest_JsonSerialization_TestE10CreateTestEv
FNA:2,1,_ZN7testing8internal15TestFactoryImplI41ChainHashTableTest_TextSerialization_TestE10CreateTestEv
FNA:2,1,_ZN7testing8internal15TestFactoryImplI41QueueTest_ConstructorAndInitialState_TestE10CreateTestEv
FNA:2,1,_ZN7testing8internal15TestFactoryImplI41RedBlackTreeTest_BinarySerialization_TestE10CreateTestEv
FNA:2,1,_ZN7testing8internal15TestFactoryImplI41StackTest_ConstructorAndInitialState_TestE10CreateTestEv
FNA:2,1,_ZN7testing8internal15TestFactoryImplI42DoublyListTest_EmptyListSerialization_TestE10CreateTestEv
FNA:2,1,_ZN7testing8internal15TestFactoryImplI42RedBlackTreeTest_SerializeDeserialize_TestE10CreateTestEv
FNA:2,1,_ZN7testing8internal15TestFactoryImplI43ChainHashTableTest_BinarySerialization_TestE10CreateTestEv
FNA:2,1,_ZN7testing8internal15TestFactoryImplI43ForwardListTest_EmptyListSerialization_TestE10CreateTestEv
FNA:2,1,_ZN7testing8internal15TestFactoryImplI44RedBlackTreeTest_EmptyTreeSerialization_TestE10CreateTestEv
FNA:2,1,_ZN7testing8internal15TestFactoryImplI46DoublyListTest_ConstructorAndInitialState_TestE10CreateTestEv
FNA:2,1,_ZN7testing8internal15TestFactoryImplI47ChainHashTableTest_EmptyTableSerialization_TestE10CreateTestEv
FNA:2,1,_ZN7testing8internal15TestFactoryImplI47ForwardListTest_ConstructorAndInitialState_TestE10CreateTestEv
FNA:2,1,_ZN7testing8internal15TestFactoryImplI48RedBlackTreeTest_ConstructorAndInitialState_TestE10CreateTestEv
FNA:2,1,_ZN7testing8internal15TestFactoryImplI50ChainHashTableTest_ConstructorAndInitialState_TestE10CreateTestEv
FNL:3,469,470
FNA:3,68,_ZN7testing8internal12CodeLocationC2ENSt7__cxx1112basic_stringIcSt11char_traitsIcESaIcEEEi
FNL:4,482,485
FNA:4,272,_ZN7testing8internal19GetNotDefaultOrNullEPFvvES2_
FNL:5,497,516
FNA:5,68,_ZN7testing8internal16SuiteApiResolverINS_4TestEE19GetSetUpCaseOrSuiteEPKci
FNL:6,518,537
FNA:6,68,_ZN7testing8internal16SuiteApiResolverINS_4TestEE22GetTearDownCaseOrSuiteEPKci
FNL:7,829,829
FNA:7,10,_ZN7testing8internal14TrueWithStringC2Ev
FNL:8,832,832
FNA:8,10,_ZNK7testing8internal14TrueWithStringcvbEv
FNF:9
FNH:9
DA:429,68
DA:436,68
DA:448,136
DA:469,68
DA:470,136
DA:482,272
DA:484,272
DA:497,68
DA:501,68
DA:503,68
DA:505,68
DA:508,0
DA:510,68
DA:518,68
DA:522,68
DA:524,68
DA:526,68
DA:529,0
DA:531,68
DA:829,10
DA:832,10
LF:21
LH:19
end_of_record
TN:
SF:/usr/include/gtest/internal/gtest-port.h
FNL:0,1050,1050
FNA:0,0,_ZN7testing8internal8GTestLog9GetStreamEv
FNF:1
FNH:0
DA:1050,0
LF:1
LH:0
end_of_record
TN:
SF:/usr/include/gtest/internal/gtest-type-util.h
FNL:0,61,87
FNA:0,0,_ZN7testing8internal31CanonicalizeForStdLibVersioningENSt7__cxx1112basic_stringIcSt11char_traitsIcESaIcEEE
FNL:1,91,121
FNA:1,0,_ZN7testing8internal11GetTypeNameB5cxx11ERKSt9type_info
FNF:2
FNH:0
DA:61,0
DA:63,0
DA:64,0
DA:65,0
DA:67,0
DA:74,0
DA:75,0
DA:78,0
DA:79,0
DA:80,0
DA:83,0
DA:84,0
DA:86,0
DA:91,0
DA:92,0
DA:94,0
DA:100,0
DA:101,0
DA:102,0
DA:103,0
DA:121,0
LF:21
LH:0
end_of_record
TN:
SF:/usr/include/x86_64-linux-gnu/c++/15/bits/c++config.h
FNF:0
FNH:0
DA:589,2537
LF:1
LH:1
end_of_record
